
HefnyCopter 2.elf:     file format elf32-avr

Sections:
Idx Name          Size      VMA       LMA       File off  Algn
  0 .data         00000014  00800100  00007d24  00007db8  2**0
                  CONTENTS, ALLOC, LOAD, DATA
  1 .text         00007d24  00000000  00000000  00000094  2**1
                  CONTENTS, ALLOC, LOAD, READONLY, CODE
  2 .bss          0000070d  00800114  00800114  00007dcc  2**0
                  ALLOC
  3 .stab         00003cd8  00000000  00000000  00007dcc  2**2
                  CONTENTS, READONLY, DEBUGGING
  4 .stabstr      00000f93  00000000  00000000  0000baa4  2**0
                  CONTENTS, READONLY, DEBUGGING
  5 .debug_aranges 00000060  00000000  00000000  0000ca37  2**0
                  CONTENTS, READONLY, DEBUGGING
  6 .debug_pubnames 00000061  00000000  00000000  0000ca97  2**0
                  CONTENTS, READONLY, DEBUGGING
  7 .debug_info   0000027d  00000000  00000000  0000caf8  2**0
                  CONTENTS, READONLY, DEBUGGING
  8 .debug_abbrev 00000173  00000000  00000000  0000cd75  2**0
                  CONTENTS, READONLY, DEBUGGING
  9 .debug_line   00000609  00000000  00000000  0000cee8  2**0
                  CONTENTS, READONLY, DEBUGGING
 10 .debug_frame  00000060  00000000  00000000  0000d4f4  2**2
                  CONTENTS, READONLY, DEBUGGING
 11 .debug_str    000001a3  00000000  00000000  0000d554  2**0
                  CONTENTS, READONLY, DEBUGGING
 12 .debug_loc    0000063a  00000000  00000000  0000d6f7  2**0
                  CONTENTS, READONLY, DEBUGGING
 13 .debug_pubtypes 00000036  00000000  00000000  0000dd31  2**0
                  CONTENTS, READONLY, DEBUGGING
 14 .debug_ranges 00000030  00000000  00000000  0000dd67  2**0
                  CONTENTS, READONLY, DEBUGGING

Disassembly of section .text:

00000000 <__vectors>:
       0:	0c 94 71 0b 	jmp	0x16e2	; 0x16e2 <__ctors_end>
       4:	0c 94 72 0a 	jmp	0x14e4	; 0x14e4 <__vector_1>
       8:	0c 94 34 0a 	jmp	0x1468	; 0x1468 <__vector_2>
       c:	0c 94 e1 0a 	jmp	0x15c2	; 0x15c2 <__vector_3>
      10:	0c 94 8e 0b 	jmp	0x171c	; 0x171c <__bad_interrupt>
      14:	0c 94 35 0b 	jmp	0x166a	; 0x166a <__vector_5>
      18:	0c 94 9b 09 	jmp	0x1336	; 0x1336 <__vector_6>
      1c:	0c 94 b0 0a 	jmp	0x1560	; 0x1560 <__vector_7>
      20:	0c 94 8e 0b 	jmp	0x171c	; 0x171c <__bad_interrupt>
      24:	0c 94 8e 0b 	jmp	0x171c	; 0x171c <__bad_interrupt>
      28:	0c 94 8e 0b 	jmp	0x171c	; 0x171c <__bad_interrupt>
      2c:	0c 94 17 10 	jmp	0x202e	; 0x202e <__vector_11>
      30:	0c 94 8e 0b 	jmp	0x171c	; 0x171c <__bad_interrupt>
      34:	0c 94 8e 0b 	jmp	0x171c	; 0x171c <__bad_interrupt>
      38:	0c 94 8e 0b 	jmp	0x171c	; 0x171c <__bad_interrupt>
      3c:	0c 94 00 10 	jmp	0x2000	; 0x2000 <__vector_15>
      40:	0c 94 8e 0b 	jmp	0x171c	; 0x171c <__bad_interrupt>
      44:	0c 94 8e 0b 	jmp	0x171c	; 0x171c <__bad_interrupt>
      48:	0c 94 42 09 	jmp	0x1284	; 0x1284 <__vector_18>
      4c:	0c 94 8e 0b 	jmp	0x171c	; 0x171c <__bad_interrupt>
      50:	0c 94 8e 0b 	jmp	0x171c	; 0x171c <__bad_interrupt>
      54:	0c 94 8e 0b 	jmp	0x171c	; 0x171c <__bad_interrupt>
      58:	0c 94 8e 0b 	jmp	0x171c	; 0x171c <__bad_interrupt>
      5c:	0c 94 8e 0b 	jmp	0x171c	; 0x171c <__bad_interrupt>
      60:	0c 94 a6 2a 	jmp	0x554c	; 0x554c <__vector_24>
      64:	0c 94 8e 0b 	jmp	0x171c	; 0x171c <__bad_interrupt>
      68:	0c 94 8e 0b 	jmp	0x171c	; 0x171c <__bad_interrupt>
      6c:	0c 94 8e 0b 	jmp	0x171c	; 0x171c <__bad_interrupt>
      70:	0c 94 db 10 	jmp	0x21b6	; 0x21b6 <__vector_28>
      74:	0c 94 8e 0b 	jmp	0x171c	; 0x171c <__bad_interrupt>
      78:	0c 94 8e 0b 	jmp	0x171c	; 0x171c <__bad_interrupt>

0000007c <_initSeq>:
      7c:	a2 a0 c8 40 a6 a4 2f 24 81 20 af 00                 ...@../$. ..

00000088 <masks.1990>:
      88:	01 02 04 08 10 20 40 80                             ..... @.

00000090 <defaultConfig>:
      90:	fe 00 ff 00 00 03 00 01 00 00 00 96 04 00 19 00     ................
      a0:	64 00 00 00 00 00 fd ff 14 00 00 00 19 00 64 00     d.............d.
      b0:	00 00 00 00 fd ff 14 00 00 00 32 00 5a 00 32 00     ..........2.Z.2.
      c0:	5a 00 00 00 14 00 c8 00 0a 00 5a 00 14 00 0f 00     Z.........Z.....
      d0:	fe ff 32 00 de 03 0a 00 5a 00 14 00 0f 00 fe ff     ..2.....Z.......
      e0:	32 00 de 03 0f 00 1e 00 00 00 00 00 00 00 00 00     2...............
      f0:	58 02 0f 00 19 00 00 00 00 00 00 00 00 00 00 00     X...............
	...
     144:	00 00 00 01 00                                      .....

00000149 <font12x16>:
     149:	0c 10 6c 11                                         ..l.

0000014d <_font12x16map>:
	...
     16d:	7c 00 ff 33 ff 33 7c 00 00 00 00 00 00 00 00 00     |..3.3|.........
     17d:	00 00 00 00 00 00 3c 00 3c 00 00 00 00 00 3c 00     ......<.<.....<.
     18d:	3c 00 00 00 00 00 00 00 00 00 00 02 10 1e 90 1f     <...............
     19d:	f0 03 7e 02 1e 1e 90 1f f0 03 7e 02 1e 00 10 00     ..~.......~.....
     1ad:	00 00 00 00 78 04 fc 0c cc 0c ff 3f ff 3f cc 0c     ....x......?.?..
     1bd:	cc 0f 88 07 00 00 00 00 00 00 00 30 38 38 38 1c     ...........0888.
     1cd:	38 0e 00 07 80 03 c0 01 e0 38 70 38 38 38 1c 00     8........8p888..
     1dd:	00 00 00 00 00 1f b8 3f fc 31 c6 21 e2 37 3e 1e     .......?.1.!.7>.
     1ed:	1c 1c 00 36 00 22 00 00 00 00 00 00 00 00 00 00     ...6."..........
     1fd:	27 00 3f 00 1f 00 00 00 00 00 00 00 00 00 00 00     '.?.............
     20d:	00 00 00 00 00 00 f0 03 fc 0f fe 1f 07 38 01 20     .............8. 
     21d:	01 20 00 00 00 00 00 00 00 00 00 00 00 00 01 20     . ............. 
     22d:	01 20 07 38 fe 1f fc 0f f0 03 00 00 00 00 00 00     . .8............
     23d:	00 00 00 00 98 0c b8 0e e0 03 f8 0f f8 0f e0 03     ................
     24d:	b8 0e 98 0c 00 00 00 00 00 00 00 00 80 01 80 01     ................
     25d:	80 01 f0 0f f0 0f 80 01 80 01 80 01 00 00 00 00     ................
	...
     275:	00 b8 00 f8 00 78 00 00 00 00 00 00 00 00 00 00     .....x..........
     285:	00 00 00 00 80 01 80 01 80 01 80 01 80 01 80 01     ................
     295:	80 01 80 01 00 00 00 00 00 00 00 00 00 00 00 00     ................
     2a5:	00 38 00 38 00 38 00 00 00 00 00 00 00 00 00 00     .8.8.8..........
     2b5:	00 00 00 18 00 1c 00 0e 00 07 80 03 c0 01 e0 00     ................
     2c5:	70 00 38 00 1c 00 0e 00 00 00 f8 07 fe 1f 06 1e     p.8.............
     2d5:	03 33 83 31 c3 30 63 30 33 30 1e 18 fe 1f f8 07     .3.1.0c030......
     2e5:	00 00 00 00 00 00 0c 30 0c 30 0e 30 ff 3f ff 3f     .......0.0.0.?.?
     2f5:	00 30 00 30 00 30 00 00 00 00 1c 30 1e 38 07 3c     .0.0.0.....0.8.<
     305:	03 3e 03 37 83 33 c3 31 e3 30 77 30 3e 30 1c 30     .>.7.3.1.0w0>0.0
     315:	00 00 0c 0c 0e 1c 07 38 c3 30 c3 30 c3 30 c3 30     .......8.0.0.0.0
     325:	c3 30 e7 39 7e 1f 3c 0e 00 00 c0 03 e0 03 70 03     .0.9~.<.......p.
     335:	38 03 1c 03 0e 03 07 03 ff 3f ff 3f 00 03 00 03     8........?.?....
     345:	00 00 3f 0c 7f 1c 63 38 63 30 63 30 63 30 63 30     ..?...c8c0c0c0c0
     355:	63 30 e3 38 c3 1f 83 0f 00 00 c0 0f f0 1f f8 39     c0.8...........9
     365:	dc 30 ce 30 c7 30 c3 30 c3 30 c3 39 80 1f 00 0f     .0.0.0.0.0.9....
     375:	00 00 03 00 03 00 03 00 03 30 03 3c 03 0f c3 03     .........0.<....
     385:	f3 00 3f 00 0f 00 03 00 00 00 00 0f bc 1f fe 39     ..?............9
     395:	e7 30 c3 30 c3 30 c3 30 e7 30 fe 39 bc 1f 00 0f     .0.0.0.0.0.9....
     3a5:	00 00 3c 00 7e 00 e7 30 c3 30 c3 30 c3 38 c3 1c     ..<.~..0.0.0.8..
     3b5:	c3 0e e7 07 fe 03 fc 00 00 00 00 00 00 00 00 00     ................
     3c5:	70 1c 70 1c 70 1c 00 00 00 00 00 00 00 00 00 00     p.p.p...........
	...
     3dd:	70 9c 70 fc 70 7c 00 00 00 00 00 00 00 00 00 00     p.p.p|..........
     3ed:	00 00 00 00 c0 00 e0 01 f0 03 38 07 1c 0e 0e 1c     ..........8.....
     3fd:	07 38 03 30 00 00 00 00 00 00 00 00 60 06 60 06     .8.0........`.`.
     40d:	60 06 60 06 60 06 60 06 60 06 60 06 60 06 00 00     `.`.`.`.`.`.`...
     41d:	00 00 00 00 03 30 07 38 0e 1c 1c 0e 38 07 f0 03     .....0.8....8...
     42d:	e0 01 c0 00 00 00 00 00 00 00 1c 00 1e 00 07 00     ................
     43d:	03 00 83 37 c3 37 e3 00 77 00 3e 00 1c 00 00 00     ...7.7..w.>.....
     44d:	00 00 f8 0f fe 1f 07 18 f3 33 fb 37 1b 36 fb 37     .........3.7.6.7
     45d:	fb 37 07 36 fe 03 f8 01 00 00 00 38 00 3f e0 07     .7.6.......8.?..
     46d:	fc 06 1f 06 1f 06 fc 06 e0 07 00 3f 00 38 00 00     ...........?.8..
     47d:	00 00 ff 3f ff 3f c3 30 c3 30 c3 30 c3 30 e7 30     ...?.?.0.0.0.0.0
     48d:	fe 39 bc 1f 00 0f 00 00 00 00 f0 03 fc 0f 0e 1c     .9..............
     49d:	07 38 03 30 03 30 03 30 07 38 0e 1c 0c 0c 00 00     .8.0.0.0.8......
     4ad:	00 00 ff 3f ff 3f 03 30 03 30 03 30 03 30 07 38     ...?.?.0.0.0.0.8
     4bd:	0e 1c fc 0f f0 03 00 00 00 00 ff 3f ff 3f c3 30     ...........?.?.0
     4cd:	c3 30 c3 30 c3 30 c3 30 c3 30 03 30 03 30 00 00     .0.0.0.0.0.0.0..
     4dd:	00 00 ff 3f ff 3f c3 00 c3 00 c3 00 c3 00 c3 00     ...?.?..........
     4ed:	c3 00 03 00 03 00 00 00 00 00 f0 03 fc 0f 0e 1c     ................
     4fd:	07 38 03 30 c3 30 c3 30 c3 30 c7 3f c6 3f 00 00     .8.0.0.0.0.?.?..
     50d:	00 00 ff 3f ff 3f c0 00 c0 00 c0 00 c0 00 c0 00     ...?.?..........
     51d:	c0 00 ff 3f ff 3f 00 00 00 00 00 00 00 00 03 30     ...?.?.........0
     52d:	03 30 ff 3f ff 3f 03 30 03 30 00 00 00 00 00 00     .0.?.?.0.0......
     53d:	00 00 00 0e 00 1e 00 38 00 30 00 30 00 30 00 30     .......8.0.0.0.0
     54d:	00 38 ff 1f ff 07 00 00 00 00 ff 3f ff 3f c0 00     .8.........?.?..
     55d:	e0 01 f0 03 38 07 1c 0e 0e 1c 07 38 03 30 00 00     ....8......8.0..
     56d:	00 00 ff 3f ff 3f 00 30 00 30 00 30 00 30 00 30     ...?.?.0.0.0.0.0
     57d:	00 30 00 30 00 30 00 00 00 00 ff 3f ff 3f 1e 00     .0.0.0.....?.?..
     58d:	78 00 e0 01 e0 01 78 00 1e 00 ff 3f ff 3f 00 00     x.....x....?.?..
     59d:	00 00 ff 3f ff 3f 0e 00 38 00 f0 00 c0 03 00 07     ...?.?..8.......
     5ad:	00 1c ff 3f ff 3f 00 00 00 00 f0 03 fc 0f 0e 1c     ...?.?..........
     5bd:	07 38 03 30 03 30 07 38 0e 1c fc 0f f0 03 00 00     .8.0.0.8........
     5cd:	00 00 ff 3f ff 3f 83 01 83 01 83 01 83 01 83 01     ...?.?..........
     5dd:	c7 01 fe 00 7c 00 00 00 00 00 f0 03 fc 0f 0e 1c     ....|...........
     5ed:	07 38 03 30 03 36 07 3e 0e 1c fc 3f f0 33 00 00     .8.0.6.>...?.3..
     5fd:	00 00 ff 3f ff 3f 83 01 83 01 83 03 83 07 83 0f     ...?.?..........
     60d:	c7 1d fe 38 7c 30 00 00 00 00 3c 0c 7e 1c e7 38     ...8|0....<.~..8
     61d:	c3 30 c3 30 c3 30 c3 30 c7 39 8e 1f 0c 0f 00 00     .0.0.0.0.9......
     62d:	00 00 00 00 03 00 03 00 03 00 ff 3f ff 3f 03 00     ...........?.?..
     63d:	03 00 03 00 00 00 00 00 00 00 ff 07 ff 1f 00 38     ...............8
     64d:	00 30 00 30 00 30 00 30 00 38 ff 1f ff 07 00 00     .0.0.0.0.8......
     65d:	00 00 07 00 3f 00 f8 01 c0 0f 00 3e 00 3e c0 0f     ....?......>.>..
     66d:	f8 01 3f 00 07 00 00 00 00 00 ff 3f ff 3f 00 1c     ..?........?.?..
     67d:	00 06 80 03 80 03 00 06 00 1c ff 3f ff 3f 00 00     ...........?.?..
     68d:	00 00 03 30 0f 3c 1c 0e 30 03 e0 01 e0 01 30 03     ...0.<..0.....0.
     69d:	1c 0e 0f 3c 03 30 00 00 00 00 03 00 0f 00 3c 00     ...<.0........<.
     6ad:	f0 00 c0 3f c0 3f f0 00 3c 00 0f 00 03 00 00 00     ...?.?..<.......
     6bd:	00 00 03 30 03 3c 03 3e 03 33 c3 31 e3 30 33 30     ...0.<.>.3.1.030
     6cd:	1f 30 0f 30 03 30 00 00 00 00 00 00 00 00 ff 3f     .0.0.0.........?
     6dd:	ff 3f 03 30 03 30 03 30 03 30 00 00 00 00 00 00     .?.0.0.0.0......
     6ed:	00 00 0e 00 1c 00 38 00 70 00 e0 00 c0 01 80 03     ......8.p.......
     6fd:	00 07 00 0e 00 1c 00 18 00 00 00 00 00 00 03 30     ...............0
     70d:	03 30 03 30 03 30 ff 3f ff 3f 00 00 00 00 00 00     .0.0.0.?.?......
     71d:	00 00 60 00 70 00 38 00 1c 00 0e 00 07 00 0e 00     ..`.p.8.........
     72d:	1c 00 38 00 70 00 60 00 00 00 00 c0 00 c0 00 c0     ..8.p.`.........
     73d:	00 c0 00 c0 00 c0 00 c0 00 c0 00 c0 00 c0 00 c0     ................

0000074d <font6x8>:
     74d:	06 08 7c 11                                         ..|.

00000751 <_font6x8map>:
	...
     759:	06 5f 06 00 00 07 03 00 07 03 00 24 7e 24 7e 24     ._.........$~$~$
     769:	00 24 2b 6a 12 00 00 63 13 08 64 63 00 36 49 56     .$+j...c..dc.6IV
     779:	20 50 00 00 07 03 00 00 00 00 3e 41 00 00 00 00      P........>A....
     789:	41 3e 00 00 00 08 3e 1c 3e 08 00 08 08 3e 08 08     A>....>.>....>..
     799:	00 00 e0 60 00 00 00 08 08 08 08 08 00 00 60 60     ...`..........``
     7a9:	00 00 00 20 10 08 04 02 00 3e 51 49 45 3e 00 00     ... .....>QIE>..
     7b9:	42 7f 40 00 00 62 51 49 49 46 00 22 49 49 49 36     B.@..bQIIF."III6
     7c9:	00 18 14 12 7f 10 00 2f 49 49 49 31 00 3c 4a 49     ......./III1.<JI
     7d9:	49 30 00 01 71 09 05 03 00 36 49 49 49 36 00 06     I0..q....6III6..
     7e9:	49 49 29 1e 00 00 6c 6c 00 00 00 00 ec 6c 00 00     II)...ll.....l..
     7f9:	00 08 14 22 41 00 00 24 24 24 24 24 00 00 41 22     ..."A..$$$$$..A"
     809:	14 08 00 02 01 59 09 06 00 3e 41 5d 55 1e 00 7e     .....Y...>A]U..~
     819:	11 11 11 7e 00 7f 49 49 49 36 00 3e 41 41 41 22     ...~..III6.>AAA"
     829:	00 7f 41 41 41 3e 00 7f 49 49 49 41 00 7f 09 09     ..AAA>..IIIA....
     839:	09 01 00 3e 41 49 49 7a 00 7f 08 08 08 7f 00 00     ...>AIIz........
     849:	41 7f 41 00 00 30 40 40 40 3f 00 7f 08 14 22 41     A.A..0@@@?...."A
     859:	00 7f 40 40 40 40 00 7f 02 04 02 7f 00 7f 02 04     ..@@@@..........
     869:	08 7f 00 3e 41 41 41 3e 00 7f 09 09 09 06 00 3e     ...>AAA>.......>
     879:	41 51 21 5e 00 7f 09 09 19 66 00 26 49 49 49 32     AQ!^.....f.&III2
     889:	00 01 01 7f 01 01 00 3f 40 40 40 3f 00 1f 20 40     .......?@@@?.. @
     899:	20 1f 00 3f 40 3c 40 3f 00 63 14 08 14 63 00 07      ..?@<@?.c...c..
     8a9:	08 70 08 07 00 71 49 45 43 00 00 00 7f 41 41 00     .p...qIEC....AA.
     8b9:	00 02 04 08 10 20 00 00 41 41 7f 00 00 04 02 01     ..... ..AA......
     8c9:	02 04 80 80 80 80 80 80 00 00 03 07 00 00 00 20     ............... 
     8d9:	54 54 54 78 00 7f 44 44 44 38 00 38 44 44 44 28     TTTx..DDD8.8DDD(
     8e9:	00 38 44 44 44 7f 00 38 54 54 54 08 00 08 7e 09     .8DDD..8TTT...~.
     8f9:	09 00 00 18 a4 a4 a4 7c 00 7f 04 04 78 00 00 00     .......|....x...
     909:	00 7d 40 00 00 40 80 84 7d 00 00 7f 10 28 44 00     .}@..@..}....(D.
     919:	00 00 00 7f 40 00 00 7c 04 18 04 78 00 7c 04 04     ....@..|...x.|..
     929:	78 00 00 38 44 44 44 38 00 fc 44 44 44 38 00 38     x..8DDD8..DDD8.8
     939:	44 44 44 fc 00 44 78 44 04 08 00 08 54 54 54 20     DDD..DxD....TTT 
     949:	00 04 3e 44 24 00 00 3c 40 20 7c 00 00 1c 20 40     ..>D$..<@ |... @
     959:	20 1c 00 3c 60 30 60 3c 00 6c 10 10 6c 00 00 9c      ..<`0`<.l..l...
     969:	a0 60 3c 00 00 64 54 54 4c 00 00 08 3e 41 41 00     .`<..dTTL...>AA.
     979:	00 00 00 77 00 00 00 00 41 41 3e 08 00 02 01 02     ...w....AA>.....
     989:	01 00 00 3c 26 23 26 3c                             ...<&#&<

00000991 <fonts>:
     991:	4d 07 49 01                                         M.I.

00000995 <glyArrowUp>:
     995:	08 08 30 38 3c 3e 3e 3c 38 30                       ..08<>><80

0000099f <glyArrowDown>:
     99f:	08 08 06 0e 1e 3e 3e 1e 0e 06                       .....>>...

000009a9 <glyBall>:
     9a9:	09 09 38 00 fe 00 fe 00 ff 01 ff 01 ff 01 fe 00     ..8.............
     9b9:	fe 00 38 00                                         ..8.

000009bd <glyDirCW>:
     9bd:	09 03 00 00 00 00 02 02 02 07 02                    ...........

000009c8 <glyDirCCW>:
     9c8:	05 03 02 07 02 02 02                                .......

000009cf <glyLogo>:
     9cf:	40 40 00 00 00 00 01 03 03 03 03 03 03 03 03 03     @@..............
     9df:	03 03 03 03 03 03 07 0f 1f 1f 3f 3f 7f 7f 7f 7f     ..........??....
     9ef:	7f 3f 1f 0f 00 03 03 03 03 03 03 03 03 03 03 03     .?..............
     9ff:	03 03 03 03 03 07 07 07 07 07 07 07 03 03 01 00     ................
     a0f:	00 00 00 00 00 00 ff ff 00 00 00 00 00 00 00 00     ................
     a1f:	00 01 1f 7f ff ff ff ff ff e7 c3 e7 ff ff ff ff     ................
     a2f:	ff ff fe f0 00 00 00 00 00 00 00 00 00 07 0f 3f     ...............?
     a3f:	7f ff ff ff fc fc ff ff ff ff ff ff ff ff 7c c3     ..............|.
     a4f:	00 00 00 00 00 00 ff ff 00 00 00 00 00 00 00 00     ................
     a5f:	00 00 f0 f8 fc fe fe fe fe fc fc fd fb f7 f7 ef     ................
     a6f:	df 0b 00 00 00 00 00 00 00 01 03 03 ff ff ff ff     ................
     a7f:	ff ff ff ff 7f 7f ff ff ff fe fc f8 e0 80 7f ff     ................
     a8f:	00 00 00 00 00 00 ff ff 00 00 00 00 00 00 00 00     ................
	...
     aa7:	00 00 00 80 fd ff ff ff ff ff 7f 1f 3f 7f 7f fe     ............?...
     ab7:	fe fc f8 f8 f0 f0 e0 c0 c0 e0 c0 c0 c0 c0 80 80     ................
     ac7:	00 00 00 00 00 00 ff ff 00 00 00 00 00 00 ff ff     ................
     ad7:	00 00 01 01 03 03 07 07 07 0f 07 07 07 03 03 07     ................
     ae7:	0f 0f 3f 7f ff ff fe fe ff ff ff ff ff af 03 00     ..?.............
	...
     b0b:	00 00 ff ff 00 00 00 00 00 00 ff ff 3f 7f ff ff     ............?...
     b1b:	fc f8 fc ff ff ff ff ff ff ff ff e8 c0 c0 80 80     ................
     b2b:	00 00 00 00 80 f9 ff ff ff ff ff 7f 7f 7f 7f ff     ................
     b3b:	7f 7f 7f 3f 1f 01 00 00 00 00 00 00 00 00 00 00     ...?............
     b4b:	00 00 ff ff 00 00 00 00 00 fe ff ff ff ff ff ff     ................
     b5b:	ff 7f ff ff ff ff fe fc f0 e0 00 00 00 00 00 00     ................
     b6b:	00 00 01 1f 7f ff ff ff ff ff c7 c7 cf ff ff ff     ................
     b7b:	ff ff ff fe f0 00 00 00 00 00 00 00 00 00 00 00     ................
     b8b:	00 00 ff ff 00 00 00 00 00 00 f0 f8 d8 d8 f8 d8     ................
     b9b:	d8 d8 d8 98 18 18 18 18 18 18 18 18 18 18 18 18     ................
     bab:	18 18 18 f8 f8 fc fc fc fe fc fc fc fc f8 f0 f0     ................
     bbb:	d8 d8 18 18 18 18 18 18 18 18 18 18 18 18 18 18     ................
     bcb:	18 18 f8 f0 00 00                                   ......

00000bd1 <scrESCCal>:
     bd1:	f8 0d 62 0e                                         ..b.

00000bd5 <lstMenu>:
     bd5:	96 0e a6 0e b4 0e c2 0e d0 0e df 0e eb 0e f9 0e     ................
     be5:	0c 0f 1c 0f 2c 0f 32 0f                             ....,.2.

00000bed <strAreYouSure>:
     bed:	41 72 65 20 79 6f 75 20 73 75 72 65 3f 00           Are you sure?.

00000bfb <_skMENUSAVE>:
     bfb:	53 41 56 45 20 55 50 20 20 20 44 4f 57 4e 20 20     SAVE UP   DOWN  
     c0b:	45 4e 54 45 52 00                                   ENTER.

00000c11 <__c.2261>:
     c11:	20 20 20 20 20 20 20 20 20 20 20 20 20 20 20 20                     
	...

00000c22 <_skEDIT>:
     c22:	43 41 4e 43 45 4c 20 20 44 4f 57 4e 20 20 20 55     CANCEL  DOWN   U
     c32:	50 20 20 4f 4b 00                                   P  OK.

00000c38 <__c.2251>:
     c38:	41 43 43 2d 5a 20 64 61 6d 70 69 6e 67 00           ACC-Z damping.

00000c46 <__c.2249>:
     c46:	41 43 43 20 58 20 26 20 59 20 20 20 20 00           ACC X & Y    .

00000c54 <__c.2237>:
     c54:	54 72 69 6d 20 50 3a 20 20 20 20 52 3a 00           Trim P:    R:.

00000c62 <__c.2235>:
     c62:	20 20 20 20 20 20 20 20 20 20 20 20 20 20 20 20                     
	...

00000c73 <__c.2230>:
     c73:	52 00                                               R.

00000c75 <__c.2228>:
     c75:	4e 00                                               N.

00000c77 <__c.2226>:
     c77:	52 65 76 65 72 73 65 20 47 59 52 4f 00              Reverse GYRO.

00000c84 <__c.2224>:
     c84:	20 20 20 20 20 20 20 20 20 20 20 20 20 20 20 20                     
	...

00000c95 <__c.2208>:
     c95:	6e 6f 20 00                                         no .

00000c99 <__c.2206>:
     c99:	79 65 73 00                                         yes.

00000c9d <strYes>:
     c9d:	59 65 73 00                                         Yes.

00000ca1 <strNo>:
     ca1:	4e 6f 20 00                                         No .

00000ca5 <__c.2196>:
     ca5:	41 20 54 72 69 20 00                                A Tri .

00000cac <__c.2194>:
     cac:	59 20 54 72 69 20 00                                Y Tri .

00000cb3 <__c.2192>:
     cb3:	58 20 51 75 61 64 00                                X Quad.

00000cba <__c.2190>:
     cba:	2b 20 51 75 61 64 00                                + Quad.

00000cc1 <__c.2188>:
     cc1:	58 20 51 75 61 64 00                                X Quad.

00000cc8 <__c.2186>:
     cc8:	2b 20 51 75 61 64 00                                + Quad.

00000ccf <__c.2184>:
     ccf:	55 41 52 54 20 00                                   UART .

00000cd5 <__c.2182>:
     cd5:	42 75 64 64 79 00                                   Buddy.

00000cdb <__c.2180>:
     cdb:	54 52 49 20 00                                      TRI .

00000ce0 <__c.2178>:
     ce0:	51 75 61 64 00                                      Quad.

00000ce5 <_skBACK>:
     ce5:	42 41 43 4b 20 20 20 20 20 20 20 20 20 20 20 20     BACK            
     cf5:	20 20 20 20 20 00                                        .

00000cfb <strSPC1>:
     cfb:	20 00                                                .

00000cfd <strErr>:
     cfd:	45 72 72 00                                         Err.

00000d01 <strSPC4>:
     d01:	20 20 20 20 00                                          .

00000d06 <__c.2151>:
     d06:	4e 41 00                                            NA.

00000d09 <strARMED>:
     d09:	41 52 4d 45 44 00                                   ARMED.

00000d0f <strVersionInfo>:
     d0f:	48 65 66 6e 79 43 6f 70 74 65 72 32 20 76 30 2e     HefnyCopter2 v0.
     d1f:	39 2e 39 00                                         9.9.

00000d23 <strOK>:
     d23:	4f 4b 20 00                                         OK .

00000d27 <str1>:
     d27:	31 00                                               1.

00000d29 <strX>:
     d29:	58 00                                               X.

00000d2b <str2>:
     d2b:	32 00                                               2.

00000d2d <__c.2122>:
     d2d:	2b 00                                               +.

00000d2f <__c.2120>:
     d2f:	58 00                                               X.

00000d31 <__c.2118>:
     d31:	59 00                                               Y.

00000d33 <__c.2116>:
     d33:	2b 00                                               +.

00000d35 <__c.2114>:
     d35:	41 00                                               A.

00000d37 <__c.2112>:
     d37:	58 00                                               X.

00000d39 <__c.2110>:
     d39:	55 41 52 54 20 00                                   UART .

00000d3f <__c.2108>:
     d3f:	42 75 64 64 79 00                                   Buddy.

00000d45 <__c.2106>:
     d45:	54 52 49 20 00                                      TRI .

00000d4a <__c.2104>:
     d4a:	51 75 61 64 00                                      Quad.

00000d4f <__c.2102>:
     d4f:	41 4c 54 48 4c 44 00                                ALTHLD.

00000d56 <__c.2100>:
     d56:	53 54 41 42 4c 45 00                                STABLE.

00000d5d <__c.2098>:
     d5d:	41 43 52 4f 20 20 00                                ACRO  .

00000d64 <pages>:
     d64:	40 0f ad 2f 56 0f 8a 0f 4f 38 00 00 40 0f 91 2f     @../V...O8..@../
     d74:	a0 0f a4 0f 60 2c ba 0f a4 0f ea 2a ef 0f 8a 0f     ....`,.....*....
     d84:	42 34 04 10 8a 0f 45 32 04 10 8a 0f 9b 31 04 10     B4....E2.....1..
     d94:	8a 0f dd 36 4b 10 82 10 34 36 98 10 e5 0c fa 2b     ...6K...46.....+
     da4:	e2 10 e5 0c f4 2e 18 11 48 11 c0 2b e2 10 5e 11     ........H..+..^.
     db4:	6c 2d 18 11 48 11 74 2f f8 0d e5 0c 10 2b 00 00     l-..H.t/.....+..
     dc4:	74 11 5f 2f 00 00                                   t._/..

00000dca <__c.2031>:
     dca:	59 41 57 09 09 20 00                                YAW.. .

00000dd1 <__c.2028>:
     dd1:	52 6f 6c 6c 20 20 20 20 20 20 20 20 00              Roll        .

00000dde <__c.2024>:
     dde:	50 69 74 63 68 20 26 20 52 6f 6c 6c 00              Pitch & Roll.

00000deb <__c.2022>:
     deb:	50 69 74 63 68 20 20 20 20 20 20 20 00              Pitch       .

00000df8 <scrESCCal0>:
     df8:	2d 54 41 4b 45 20 4f 46 46 20 50 52 4f 50 45 4c     -TAKE OFF PROPEL
     e08:	4c 45 52 53 21 21 0a 2d 50 72 65 73 73 20 63 6f     LERS!!.-Press co
     e18:	6e 74 69 6e 75 65 0a 2d 54 75 72 6e 20 4f 66 66     ntinue.-Turn Off
     e28:	20 51 75 61 64 63 6f 70 74 65 72 2e 0a 0a 2d 51      Quadcopter...-Q
     e38:	75 61 64 20 77 69 6c 6c 20 73 74 61 72 74 65 64     uad will started
     e48:	0a 69 6e 20 41 52 4d 45 44 20 54 41 4b 45 43 41     .in ARMED TAKECA
     e58:	52 45 20 73 74 61 74 65 0a 00                       RE state..

00000e62 <scrESCCal1>:
     e62:	50 72 65 73 73 20 43 6f 6e 74 69 6e 75 65 20 61     Press Continue a
     e72:	66 74 65 72 20 63 61 6c 69 62 72 61 74 69 6f 6e     fter calibration
     e82:	2e 0a 0a 75 6e 70 6c 75 67 20 62 61 74 74 65 72     ...unplug batter
     e92:	79 2e 0a 00                                         y...

00000e96 <strStabilization>:
     e96:	47 79 72 6f 20 50 49 44 20 45 64 69 74 6f 72 00     Gyro PID Editor.

00000ea6 <strSelflevel>:
     ea6:	53 65 6c 66 20 4c 65 76 65 6c 69 6e 67 00           Self Leveling.

00000eb4 <strAltitudeHold>:
     eb4:	41 6c 74 69 74 75 64 65 20 48 6f 6c 64 00           Altitude Hold.

00000ec2 <strModeSettings>:
     ec2:	4d 6f 64 65 20 53 65 74 74 69 6e 67 73 00           Mode Settings.

00000ed0 <strMiscSettings>:
     ed0:	4d 69 73 63 2e 20 53 65 74 74 69 6e 67 73 00        Misc. Settings.

00000edf <strSensorTest>:
     edf:	53 65 6e 73 6f 72 20 54 65 73 74 00                 Sensor Test.

00000eeb <strReceiverTest>:
     eeb:	52 65 63 65 69 76 65 72 20 54 65 73 74 00           Receiver Test.

00000ef9 <strSensorCalibration>:
     ef9:	53 65 6e 73 6f 72 20 43 61 6c 69 62 72 61 74 69     Sensor Calibrati
     f09:	6f 6e 00                                            on.

00000f0c <strRadioCalibration>:
     f0c:	53 74 69 63 6b 20 43 65 6e 74 65 72 69 6e 67 00     Stick Centering.

00000f1c <strESCCalibration>:
     f1c:	45 53 43 20 43 61 6c 69 62 72 61 74 69 6f 6e 00     ESC Calibration.

00000f2c <strDebug>:
     f2c:	44 65 62 75 67 00                                   Debug.

00000f32 <strFactoryReset>:
     f32:	46 61 63 74 6f 72 79 20 52 65 73 65 74 00           Factory Reset.

00000f40 <_skHOME>:
     f40:	20 20 20 20 20 20 20 20 20 20 20 20 20 20 20 20                     
     f50:	20 4d 45 4e 55 00                                    MENU.

00000f56 <scrHomePage>:
     f56:	0a 0a 42 61 74 74 3a 20 20 20 20 20 20 20 76 0a     ..Batt:       v.
     f66:	0a 0a 52 58 3a 20 2d 20 20 53 4e 3a 20 20 20 20     ..RX: -  SN:    
     f76:	53 54 3a 20 2d 0a 46 6c 79 3a 20 20 20 42 6f 61     ST: -.Fly:   Boa
     f86:	72 64 3a 00                                         rd:.

00000f8a <_skMENU>:
     f8a:	42 41 43 4b 20 55 50 20 20 20 44 4f 57 4e 20 20     BACK UP   DOWN  
     f9a:	45 4e 54 45 52 00                                   ENTER.

00000fa0 <scrHomePageArmed>:
     fa0:	0a 0a 0a 00                                         ....

00000fa4 <_skSAVE>:
     fa4:	20 20 20 20 20 20 20 20 20 20 20 20 20 20 20 20                     
     fb4:	20 44 4f 4e 45 00                                    DONE.

00000fba <scrHomePageArmedESCCalibration>:
     fba:	0a 0a 0a 4d 31 3a 20 20 20 20 20 20 20 4d 34 3a     ...M1:       M4:
     fca:	0a 4d 32 3a 20 20 20 20 20 20 20 4d 33 3a 0a 45     .M2:       M3:.E
     fda:	53 43 20 43 61 6c 69 62 72 61 74 69 6f 6e 20 6d     SC Calibration m
     fea:	6f 64 65 0a 00                                      ode..

00000fef <scrHomePageRestart>:
     fef:	0a 52 45 53 54 41 52 54 0a 20 20 20 20 20 20 42     .RESTART.      B
     fff:	4f 41 52 44 00                                      OARD.

00001004 <scrStabilization>:
    1004:	0a 50 3a 20 20 20 20 20 20 20 4c 69 6d 3a 0a 49     .P:       Lim:.I
    1014:	3a 20 20 20 20 20 20 20 4c 69 6d 3a 0a 44 3a 20     :       Lim:.D: 
    1024:	20 20 20 20 20 20 4c 69 6d 3a 0a 4e 6f 69 73 65           Lim:.Noise
    1034:	20 46 69 6c 74 65 72 3a 0a 54 72 69 6d 20 50 3a      Filter:.Trim P:
    1044:	20 20 20 20 52 3a 00                                    R:.

0000104b <scrModeSettings>:
    104b:	46 72 61 6d 65 20 54 79 70 65 3a 0a 42 75 64 64     Frame Type:.Budd
    105b:	79 20 53 79 73 74 65 6d 3a 0a 42 6f 61 72 64 20     y System:.Board 
    106b:	44 69 72 3a 0a 46 6c 79 20 20 20 44 69 72 3a 0a     Dir:.Fly   Dir:.
    107b:	53 6f 6e 61 72 3a 00                                Sonar:.

00001082 <_skPAGE>:
    1082:	42 41 43 4b 20 50 52 45 56 20 4e 45 58 54 20 43     BACK PREV NEXT C
    1092:	48 41 4e 47 45 00                                   HANGE.

00001098 <scrMiscSettings>:
    1098:	41 75 74 6f 20 44 69 73 61 72 6d 3a 0a 56 6f 6c     Auto Disarm:.Vol
    10a8:	74 20 41 6c 61 72 6d 3a 20 20 20 20 20 20 2f 31     t Alarm:      /1
    10b8:	30 76 0a 54 68 72 6f 74 74 6c 65 20 6d 69 6e 3a     0v.Throttle min:
    10c8:	0a 53 74 69 63 6b 20 53 63 61 6c 65 3a 0a 50 2d     .Stick Scale:.P-
    10d8:	52 20 4c 69 6e 6b 65 64 3a 00                       R Linked:.

000010e2 <scrSensorTest>:
    10e2:	47 79 72 6f 20 58 3a 0a 47 79 72 6f 20 59 3a 0a     Gyro X:.Gyro Y:.
    10f2:	47 79 72 6f 20 5a 3a 0a 41 63 63 20 20 58 3a 0a     Gyro Z:.Acc  X:.
    1102:	41 63 63 20 20 59 3a 0a 41 63 63 20 20 5a 3a 0a     Acc  Y:.Acc  Z:.
    1112:	42 61 74 74 3a 00                                   Batt:.

00001118 <scrReceiverTest>:
    1118:	20 43 48 20 20 20 52 58 2d 31 20 20 20 20 52 58      CH   RX-1    RX
    1128:	2d 32 0a 41 69 6c 3a 0a 45 6c 65 3a 0a 52 75 64     -2.Ail:.Ele:.Rud
    1138:	3a 0a 54 68 72 3a 0a 41 75 78 3a 0a 52 58 3a 00     :.Thr:.Aux:.RX:.

00001148 <_skCONTINUE>:
    1148:	42 41 43 4b 20 20 20 20 20 20 20 20 20 43 4f 4e     BACK         CON
    1158:	54 49 4e 55 45 00                                   TINUE.

0000115e <_skCLRDONE>:
    115e:	42 41 43 4b 20 43 4c 52 20 20 20 20 20 20 20 20     BACK CLR        
    116e:	20 44 4f 4e 45 00                                    DONE.

00001174 <_skCANCELYES>:
    1174:	4e 4f 20 20 20 20 20 20 20 20 20 20 20 20 20 20     NO              
    1184:	20 20 59 45 53 00 00 40 7a 10 f3 5a 00 a0 72 4e       YES..@z..Z..rN
    1194:	18 09 00 10 a5 d4 e8 00 00 e8 76 48 17 00 00 e4     ..........vH....
    11a4:	0b 54 02 00 00 ca 9a 3b 00 00 00 e1 f5 05 00 00     .T.....;........
    11b4:	80 96 98 00 00 00 40 42 0f 00 00 00 a0 86 01 00     ......@B........
    11c4:	00 00 10 27 00 00 00 00 e8 03 00 00 00 00 64 00     ...'..........d.
    11d4:	00 00 00 00 0a 00 00 00 00 00 01 00 00 00 00 00     ................
    11e4:	2c 76 d8 88 dc 67 4f 08 23 df c1 df ae 59 e1 b1     ,v...gO.#....Y..
    11f4:	b7 96 e5 e3 e4 53 c6 3a e6 51 99 76 96 e8 e6 c2     .....S.:.Q.v....
    1204:	84 26 eb 89 8c 9b 62 ed 40 7c 6f fc ef bc 9c 9f     .&....b.@|o.....
    1214:	40 f2 ba a5 6f a5 f4 90 05 5a 2a f7 5c 93 6b 6c     @...o....Z*.\.kl
    1224:	f9 67 6d c1 1b fc e0 e4 0d 47 fe f5 20 e6 b5 00     .gm......G.. ...
    1234:	d0 ed 90 2e 03 00 94 35 77 05 00 80 84 1e 08 00     .......5w.......
    1244:	00 20 4e 0a 00 00 00 c8 0c 33 33 33 33 0f 98 6e     . N......3333..n
    1254:	12 83 11 41 ef 8d 21 14 89 3b e6 55 16 cf fe e6     ...A..!..;.U....
    1264:	db 18 d1 84 4b 38 1b f7 7c 1d 90 1d a4 bb e4 24     ....K8..|......$
    1274:	20 32 84 72 5e 22 81 00 c9 f1 24 ec a1 e5 3d 27      2.r^"....$...='

00001284 <__vector_18>:
    1284:	78 94       	sei
    1286:	1f 92       	push	r1
    1288:	0f 92       	push	r0
    128a:	0f b6       	in	r0, 0x3f	; 63
    128c:	0f 92       	push	r0
    128e:	11 24       	eor	r1, r1
    1290:	2f 93       	push	r18
    1292:	3f 93       	push	r19
    1294:	4f 93       	push	r20
    1296:	5f 93       	push	r21
    1298:	6f 93       	push	r22
    129a:	7f 93       	push	r23
    129c:	8f 93       	push	r24
    129e:	9f 93       	push	r25
    12a0:	af 93       	push	r26
    12a2:	bf 93       	push	r27
    12a4:	cf 93       	push	r28
    12a6:	df 93       	push	r29
    12a8:	ef 93       	push	r30
    12aa:	ff 93       	push	r31
    12ac:	80 91 ba 05 	lds	r24, 0x05BA
    12b0:	90 91 bb 05 	lds	r25, 0x05BB
    12b4:	01 96       	adiw	r24, 0x01	; 1
    12b6:	90 93 bb 05 	sts	0x05BB, r25
    12ba:	80 93 ba 05 	sts	0x05BA, r24
    12be:	c0 91 1d 05 	lds	r28, 0x051D
    12c2:	d0 91 1e 05 	lds	r29, 0x051E
    12c6:	ce 01       	movw	r24, r28
    12c8:	8f 77       	andi	r24, 0x7F	; 127
    12ca:	90 70       	andi	r25, 0x00	; 0
    12cc:	00 97       	sbiw	r24, 0x00	; 0
    12ce:	99 f4       	brne	.+38     	; 0x12f6 <__vector_18+0x72>
    12d0:	ce 01       	movw	r24, r28
    12d2:	88 0f       	add	r24, r24
    12d4:	89 2f       	mov	r24, r25
    12d6:	88 1f       	adc	r24, r24
    12d8:	99 0b       	sbc	r25, r25
    12da:	91 95       	neg	r25
    12dc:	87 70       	andi	r24, 0x07	; 7
    12de:	80 6b       	ori	r24, 0xB0	; 176
    12e0:	60 e0       	ldi	r22, 0x00	; 0
    12e2:	0e 94 f1 0b 	call	0x17e2	; 0x17e2 <sendData>
    12e6:	80 e1       	ldi	r24, 0x10	; 16
    12e8:	60 e0       	ldi	r22, 0x00	; 0
    12ea:	0e 94 f1 0b 	call	0x17e2	; 0x17e2 <sendData>
    12ee:	80 e0       	ldi	r24, 0x00	; 0
    12f0:	60 e0       	ldi	r22, 0x00	; 0
    12f2:	0e 94 f1 0b 	call	0x17e2	; 0x17e2 <sendData>
    12f6:	fe 01       	movw	r30, r28
    12f8:	e3 5e       	subi	r30, 0xE3	; 227
    12fa:	fe 4f       	sbci	r31, 0xFE	; 254
    12fc:	80 81       	ld	r24, Z
    12fe:	61 e0       	ldi	r22, 0x01	; 1
    1300:	0e 94 f1 0b 	call	0x17e2	; 0x17e2 <sendData>
    1304:	21 96       	adiw	r28, 0x01	; 1
    1306:	d3 70       	andi	r29, 0x03	; 3
    1308:	d0 93 1e 05 	sts	0x051E, r29
    130c:	c0 93 1d 05 	sts	0x051D, r28
    1310:	ff 91       	pop	r31
    1312:	ef 91       	pop	r30
    1314:	df 91       	pop	r29
    1316:	cf 91       	pop	r28
    1318:	bf 91       	pop	r27
    131a:	af 91       	pop	r26
    131c:	9f 91       	pop	r25
    131e:	8f 91       	pop	r24
    1320:	7f 91       	pop	r23
    1322:	6f 91       	pop	r22
    1324:	5f 91       	pop	r21
    1326:	4f 91       	pop	r20
    1328:	3f 91       	pop	r19
    132a:	2f 91       	pop	r18
    132c:	0f 90       	pop	r0
    132e:	0f be       	out	0x3f, r0	; 63
    1330:	0f 90       	pop	r0
    1332:	1f 90       	pop	r1
    1334:	18 95       	reti

00001336 <__vector_6>:
    1336:	1f 92       	push	r1
    1338:	0f 92       	push	r0
    133a:	0f b6       	in	r0, 0x3f	; 63
    133c:	0f 92       	push	r0
    133e:	11 24       	eor	r1, r1
    1340:	0f 93       	push	r16
    1342:	1f 93       	push	r17
    1344:	2f 93       	push	r18
    1346:	3f 93       	push	r19
    1348:	4f 93       	push	r20
    134a:	5f 93       	push	r21
    134c:	6f 93       	push	r22
    134e:	7f 93       	push	r23
    1350:	8f 93       	push	r24
    1352:	9f 93       	push	r25
    1354:	af 93       	push	r26
    1356:	bf 93       	push	r27
    1358:	cf 93       	push	r28
    135a:	df 93       	push	r29
    135c:	ef 93       	push	r30
    135e:	ff 93       	push	r31
    1360:	16 b1       	in	r17, 0x06	; 6
    1362:	80 91 f9 07 	lds	r24, 0x07F9
    1366:	18 27       	eor	r17, r24
    1368:	86 b1       	in	r24, 0x06	; 6
    136a:	80 93 f9 07 	sts	0x07F9, r24
    136e:	c0 91 84 00 	lds	r28, 0x0084
    1372:	d0 91 85 00 	lds	r29, 0x0085
    1376:	01 2f       	mov	r16, r17
    1378:	15 ff       	sbrs	r17, 5
    137a:	18 c0       	rjmp	.+48     	; 0x13ac <__vector_6+0x76>
    137c:	86 b1       	in	r24, 0x06	; 6
    137e:	85 ff       	sbrs	r24, 5
    1380:	05 c0       	rjmp	.+10     	; 0x138c <__vector_6+0x56>
    1382:	d0 93 07 08 	sts	0x0807, r29
    1386:	c0 93 06 08 	sts	0x0806, r28
    138a:	10 c0       	rjmp	.+32     	; 0x13ac <__vector_6+0x76>
    138c:	80 e0       	ldi	r24, 0x00	; 0
    138e:	0e 94 55 26 	call	0x4caa	; 0x4caa <CalculateSignalLength2>
    1392:	80 91 5e 06 	lds	r24, 0x065E
    1396:	90 91 5f 06 	lds	r25, 0x065F
    139a:	90 93 ee 07 	sts	0x07EE, r25
    139e:	80 93 ed 07 	sts	0x07ED, r24
    13a2:	80 91 d5 07 	lds	r24, 0x07D5
    13a6:	8f 71       	andi	r24, 0x1F	; 31
    13a8:	80 93 d5 07 	sts	0x07D5, r24
    13ac:	00 ff       	sbrs	r16, 0
    13ae:	0b c0       	rjmp	.+22     	; 0x13c6 <__vector_6+0x90>
    13b0:	86 b1       	in	r24, 0x06	; 6
    13b2:	80 ff       	sbrs	r24, 0
    13b4:	05 c0       	rjmp	.+10     	; 0x13c0 <__vector_6+0x8a>
    13b6:	d0 93 09 08 	sts	0x0809, r29
    13ba:	c0 93 08 08 	sts	0x0808, r28
    13be:	03 c0       	rjmp	.+6      	; 0x13c6 <__vector_6+0x90>
    13c0:	81 e0       	ldi	r24, 0x01	; 1
    13c2:	0e 94 55 26 	call	0x4caa	; 0x4caa <CalculateSignalLength2>
    13c6:	17 ff       	sbrs	r17, 7
    13c8:	2d c0       	rjmp	.+90     	; 0x1424 <__vector_6+0xee>
    13ca:	80 91 d7 06 	lds	r24, 0x06D7
    13ce:	37 9b       	sbis	0x06, 7	; 6
    13d0:	0b c0       	rjmp	.+22     	; 0x13e8 <__vector_6+0xb2>
    13d2:	d0 93 0d 08 	sts	0x080D, r29
    13d6:	c0 93 0c 08 	sts	0x080C, r28
    13da:	81 30       	cpi	r24, 0x01	; 1
    13dc:	19 f5       	brne	.+70     	; 0x1424 <__vector_6+0xee>
    13de:	46 9a       	sbi	0x08, 6	; 8
    13e0:	44 9a       	sbi	0x08, 4	; 8
    13e2:	42 9a       	sbi	0x08, 2	; 8
    13e4:	43 9a       	sbi	0x08, 3	; 8
    13e6:	1e c0       	rjmp	.+60     	; 0x1424 <__vector_6+0xee>
    13e8:	81 30       	cpi	r24, 0x01	; 1
    13ea:	61 f4       	brne	.+24     	; 0x1404 <__vector_6+0xce>
    13ec:	80 91 d5 07 	lds	r24, 0x07D5
    13f0:	80 7f       	andi	r24, 0xF0	; 240
    13f2:	41 f4       	brne	.+16     	; 0x1404 <__vector_6+0xce>
    13f4:	80 91 4f 05 	lds	r24, 0x054F
    13f8:	81 fd       	sbrc	r24, 1
    13fa:	04 c0       	rjmp	.+8      	; 0x1404 <__vector_6+0xce>
    13fc:	46 98       	cbi	0x08, 6	; 8
    13fe:	44 98       	cbi	0x08, 4	; 8
    1400:	42 98       	cbi	0x08, 2	; 8
    1402:	43 98       	cbi	0x08, 3	; 8
    1404:	83 e0       	ldi	r24, 0x03	; 3
    1406:	0e 94 55 26 	call	0x4caa	; 0x4caa <CalculateSignalLength2>
    140a:	80 91 5e 06 	lds	r24, 0x065E
    140e:	90 91 5f 06 	lds	r25, 0x065F
    1412:	90 93 f2 07 	sts	0x07F2, r25
    1416:	80 93 f1 07 	sts	0x07F1, r24
    141a:	80 91 d5 07 	lds	r24, 0x07D5
    141e:	8f 72       	andi	r24, 0x2F	; 47
    1420:	80 93 d5 07 	sts	0x07D5, r24
    1424:	01 ff       	sbrs	r16, 1
    1426:	0b c0       	rjmp	.+22     	; 0x143e <__vector_6+0x108>
    1428:	86 b1       	in	r24, 0x06	; 6
    142a:	81 ff       	sbrs	r24, 1
    142c:	05 c0       	rjmp	.+10     	; 0x1438 <__vector_6+0x102>
    142e:	d0 93 0b 08 	sts	0x080B, r29
    1432:	c0 93 0a 08 	sts	0x080A, r28
    1436:	03 c0       	rjmp	.+6      	; 0x143e <__vector_6+0x108>
    1438:	82 e0       	ldi	r24, 0x02	; 2
    143a:	0e 94 55 26 	call	0x4caa	; 0x4caa <CalculateSignalLength2>
    143e:	ff 91       	pop	r31
    1440:	ef 91       	pop	r30
    1442:	df 91       	pop	r29
    1444:	cf 91       	pop	r28
    1446:	bf 91       	pop	r27
    1448:	af 91       	pop	r26
    144a:	9f 91       	pop	r25
    144c:	8f 91       	pop	r24
    144e:	7f 91       	pop	r23
    1450:	6f 91       	pop	r22
    1452:	5f 91       	pop	r21
    1454:	4f 91       	pop	r20
    1456:	3f 91       	pop	r19
    1458:	2f 91       	pop	r18
    145a:	1f 91       	pop	r17
    145c:	0f 91       	pop	r16
    145e:	0f 90       	pop	r0
    1460:	0f be       	out	0x3f, r0	; 63
    1462:	0f 90       	pop	r0
    1464:	1f 90       	pop	r1
    1466:	18 95       	reti

00001468 <__vector_2>:
    1468:	1f 92       	push	r1
    146a:	0f 92       	push	r0
    146c:	0f b6       	in	r0, 0x3f	; 63
    146e:	0f 92       	push	r0
    1470:	11 24       	eor	r1, r1
    1472:	2f 93       	push	r18
    1474:	3f 93       	push	r19
    1476:	4f 93       	push	r20
    1478:	5f 93       	push	r21
    147a:	6f 93       	push	r22
    147c:	7f 93       	push	r23
    147e:	8f 93       	push	r24
    1480:	9f 93       	push	r25
    1482:	af 93       	push	r26
    1484:	bf 93       	push	r27
    1486:	ef 93       	push	r30
    1488:	ff 93       	push	r31
    148a:	89 b1       	in	r24, 0x09	; 9
    148c:	83 ff       	sbrs	r24, 3
    148e:	09 c0       	rjmp	.+18     	; 0x14a2 <__vector_2+0x3a>
    1490:	80 91 84 00 	lds	r24, 0x0084
    1494:	90 91 85 00 	lds	r25, 0x0085
    1498:	90 93 03 08 	sts	0x0803, r25
    149c:	80 93 02 08 	sts	0x0802, r24
    14a0:	10 c0       	rjmp	.+32     	; 0x14c2 <__vector_2+0x5a>
    14a2:	83 e0       	ldi	r24, 0x03	; 3
    14a4:	0e 94 2c 26 	call	0x4c58	; 0x4c58 <CalculateSignalLength1>
    14a8:	80 91 5e 06 	lds	r24, 0x065E
    14ac:	90 91 5f 06 	lds	r25, 0x065F
    14b0:	90 93 f4 07 	sts	0x07F4, r25
    14b4:	80 93 f3 07 	sts	0x07F3, r24
    14b8:	80 91 d5 07 	lds	r24, 0x07D5
    14bc:	82 7f       	andi	r24, 0xF2	; 242
    14be:	80 93 d5 07 	sts	0x07D5, r24
    14c2:	ff 91       	pop	r31
    14c4:	ef 91       	pop	r30
    14c6:	bf 91       	pop	r27
    14c8:	af 91       	pop	r26
    14ca:	9f 91       	pop	r25
    14cc:	8f 91       	pop	r24
    14ce:	7f 91       	pop	r23
    14d0:	6f 91       	pop	r22
    14d2:	5f 91       	pop	r21
    14d4:	4f 91       	pop	r20
    14d6:	3f 91       	pop	r19
    14d8:	2f 91       	pop	r18
    14da:	0f 90       	pop	r0
    14dc:	0f be       	out	0x3f, r0	; 63
    14de:	0f 90       	pop	r0
    14e0:	1f 90       	pop	r1
    14e2:	18 95       	reti

000014e4 <__vector_1>:
    14e4:	1f 92       	push	r1
    14e6:	0f 92       	push	r0
    14e8:	0f b6       	in	r0, 0x3f	; 63
    14ea:	0f 92       	push	r0
    14ec:	11 24       	eor	r1, r1
    14ee:	2f 93       	push	r18
    14f0:	3f 93       	push	r19
    14f2:	4f 93       	push	r20
    14f4:	5f 93       	push	r21
    14f6:	6f 93       	push	r22
    14f8:	7f 93       	push	r23
    14fa:	8f 93       	push	r24
    14fc:	9f 93       	push	r25
    14fe:	af 93       	push	r26
    1500:	bf 93       	push	r27
    1502:	ef 93       	push	r30
    1504:	ff 93       	push	r31
    1506:	89 b1       	in	r24, 0x09	; 9
    1508:	82 ff       	sbrs	r24, 2
    150a:	09 c0       	rjmp	.+18     	; 0x151e <__vector_1+0x3a>
    150c:	80 91 84 00 	lds	r24, 0x0084
    1510:	90 91 85 00 	lds	r25, 0x0085
    1514:	90 93 fd 07 	sts	0x07FD, r25
    1518:	80 93 fc 07 	sts	0x07FC, r24
    151c:	10 c0       	rjmp	.+32     	; 0x153e <__vector_1+0x5a>
    151e:	80 e0       	ldi	r24, 0x00	; 0
    1520:	0e 94 2c 26 	call	0x4c58	; 0x4c58 <CalculateSignalLength1>
    1524:	80 91 5e 06 	lds	r24, 0x065E
    1528:	90 91 5f 06 	lds	r25, 0x065F
    152c:	90 93 f6 07 	sts	0x07F6, r25
    1530:	80 93 f5 07 	sts	0x07F5, r24
    1534:	80 91 d5 07 	lds	r24, 0x07D5
    1538:	81 7f       	andi	r24, 0xF1	; 241
    153a:	80 93 d5 07 	sts	0x07D5, r24
    153e:	ff 91       	pop	r31
    1540:	ef 91       	pop	r30
    1542:	bf 91       	pop	r27
    1544:	af 91       	pop	r26
    1546:	9f 91       	pop	r25
    1548:	8f 91       	pop	r24
    154a:	7f 91       	pop	r23
    154c:	6f 91       	pop	r22
    154e:	5f 91       	pop	r21
    1550:	4f 91       	pop	r20
    1552:	3f 91       	pop	r19
    1554:	2f 91       	pop	r18
    1556:	0f 90       	pop	r0
    1558:	0f be       	out	0x3f, r0	; 63
    155a:	0f 90       	pop	r0
    155c:	1f 90       	pop	r1
    155e:	18 95       	reti

00001560 <__vector_7>:
    1560:	1f 92       	push	r1
    1562:	0f 92       	push	r0
    1564:	0f b6       	in	r0, 0x3f	; 63
    1566:	0f 92       	push	r0
    1568:	11 24       	eor	r1, r1
    156a:	2f 93       	push	r18
    156c:	3f 93       	push	r19
    156e:	4f 93       	push	r20
    1570:	5f 93       	push	r21
    1572:	6f 93       	push	r22
    1574:	7f 93       	push	r23
    1576:	8f 93       	push	r24
    1578:	9f 93       	push	r25
    157a:	af 93       	push	r26
    157c:	bf 93       	push	r27
    157e:	ef 93       	push	r30
    1580:	ff 93       	push	r31
    1582:	89 b1       	in	r24, 0x09	; 9
    1584:	80 ff       	sbrs	r24, 0
    1586:	09 c0       	rjmp	.+18     	; 0x159a <__vector_7+0x3a>
    1588:	80 91 84 00 	lds	r24, 0x0084
    158c:	90 91 85 00 	lds	r25, 0x0085
    1590:	90 93 ff 07 	sts	0x07FF, r25
    1594:	80 93 fe 07 	sts	0x07FE, r24
    1598:	03 c0       	rjmp	.+6      	; 0x15a0 <__vector_7+0x40>
    159a:	81 e0       	ldi	r24, 0x01	; 1
    159c:	0e 94 2c 26 	call	0x4c58	; 0x4c58 <CalculateSignalLength1>
    15a0:	ff 91       	pop	r31
    15a2:	ef 91       	pop	r30
    15a4:	bf 91       	pop	r27
    15a6:	af 91       	pop	r26
    15a8:	9f 91       	pop	r25
    15aa:	8f 91       	pop	r24
    15ac:	7f 91       	pop	r23
    15ae:	6f 91       	pop	r22
    15b0:	5f 91       	pop	r21
    15b2:	4f 91       	pop	r20
    15b4:	3f 91       	pop	r19
    15b6:	2f 91       	pop	r18
    15b8:	0f 90       	pop	r0
    15ba:	0f be       	out	0x3f, r0	; 63
    15bc:	0f 90       	pop	r0
    15be:	1f 90       	pop	r1
    15c0:	18 95       	reti

000015c2 <__vector_3>:
    15c2:	1f 92       	push	r1
    15c4:	0f 92       	push	r0
    15c6:	0f b6       	in	r0, 0x3f	; 63
    15c8:	0f 92       	push	r0
    15ca:	11 24       	eor	r1, r1
    15cc:	2f 93       	push	r18
    15ce:	3f 93       	push	r19
    15d0:	4f 93       	push	r20
    15d2:	5f 93       	push	r21
    15d4:	6f 93       	push	r22
    15d6:	7f 93       	push	r23
    15d8:	8f 93       	push	r24
    15da:	9f 93       	push	r25
    15dc:	af 93       	push	r26
    15de:	bf 93       	push	r27
    15e0:	ef 93       	push	r30
    15e2:	ff 93       	push	r31
    15e4:	80 91 d3 06 	lds	r24, 0x06D3
    15e8:	8f 3f       	cpi	r24, 0xFF	; 255
    15ea:	f9 f4       	brne	.+62     	; 0x162a <__vector_3+0x68>
    15ec:	80 91 de 06 	lds	r24, 0x06DE
    15f0:	80 ff       	sbrs	r24, 0
    15f2:	1b c0       	rjmp	.+54     	; 0x162a <__vector_3+0x68>
    15f4:	83 b1       	in	r24, 0x03	; 3
    15f6:	82 ff       	sbrs	r24, 2
    15f8:	09 c0       	rjmp	.+18     	; 0x160c <__vector_3+0x4a>
    15fa:	80 91 ba 05 	lds	r24, 0x05BA
    15fe:	90 91 bb 05 	lds	r25, 0x05BB
    1602:	90 93 fb 07 	sts	0x07FB, r25
    1606:	80 93 fa 07 	sts	0x07FA, r24
    160a:	1e c0       	rjmp	.+60     	; 0x1648 <__vector_3+0x86>
    160c:	80 91 ba 05 	lds	r24, 0x05BA
    1610:	90 91 bb 05 	lds	r25, 0x05BB
    1614:	20 91 fa 07 	lds	r18, 0x07FA
    1618:	30 91 fb 07 	lds	r19, 0x07FB
    161c:	82 1b       	sub	r24, r18
    161e:	93 0b       	sbc	r25, r19
    1620:	90 93 d3 05 	sts	0x05D3, r25
    1624:	80 93 d2 05 	sts	0x05D2, r24
    1628:	0f c0       	rjmp	.+30     	; 0x1648 <__vector_3+0x86>
    162a:	83 b1       	in	r24, 0x03	; 3
    162c:	82 ff       	sbrs	r24, 2
    162e:	09 c0       	rjmp	.+18     	; 0x1642 <__vector_3+0x80>
    1630:	80 91 84 00 	lds	r24, 0x0084
    1634:	90 91 85 00 	lds	r25, 0x0085
    1638:	90 93 01 08 	sts	0x0801, r25
    163c:	80 93 00 08 	sts	0x0800, r24
    1640:	03 c0       	rjmp	.+6      	; 0x1648 <__vector_3+0x86>
    1642:	82 e0       	ldi	r24, 0x02	; 2
    1644:	0e 94 2c 26 	call	0x4c58	; 0x4c58 <CalculateSignalLength1>
    1648:	ff 91       	pop	r31
    164a:	ef 91       	pop	r30
    164c:	bf 91       	pop	r27
    164e:	af 91       	pop	r26
    1650:	9f 91       	pop	r25
    1652:	8f 91       	pop	r24
    1654:	7f 91       	pop	r23
    1656:	6f 91       	pop	r22
    1658:	5f 91       	pop	r21
    165a:	4f 91       	pop	r20
    165c:	3f 91       	pop	r19
    165e:	2f 91       	pop	r18
    1660:	0f 90       	pop	r0
    1662:	0f be       	out	0x3f, r0	; 63
    1664:	0f 90       	pop	r0
    1666:	1f 90       	pop	r1
    1668:	18 95       	reti

0000166a <__vector_5>:
    166a:	1f 92       	push	r1
    166c:	0f 92       	push	r0
    166e:	0f b6       	in	r0, 0x3f	; 63
    1670:	0f 92       	push	r0
    1672:	11 24       	eor	r1, r1
    1674:	2f 93       	push	r18
    1676:	3f 93       	push	r19
    1678:	4f 93       	push	r20
    167a:	5f 93       	push	r21
    167c:	6f 93       	push	r22
    167e:	7f 93       	push	r23
    1680:	8f 93       	push	r24
    1682:	9f 93       	push	r25
    1684:	af 93       	push	r26
    1686:	bf 93       	push	r27
    1688:	ef 93       	push	r30
    168a:	ff 93       	push	r31
    168c:	83 b1       	in	r24, 0x03	; 3
    168e:	80 ff       	sbrs	r24, 0
    1690:	0c c0       	rjmp	.+24     	; 0x16aa <__vector_5+0x40>
    1692:	80 91 84 00 	lds	r24, 0x0084
    1696:	90 91 85 00 	lds	r25, 0x0085
    169a:	90 93 0f 08 	sts	0x080F, r25
    169e:	80 93 0e 08 	sts	0x080E, r24
    16a2:	81 e0       	ldi	r24, 0x01	; 1
    16a4:	80 93 ce 06 	sts	0x06CE, r24
    16a8:	0b c0       	rjmp	.+22     	; 0x16c0 <__vector_5+0x56>
    16aa:	84 e0       	ldi	r24, 0x04	; 4
    16ac:	0e 94 55 26 	call	0x4caa	; 0x4caa <CalculateSignalLength2>
    16b0:	80 91 e0 05 	lds	r24, 0x05E0
    16b4:	90 91 e1 05 	lds	r25, 0x05E1
    16b8:	90 93 d7 05 	sts	0x05D7, r25
    16bc:	80 93 d6 05 	sts	0x05D6, r24
    16c0:	ff 91       	pop	r31
    16c2:	ef 91       	pop	r30
    16c4:	bf 91       	pop	r27
    16c6:	af 91       	pop	r26
    16c8:	9f 91       	pop	r25
    16ca:	8f 91       	pop	r24
    16cc:	7f 91       	pop	r23
    16ce:	6f 91       	pop	r22
    16d0:	5f 91       	pop	r21
    16d2:	4f 91       	pop	r20
    16d4:	3f 91       	pop	r19
    16d6:	2f 91       	pop	r18
    16d8:	0f 90       	pop	r0
    16da:	0f be       	out	0x3f, r0	; 63
    16dc:	0f 90       	pop	r0
    16de:	1f 90       	pop	r1
    16e0:	18 95       	reti

000016e2 <__ctors_end>:
    16e2:	11 24       	eor	r1, r1
    16e4:	1f be       	out	0x3f, r1	; 63
    16e6:	cf ef       	ldi	r28, 0xFF	; 255
    16e8:	d8 e0       	ldi	r29, 0x08	; 8
    16ea:	de bf       	out	0x3e, r29	; 62
    16ec:	cd bf       	out	0x3d, r28	; 61

000016ee <__do_copy_data>:
    16ee:	11 e0       	ldi	r17, 0x01	; 1
    16f0:	a0 e0       	ldi	r26, 0x00	; 0
    16f2:	b1 e0       	ldi	r27, 0x01	; 1
    16f4:	e4 e2       	ldi	r30, 0x24	; 36
    16f6:	fd e7       	ldi	r31, 0x7D	; 125
    16f8:	02 c0       	rjmp	.+4      	; 0x16fe <__do_copy_data+0x10>
    16fa:	05 90       	lpm	r0, Z+
    16fc:	0d 92       	st	X+, r0
    16fe:	a4 31       	cpi	r26, 0x14	; 20
    1700:	b1 07       	cpc	r27, r17
    1702:	d9 f7       	brne	.-10     	; 0x16fa <__do_copy_data+0xc>

00001704 <__do_clear_bss>:
    1704:	18 e0       	ldi	r17, 0x08	; 8
    1706:	a4 e1       	ldi	r26, 0x14	; 20
    1708:	b1 e0       	ldi	r27, 0x01	; 1
    170a:	01 c0       	rjmp	.+2      	; 0x170e <.do_clear_bss_start>

0000170c <.do_clear_bss_loop>:
    170c:	1d 92       	st	X+, r1

0000170e <.do_clear_bss_start>:
    170e:	a1 32       	cpi	r26, 0x21	; 33
    1710:	b1 07       	cpc	r27, r17
    1712:	e1 f7       	brne	.-8      	; 0x170c <.do_clear_bss_loop>
    1714:	0e 94 89 18 	call	0x3112	; 0x3112 <main>
    1718:	0c 94 90 3e 	jmp	0x7d20	; 0x7d20 <_exit>

0000171c <__bad_interrupt>:
    171c:	0c 94 00 00 	jmp	0	; 0x0 <__vectors>

00001720 <Beeper_Beep>:
    1720:	ef 92       	push	r14
    1722:	ff 92       	push	r15
    1724:	0f 93       	push	r16
    1726:	1f 93       	push	r17
    1728:	cf 93       	push	r28
    172a:	df 93       	push	r29
    172c:	ec 01       	movw	r28, r24
    172e:	00 e0       	ldi	r16, 0x00	; 0
    1730:	10 e0       	ldi	r17, 0x00	; 0
    1732:	e6 2e       	mov	r14, r22
    1734:	ff 24       	eor	r15, r15
    1736:	0a c0       	rjmp	.+20     	; 0x174c <Beeper_Beep+0x2c>
    1738:	29 9a       	sbi	0x05, 1	; 5
    173a:	ce 01       	movw	r24, r28
    173c:	0e 94 f4 0e 	call	0x1de8	; 0x1de8 <delay_ms>
    1740:	29 98       	cbi	0x05, 1	; 5
    1742:	ce 01       	movw	r24, r28
    1744:	0e 94 f4 0e 	call	0x1de8	; 0x1de8 <delay_ms>
    1748:	0f 5f       	subi	r16, 0xFF	; 255
    174a:	1f 4f       	sbci	r17, 0xFF	; 255
    174c:	0e 15       	cp	r16, r14
    174e:	1f 05       	cpc	r17, r15
    1750:	9c f3       	brlt	.-26     	; 0x1738 <Beeper_Beep+0x18>
    1752:	df 91       	pop	r29
    1754:	cf 91       	pop	r28
    1756:	1f 91       	pop	r17
    1758:	0f 91       	pop	r16
    175a:	ff 90       	pop	r15
    175c:	ef 90       	pop	r14
    175e:	08 95       	ret

00001760 <KeyBoard_Init>:
    1760:	84 b1       	in	r24, 0x04	; 4
    1762:	80 6f       	ori	r24, 0xF0	; 240
    1764:	84 b9       	out	0x04, r24	; 4
    1766:	85 b1       	in	r24, 0x05	; 5
    1768:	80 6f       	ori	r24, 0xF0	; 240
    176a:	85 b9       	out	0x05, r24	; 5
    176c:	08 95       	ret

0000176e <Keyboard_Read>:
    176e:	0f 93       	push	r16
    1770:	1f 93       	push	r17
    1772:	13 b1       	in	r17, 0x03	; 3
    1774:	10 95       	com	r17
    1776:	10 7f       	andi	r17, 0xF0	; 240
    1778:	00 91 bf 05 	lds	r16, 0x05BF
    177c:	10 92 cd 05 	sts	0x05CD, r1
    1780:	11 23       	and	r17, r17
    1782:	21 f1       	breq	.+72     	; 0x17cc <Keyboard_Read+0x5e>
    1784:	80 91 a2 07 	lds	r24, 0x07A2
    1788:	81 30       	cpi	r24, 0x01	; 1
    178a:	11 f4       	brne	.+4      	; 0x1790 <Keyboard_Read+0x22>
    178c:	0e 94 11 0f 	call	0x1e22	; 0x1e22 <Disarm>
    1790:	80 91 bf 05 	lds	r24, 0x05BF
    1794:	81 17       	cp	r24, r17
    1796:	59 f0       	breq	.+22     	; 0x17ae <Keyboard_Read+0x40>
    1798:	80 91 5e 06 	lds	r24, 0x065E
    179c:	90 91 5f 06 	lds	r25, 0x065F
    17a0:	84 5d       	subi	r24, 0xD4	; 212
    17a2:	9e 4f       	sbci	r25, 0xFE	; 254
    17a4:	90 93 15 01 	sts	0x0115, r25
    17a8:	80 93 14 01 	sts	0x0114, r24
    17ac:	0f c0       	rjmp	.+30     	; 0x17cc <Keyboard_Read+0x5e>
    17ae:	20 91 5e 06 	lds	r18, 0x065E
    17b2:	30 91 5f 06 	lds	r19, 0x065F
    17b6:	40 91 14 01 	lds	r20, 0x0114
    17ba:	50 91 15 01 	lds	r21, 0x0115
    17be:	42 17       	cp	r20, r18
    17c0:	53 07       	cpc	r21, r19
    17c2:	20 f4       	brcc	.+8      	; 0x17cc <Keyboard_Read+0x5e>
    17c4:	91 e0       	ldi	r25, 0x01	; 1
    17c6:	90 93 cd 05 	sts	0x05CD, r25
    17ca:	05 c0       	rjmp	.+10     	; 0x17d6 <Keyboard_Read+0x68>
    17cc:	80 2f       	mov	r24, r16
    17ce:	80 95       	com	r24
    17d0:	10 93 bf 05 	sts	0x05BF, r17
    17d4:	81 23       	and	r24, r17
    17d6:	1f 91       	pop	r17
    17d8:	0f 91       	pop	r16
    17da:	08 95       	ret

000017dc <Keyboard_State>:
    17dc:	80 91 bf 05 	lds	r24, 0x05BF
    17e0:	08 95       	ret

000017e2 <sendData>:
    17e2:	5d 98       	cbi	0x0b, 5	; 11
    17e4:	67 95       	ror	r22
    17e6:	66 27       	eor	r22, r22
    17e8:	67 95       	ror	r22
    17ea:	9b b1       	in	r25, 0x0b	; 11
    17ec:	9f 77       	andi	r25, 0x7F	; 127
    17ee:	96 2b       	or	r25, r22
    17f0:	9b b9       	out	0x0b, r25	; 11
    17f2:	98 e0       	ldi	r25, 0x08	; 8
    17f4:	5c 98       	cbi	0x0b, 4	; 11
    17f6:	87 ff       	sbrs	r24, 7
    17f8:	02 c0       	rjmp	.+4      	; 0x17fe <sendData+0x1c>
    17fa:	59 9a       	sbi	0x0b, 1	; 11
    17fc:	01 c0       	rjmp	.+2      	; 0x1800 <sendData+0x1e>
    17fe:	59 98       	cbi	0x0b, 1	; 11
    1800:	5c 9a       	sbi	0x0b, 4	; 11
    1802:	91 50       	subi	r25, 0x01	; 1
    1804:	11 f0       	breq	.+4      	; 0x180a <sendData+0x28>
    1806:	88 0f       	add	r24, r24
    1808:	f5 cf       	rjmp	.-22     	; 0x17f4 <sendData+0x12>
    180a:	5d 9a       	sbi	0x0b, 5	; 11
    180c:	08 95       	ret

0000180e <LCD_SetPos>:
    180e:	6f 77       	andi	r22, 0x7F	; 127
    1810:	60 93 1c 01 	sts	0x011C, r22
    1814:	88 0f       	add	r24, r24
    1816:	88 0f       	add	r24, r24
    1818:	88 0f       	add	r24, r24
    181a:	80 93 1b 01 	sts	0x011B, r24
    181e:	08 95       	ret

00001820 <lcdXY>:
    1820:	80 93 1c 01 	sts	0x011C, r24
    1824:	60 93 1b 01 	sts	0x011B, r22
    1828:	08 95       	ret

0000182a <lcdSetPixel>:
    182a:	26 2f       	mov	r18, r22
    182c:	26 95       	lsr	r18
    182e:	26 95       	lsr	r18
    1830:	26 95       	lsr	r18
    1832:	30 e0       	ldi	r19, 0x00	; 0
    1834:	36 95       	lsr	r19
    1836:	32 2f       	mov	r19, r18
    1838:	22 27       	eor	r18, r18
    183a:	37 95       	ror	r19
    183c:	27 95       	ror	r18
    183e:	28 0f       	add	r18, r24
    1840:	31 1d       	adc	r19, r1
    1842:	e6 2f       	mov	r30, r22
    1844:	f0 e0       	ldi	r31, 0x00	; 0
    1846:	e7 70       	andi	r30, 0x07	; 7
    1848:	f0 70       	andi	r31, 0x00	; 0
    184a:	e8 57       	subi	r30, 0x78	; 120
    184c:	ff 4f       	sbci	r31, 0xFF	; 255
    184e:	e4 91       	lpm	r30, Z+
    1850:	91 e0       	ldi	r25, 0x01	; 1
    1852:	41 11       	cpse	r20, r1
    1854:	90 e0       	ldi	r25, 0x00	; 0
    1856:	80 91 1a 01 	lds	r24, 0x011A
    185a:	81 70       	andi	r24, 0x01	; 1
    185c:	d9 01       	movw	r26, r18
    185e:	a3 5e       	subi	r26, 0xE3	; 227
    1860:	be 4f       	sbci	r27, 0xFE	; 254
    1862:	89 17       	cp	r24, r25
    1864:	29 f0       	breq	.+10     	; 0x1870 <lcdSetPixel+0x46>
    1866:	e0 95       	com	r30
    1868:	8c 91       	ld	r24, X
    186a:	e8 23       	and	r30, r24
    186c:	ec 93       	st	X, r30
    186e:	08 95       	ret
    1870:	8c 91       	ld	r24, X
    1872:	8e 2b       	or	r24, r30
    1874:	8c 93       	st	X, r24
    1876:	08 95       	ret

00001878 <LCD_Line>:
    1878:	08 95       	ret

0000187a <LCD_Rectangle>:
    187a:	08 95       	ret

0000187c <LCD_FillRectangle>:
    187c:	08 95       	ret

0000187e <LCD_Clear>:
    187e:	80 e0       	ldi	r24, 0x00	; 0
    1880:	94 e0       	ldi	r25, 0x04	; 4
    1882:	ed e1       	ldi	r30, 0x1D	; 29
    1884:	f1 e0       	ldi	r31, 0x01	; 1
    1886:	df 01       	movw	r26, r30
    1888:	9c 01       	movw	r18, r24
    188a:	1d 92       	st	X+, r1
    188c:	21 50       	subi	r18, 0x01	; 1
    188e:	30 40       	sbci	r19, 0x00	; 0
    1890:	e1 f7       	brne	.-8      	; 0x188a <LCD_Clear+0xc>
    1892:	80 e0       	ldi	r24, 0x00	; 0
    1894:	60 e0       	ldi	r22, 0x00	; 0
    1896:	0e 94 07 0c 	call	0x180e	; 0x180e <LCD_SetPos>
    189a:	10 92 1a 01 	sts	0x011A, r1
    189e:	08 95       	ret

000018a0 <lcdWriteSprite_P>:
    18a0:	8f 92       	push	r8
    18a2:	9f 92       	push	r9
    18a4:	bf 92       	push	r11
    18a6:	cf 92       	push	r12
    18a8:	df 92       	push	r13
    18aa:	ef 92       	push	r14
    18ac:	ff 92       	push	r15
    18ae:	0f 93       	push	r16
    18b0:	1f 93       	push	r17
    18b2:	df 93       	push	r29
    18b4:	cf 93       	push	r28
    18b6:	0f 92       	push	r0
    18b8:	cd b7       	in	r28, 0x3d	; 61
    18ba:	de b7       	in	r29, 0x3e	; 62
    18bc:	4c 01       	movw	r8, r24
    18be:	e6 2e       	mov	r14, r22
    18c0:	f4 2e       	mov	r15, r20
    18c2:	c2 2e       	mov	r12, r18
    18c4:	dd 24       	eor	r13, r13
    18c6:	bb 24       	eor	r11, r11
    18c8:	04 2f       	mov	r16, r20
    18ca:	10 e0       	ldi	r17, 0x00	; 0
    18cc:	4f c0       	rjmp	.+158    	; 0x196c <lcdWriteSprite_P+0xcc>
    18ce:	83 2f       	mov	r24, r19
    18d0:	87 70       	andi	r24, 0x07	; 7
    18d2:	29 f4       	brne	.+10     	; 0x18de <lcdWriteSprite_P+0x3e>
    18d4:	f4 01       	movw	r30, r8
    18d6:	08 94       	sec
    18d8:	81 1c       	adc	r8, r1
    18da:	91 1c       	adc	r9, r1
    18dc:	b4 90       	lpm	r11, Z+
    18de:	cc 20       	and	r12, r12
    18e0:	79 f5       	brne	.+94     	; 0x1940 <lcdWriteSprite_P+0xa0>
    18e2:	60 91 1b 01 	lds	r22, 0x011B
    18e6:	86 2f       	mov	r24, r22
    18e8:	87 70       	andi	r24, 0x07	; 7
    18ea:	19 f5       	brne	.+70     	; 0x1932 <lcdWriteSprite_P+0x92>
    18ec:	c8 01       	movw	r24, r16
    18ee:	83 1b       	sub	r24, r19
    18f0:	91 09       	sbc	r25, r1
    18f2:	88 30       	cpi	r24, 0x08	; 8
    18f4:	91 05       	cpc	r25, r1
    18f6:	ec f0       	brlt	.+58     	; 0x1932 <lcdWriteSprite_P+0x92>
    18f8:	63 0f       	add	r22, r19
    18fa:	66 95       	lsr	r22
    18fc:	66 95       	lsr	r22
    18fe:	66 95       	lsr	r22
    1900:	a6 2f       	mov	r26, r22
    1902:	b0 e0       	ldi	r27, 0x00	; 0
    1904:	b6 95       	lsr	r27
    1906:	ba 2f       	mov	r27, r26
    1908:	aa 27       	eor	r26, r26
    190a:	b7 95       	ror	r27
    190c:	a7 95       	ror	r26
    190e:	80 91 1c 01 	lds	r24, 0x011C
    1912:	8d 0d       	add	r24, r13
    1914:	a8 0f       	add	r26, r24
    1916:	b1 1d       	adc	r27, r1
    1918:	80 91 1a 01 	lds	r24, 0x011A
    191c:	a3 5e       	subi	r26, 0xE3	; 227
    191e:	be 4f       	sbci	r27, 0xFE	; 254
    1920:	80 ff       	sbrs	r24, 0
    1922:	04 c0       	rjmp	.+8      	; 0x192c <lcdWriteSprite_P+0x8c>
    1924:	8b 2d       	mov	r24, r11
    1926:	80 95       	com	r24
    1928:	8c 93       	st	X, r24
    192a:	01 c0       	rjmp	.+2      	; 0x192e <lcdWriteSprite_P+0x8e>
    192c:	bc 92       	st	X, r11
    192e:	39 5f       	subi	r19, 0xF9	; 249
    1930:	17 c0       	rjmp	.+46     	; 0x1960 <lcdWriteSprite_P+0xc0>
    1932:	80 91 1c 01 	lds	r24, 0x011C
    1936:	63 0f       	add	r22, r19
    1938:	4b 2d       	mov	r20, r11
    193a:	41 70       	andi	r20, 0x01	; 1
    193c:	8d 0d       	add	r24, r13
    193e:	0c c0       	rjmp	.+24     	; 0x1958 <lcdWriteSprite_P+0xb8>
    1940:	8c 2d       	mov	r24, r12
    1942:	81 30       	cpi	r24, 0x01	; 1
    1944:	69 f4       	brne	.+26     	; 0x1960 <lcdWriteSprite_P+0xc0>
    1946:	b0 fe       	sbrs	r11, 0
    1948:	0b c0       	rjmp	.+22     	; 0x1960 <lcdWriteSprite_P+0xc0>
    194a:	80 91 1c 01 	lds	r24, 0x011C
    194e:	60 91 1b 01 	lds	r22, 0x011B
    1952:	63 0f       	add	r22, r19
    1954:	8d 0d       	add	r24, r13
    1956:	41 e0       	ldi	r20, 0x01	; 1
    1958:	39 83       	std	Y+1, r19	; 0x01
    195a:	0e 94 15 0c 	call	0x182a	; 0x182a <lcdSetPixel>
    195e:	39 81       	ldd	r19, Y+1	; 0x01
    1960:	b6 94       	lsr	r11
    1962:	3f 5f       	subi	r19, 0xFF	; 255
    1964:	3f 15       	cp	r19, r15
    1966:	08 f4       	brcc	.+2      	; 0x196a <lcdWriteSprite_P+0xca>
    1968:	b2 cf       	rjmp	.-156    	; 0x18ce <lcdWriteSprite_P+0x2e>
    196a:	d3 94       	inc	r13
    196c:	de 14       	cp	r13, r14
    196e:	10 f4       	brcc	.+4      	; 0x1974 <lcdWriteSprite_P+0xd4>
    1970:	30 e0       	ldi	r19, 0x00	; 0
    1972:	f8 cf       	rjmp	.-16     	; 0x1964 <lcdWriteSprite_P+0xc4>
    1974:	0f 90       	pop	r0
    1976:	cf 91       	pop	r28
    1978:	df 91       	pop	r29
    197a:	1f 91       	pop	r17
    197c:	0f 91       	pop	r16
    197e:	ff 90       	pop	r15
    1980:	ef 90       	pop	r14
    1982:	df 90       	pop	r13
    1984:	cf 90       	pop	r12
    1986:	bf 90       	pop	r11
    1988:	9f 90       	pop	r9
    198a:	8f 90       	pop	r8
    198c:	08 95       	ret

0000198e <lcdWriteGlyph_P>:
    198e:	26 2f       	mov	r18, r22
    1990:	fc 01       	movw	r30, r24
    1992:	64 91       	lpm	r22, Z+
    1994:	31 96       	adiw	r30, 0x01	; 1
    1996:	44 91       	lpm	r20, Z+
    1998:	02 96       	adiw	r24, 0x02	; 2
    199a:	0e 94 50 0c 	call	0x18a0	; 0x18a0 <lcdWriteSprite_P>
    199e:	08 95       	ret

000019a0 <lcdWriteChar>:
    19a0:	8a 30       	cpi	r24, 0x0A	; 10
    19a2:	51 f4       	brne	.+20     	; 0x19b8 <lcdWriteChar+0x18>
    19a4:	80 91 1b 01 	lds	r24, 0x011B
    19a8:	90 91 17 01 	lds	r25, 0x0117
    19ac:	89 0f       	add	r24, r25
    19ae:	80 93 1b 01 	sts	0x011B, r24
    19b2:	10 92 1c 01 	sts	0x011C, r1
    19b6:	08 95       	ret
    19b8:	e0 91 18 01 	lds	r30, 0x0118
    19bc:	f0 91 19 01 	lds	r31, 0x0119
    19c0:	09 95       	icall
    19c2:	60 91 16 01 	lds	r22, 0x0116
    19c6:	40 91 17 01 	lds	r20, 0x0117
    19ca:	20 e0       	ldi	r18, 0x00	; 0
    19cc:	0e 94 50 0c 	call	0x18a0	; 0x18a0 <lcdWriteSprite_P>
    19d0:	80 91 1c 01 	lds	r24, 0x011C
    19d4:	90 91 16 01 	lds	r25, 0x0116
    19d8:	89 0f       	add	r24, r25
    19da:	80 93 1c 01 	sts	0x011C, r24
    19de:	08 95       	ret

000019e0 <LCD_WriteString>:
    19e0:	ef 92       	push	r14
    19e2:	ff 92       	push	r15
    19e4:	cf 93       	push	r28
    19e6:	df 93       	push	r29
    19e8:	e8 2e       	mov	r14, r24
    19ea:	e7 01       	movw	r28, r14
    19ec:	7e 01       	movw	r14, r28
    19ee:	f9 2e       	mov	r15, r25
    19f0:	e7 01       	movw	r28, r14
    19f2:	02 c0       	rjmp	.+4      	; 0x19f8 <LCD_WriteString+0x18>
    19f4:	0e 94 d0 0c 	call	0x19a0	; 0x19a0 <lcdWriteChar>
    19f8:	89 91       	ld	r24, Y+
    19fa:	88 23       	and	r24, r24
    19fc:	d9 f7       	brne	.-10     	; 0x19f4 <LCD_WriteString+0x14>
    19fe:	df 91       	pop	r29
    1a00:	cf 91       	pop	r28
    1a02:	ff 90       	pop	r15
    1a04:	ef 90       	pop	r14
    1a06:	08 95       	ret

00001a08 <LCD_WriteString_P>:
    1a08:	cf 93       	push	r28
    1a0a:	df 93       	push	r29
    1a0c:	ec 01       	movw	r28, r24
    1a0e:	02 c0       	rjmp	.+4      	; 0x1a14 <LCD_WriteString_P+0xc>
    1a10:	0e 94 d0 0c 	call	0x19a0	; 0x19a0 <lcdWriteChar>
    1a14:	fe 01       	movw	r30, r28
    1a16:	21 96       	adiw	r28, 0x01	; 1
    1a18:	84 91       	lpm	r24, Z+
    1a1a:	88 23       	and	r24, r24
    1a1c:	c9 f7       	brne	.-14     	; 0x1a10 <LCD_WriteString_P+0x8>
    1a1e:	df 91       	pop	r29
    1a20:	cf 91       	pop	r28
    1a22:	08 95       	ret

00001a24 <lcdReverse>:
    1a24:	90 91 1a 01 	lds	r25, 0x011A
    1a28:	88 23       	and	r24, r24
    1a2a:	11 f0       	breq	.+4      	; 0x1a30 <lcdReverse+0xc>
    1a2c:	91 60       	ori	r25, 0x01	; 1
    1a2e:	01 c0       	rjmp	.+2      	; 0x1a32 <lcdReverse+0xe>
    1a30:	9e 7f       	andi	r25, 0xFE	; 254
    1a32:	90 93 1a 01 	sts	0x011A, r25
    1a36:	08 95       	ret

00001a38 <LCD_WriteStringex>:
    1a38:	ef 92       	push	r14
    1a3a:	ff 92       	push	r15
    1a3c:	0f 93       	push	r16
    1a3e:	1f 93       	push	r17
    1a40:	df 93       	push	r29
    1a42:	cf 93       	push	r28
    1a44:	00 d0       	rcall	.+0      	; 0x1a46 <LCD_WriteStringex+0xe>
    1a46:	0f 92       	push	r0
    1a48:	cd b7       	in	r28, 0x3d	; 61
    1a4a:	de b7       	in	r29, 0x3e	; 62
    1a4c:	18 2f       	mov	r17, r24
    1a4e:	82 2f       	mov	r24, r18
    1a50:	4a 83       	std	Y+2, r20	; 0x02
    1a52:	5b 83       	std	Y+3, r21	; 0x03
    1a54:	69 83       	std	Y+1, r22	; 0x01
    1a56:	0e 94 12 0d 	call	0x1a24	; 0x1a24 <lcdReverse>
    1a5a:	81 2f       	mov	r24, r17
    1a5c:	69 81       	ldd	r22, Y+1	; 0x01
    1a5e:	0e 94 07 0c 	call	0x180e	; 0x180e <LCD_SetPos>
    1a62:	4a 81       	ldd	r20, Y+2	; 0x02
    1a64:	5b 81       	ldd	r21, Y+3	; 0x03
    1a66:	8a 01       	movw	r16, r20
    1a68:	02 c0       	rjmp	.+4      	; 0x1a6e <LCD_WriteStringex+0x36>
    1a6a:	0e 94 d0 0c 	call	0x19a0	; 0x19a0 <lcdWriteChar>
    1a6e:	f8 01       	movw	r30, r16
    1a70:	81 91       	ld	r24, Z+
    1a72:	8f 01       	movw	r16, r30
    1a74:	88 23       	and	r24, r24
    1a76:	c9 f7       	brne	.-14     	; 0x1a6a <LCD_WriteStringex+0x32>
    1a78:	0e 94 12 0d 	call	0x1a24	; 0x1a24 <lcdReverse>
    1a7c:	0f 90       	pop	r0
    1a7e:	0f 90       	pop	r0
    1a80:	0f 90       	pop	r0
    1a82:	cf 91       	pop	r28
    1a84:	df 91       	pop	r29
    1a86:	1f 91       	pop	r17
    1a88:	0f 91       	pop	r16
    1a8a:	ff 90       	pop	r15
    1a8c:	ef 90       	pop	r14
    1a8e:	08 95       	ret

00001a90 <LCD_WriteSpace>:
    1a90:	0f 93       	push	r16
    1a92:	1f 93       	push	r17
    1a94:	08 2f       	mov	r16, r24
    1a96:	10 e0       	ldi	r17, 0x00	; 0
    1a98:	04 c0       	rjmp	.+8      	; 0x1aa2 <LCD_WriteSpace+0x12>
    1a9a:	80 e2       	ldi	r24, 0x20	; 32
    1a9c:	0e 94 d0 0c 	call	0x19a0	; 0x19a0 <lcdWriteChar>
    1aa0:	1f 5f       	subi	r17, 0xFF	; 255
    1aa2:	10 17       	cp	r17, r16
    1aa4:	d0 f3       	brcs	.-12     	; 0x1a9a <LCD_WriteSpace+0xa>
    1aa6:	1f 91       	pop	r17
    1aa8:	0f 91       	pop	r16
    1aaa:	08 95       	ret

00001aac <LCD_WritePadded>:
    1aac:	0f 93       	push	r16
    1aae:	1f 93       	push	r17
    1ab0:	df 93       	push	r29
    1ab2:	cf 93       	push	r28
    1ab4:	0f 92       	push	r0
    1ab6:	cd b7       	in	r28, 0x3d	; 61
    1ab8:	de b7       	in	r29, 0x3e	; 62
    1aba:	8c 01       	movw	r16, r24
    1abc:	69 83       	std	Y+1, r22	; 0x01
    1abe:	0e 94 f0 0c 	call	0x19e0	; 0x19e0 <LCD_WriteString>
    1ac2:	f8 01       	movw	r30, r16
    1ac4:	01 90       	ld	r0, Z+
    1ac6:	00 20       	and	r0, r0
    1ac8:	e9 f7       	brne	.-6      	; 0x1ac4 <LCD_WritePadded+0x18>
    1aca:	31 97       	sbiw	r30, 0x01	; 1
    1acc:	e0 1b       	sub	r30, r16
    1ace:	f1 0b       	sbc	r31, r17
    1ad0:	69 81       	ldd	r22, Y+1	; 0x01
    1ad2:	86 2f       	mov	r24, r22
    1ad4:	8e 1b       	sub	r24, r30
    1ad6:	0e 94 48 0d 	call	0x1a90	; 0x1a90 <LCD_WriteSpace>
    1ada:	0f 90       	pop	r0
    1adc:	cf 91       	pop	r28
    1ade:	df 91       	pop	r29
    1ae0:	1f 91       	pop	r17
    1ae2:	0f 91       	pop	r16
    1ae4:	08 95       	ret

00001ae6 <LCD_WritePadded_P>:
    1ae6:	0f 93       	push	r16
    1ae8:	1f 93       	push	r17
    1aea:	df 93       	push	r29
    1aec:	cf 93       	push	r28
    1aee:	0f 92       	push	r0
    1af0:	cd b7       	in	r28, 0x3d	; 61
    1af2:	de b7       	in	r29, 0x3e	; 62
    1af4:	8c 01       	movw	r16, r24
    1af6:	69 83       	std	Y+1, r22	; 0x01
    1af8:	0e 94 04 0d 	call	0x1a08	; 0x1a08 <LCD_WriteString_P>
    1afc:	c8 01       	movw	r24, r16
    1afe:	0e 94 92 3b 	call	0x7724	; 0x7724 <strlen_P>
    1b02:	69 81       	ldd	r22, Y+1	; 0x01
    1b04:	68 1b       	sub	r22, r24
    1b06:	86 2f       	mov	r24, r22
    1b08:	0e 94 48 0d 	call	0x1a90	; 0x1a90 <LCD_WriteSpace>
    1b0c:	0f 90       	pop	r0
    1b0e:	cf 91       	pop	r28
    1b10:	df 91       	pop	r29
    1b12:	1f 91       	pop	r17
    1b14:	0f 91       	pop	r16
    1b16:	08 95       	ret

00001b18 <LCD_WriteString_Pex>:
    1b18:	ef 92       	push	r14
    1b1a:	ff 92       	push	r15
    1b1c:	0f 93       	push	r16
    1b1e:	1f 93       	push	r17
    1b20:	df 93       	push	r29
    1b22:	cf 93       	push	r28
    1b24:	00 d0       	rcall	.+0      	; 0x1b26 <LCD_WriteString_Pex+0xe>
    1b26:	cd b7       	in	r28, 0x3d	; 61
    1b28:	de b7       	in	r29, 0x3e	; 62
    1b2a:	18 2f       	mov	r17, r24
    1b2c:	7a 01       	movw	r14, r20
    1b2e:	80 2f       	mov	r24, r16
    1b30:	2a 83       	std	Y+2, r18	; 0x02
    1b32:	69 83       	std	Y+1, r22	; 0x01
    1b34:	0e 94 12 0d 	call	0x1a24	; 0x1a24 <lcdReverse>
    1b38:	81 2f       	mov	r24, r17
    1b3a:	69 81       	ldd	r22, Y+1	; 0x01
    1b3c:	0e 94 07 0c 	call	0x180e	; 0x180e <LCD_SetPos>
    1b40:	c7 01       	movw	r24, r14
    1b42:	2a 81       	ldd	r18, Y+2	; 0x02
    1b44:	62 2f       	mov	r22, r18
    1b46:	0e 94 73 0d 	call	0x1ae6	; 0x1ae6 <LCD_WritePadded_P>
    1b4a:	80 e0       	ldi	r24, 0x00	; 0
    1b4c:	0e 94 12 0d 	call	0x1a24	; 0x1a24 <lcdReverse>
    1b50:	0f 90       	pop	r0
    1b52:	0f 90       	pop	r0
    1b54:	cf 91       	pop	r28
    1b56:	df 91       	pop	r29
    1b58:	1f 91       	pop	r17
    1b5a:	0f 91       	pop	r16
    1b5c:	ff 90       	pop	r15
    1b5e:	ef 90       	pop	r14
    1b60:	08 95       	ret

00001b62 <LCD_WriteValue_double_ex>:
    1b62:	bf 92       	push	r11
    1b64:	cf 92       	push	r12
    1b66:	df 92       	push	r13
    1b68:	ef 92       	push	r14
    1b6a:	ff 92       	push	r15
    1b6c:	0f 93       	push	r16
    1b6e:	1f 93       	push	r17
    1b70:	df 93       	push	r29
    1b72:	cf 93       	push	r28
    1b74:	cd b7       	in	r28, 0x3d	; 61
    1b76:	de b7       	in	r29, 0x3e	; 62
    1b78:	62 97       	sbiw	r28, 0x12	; 18
    1b7a:	0f b6       	in	r0, 0x3f	; 63
    1b7c:	f8 94       	cli
    1b7e:	de bf       	out	0x3e, r29	; 62
    1b80:	0f be       	out	0x3f, r0	; 63
    1b82:	cd bf       	out	0x3d, r28	; 61
    1b84:	f8 2e       	mov	r15, r24
    1b86:	b6 2e       	mov	r11, r22
    1b88:	ca 01       	movw	r24, r20
    1b8a:	b9 01       	movw	r22, r18
    1b8c:	30 2f       	mov	r19, r16
    1b8e:	32 50       	subi	r19, 0x02	; 2
    1b90:	43 2f       	mov	r20, r19
    1b92:	22 e0       	ldi	r18, 0x02	; 2
    1b94:	6e 01       	movw	r12, r28
    1b96:	08 94       	sec
    1b98:	c1 1c       	adc	r12, r1
    1b9a:	d1 1c       	adc	r13, r1
    1b9c:	86 01       	movw	r16, r12
    1b9e:	3a 8b       	std	Y+18, r19	; 0x12
    1ba0:	0e 94 60 3b 	call	0x76c0	; 0x76c0 <dtostrf>
    1ba4:	8e 2d       	mov	r24, r14
    1ba6:	0e 94 12 0d 	call	0x1a24	; 0x1a24 <lcdReverse>
    1baa:	8f 2d       	mov	r24, r15
    1bac:	6b 2d       	mov	r22, r11
    1bae:	0e 94 07 0c 	call	0x180e	; 0x180e <LCD_SetPos>
    1bb2:	c6 01       	movw	r24, r12
    1bb4:	3a 89       	ldd	r19, Y+18	; 0x12
    1bb6:	63 2f       	mov	r22, r19
    1bb8:	0e 94 56 0d 	call	0x1aac	; 0x1aac <LCD_WritePadded>
    1bbc:	80 e0       	ldi	r24, 0x00	; 0
    1bbe:	0e 94 12 0d 	call	0x1a24	; 0x1a24 <lcdReverse>
    1bc2:	62 96       	adiw	r28, 0x12	; 18
    1bc4:	0f b6       	in	r0, 0x3f	; 63
    1bc6:	f8 94       	cli
    1bc8:	de bf       	out	0x3e, r29	; 62
    1bca:	0f be       	out	0x3f, r0	; 63
    1bcc:	cd bf       	out	0x3d, r28	; 61
    1bce:	cf 91       	pop	r28
    1bd0:	df 91       	pop	r29
    1bd2:	1f 91       	pop	r17
    1bd4:	0f 91       	pop	r16
    1bd6:	ff 90       	pop	r15
    1bd8:	ef 90       	pop	r14
    1bda:	df 90       	pop	r13
    1bdc:	cf 90       	pop	r12
    1bde:	bf 90       	pop	r11
    1be0:	08 95       	ret

00001be2 <LCD_WriteValue_double>:
    1be2:	ef 92       	push	r14
    1be4:	0f 93       	push	r16
    1be6:	e0 2e       	mov	r14, r16
    1be8:	05 e0       	ldi	r16, 0x05	; 5
    1bea:	0e 94 b1 0d 	call	0x1b62	; 0x1b62 <LCD_WriteValue_double_ex>
    1bee:	0f 91       	pop	r16
    1bf0:	ef 90       	pop	r14
    1bf2:	08 95       	ret

00001bf4 <LCD_WriteValue>:
    1bf4:	df 92       	push	r13
    1bf6:	ef 92       	push	r14
    1bf8:	ff 92       	push	r15
    1bfa:	0f 93       	push	r16
    1bfc:	1f 93       	push	r17
    1bfe:	df 93       	push	r29
    1c00:	cf 93       	push	r28
    1c02:	cd b7       	in	r28, 0x3d	; 61
    1c04:	de b7       	in	r29, 0x3e	; 62
    1c06:	28 97       	sbiw	r28, 0x08	; 8
    1c08:	0f b6       	in	r0, 0x3f	; 63
    1c0a:	f8 94       	cli
    1c0c:	de bf       	out	0x3e, r29	; 62
    1c0e:	0f be       	out	0x3f, r0	; 63
    1c10:	cd bf       	out	0x3d, r28	; 61
    1c12:	d8 2e       	mov	r13, r24
    1c14:	16 2f       	mov	r17, r22
    1c16:	ca 01       	movw	r24, r20
    1c18:	7e 01       	movw	r14, r28
    1c1a:	08 94       	sec
    1c1c:	e1 1c       	adc	r14, r1
    1c1e:	f1 1c       	adc	r15, r1
    1c20:	b7 01       	movw	r22, r14
    1c22:	4a e0       	ldi	r20, 0x0A	; 10
    1c24:	50 e0       	ldi	r21, 0x00	; 0
    1c26:	28 87       	std	Y+8, r18	; 0x08
    1c28:	0e 94 bd 3b 	call	0x777a	; 0x777a <itoa>
    1c2c:	80 2f       	mov	r24, r16
    1c2e:	0e 94 12 0d 	call	0x1a24	; 0x1a24 <lcdReverse>
    1c32:	8d 2d       	mov	r24, r13
    1c34:	61 2f       	mov	r22, r17
    1c36:	0e 94 07 0c 	call	0x180e	; 0x180e <LCD_SetPos>
    1c3a:	c7 01       	movw	r24, r14
    1c3c:	28 85       	ldd	r18, Y+8	; 0x08
    1c3e:	62 2f       	mov	r22, r18
    1c40:	0e 94 56 0d 	call	0x1aac	; 0x1aac <LCD_WritePadded>
    1c44:	80 e0       	ldi	r24, 0x00	; 0
    1c46:	0e 94 12 0d 	call	0x1a24	; 0x1a24 <lcdReverse>
    1c4a:	28 96       	adiw	r28, 0x08	; 8
    1c4c:	0f b6       	in	r0, 0x3f	; 63
    1c4e:	f8 94       	cli
    1c50:	de bf       	out	0x3e, r29	; 62
    1c52:	0f be       	out	0x3f, r0	; 63
    1c54:	cd bf       	out	0x3d, r28	; 61
    1c56:	cf 91       	pop	r28
    1c58:	df 91       	pop	r29
    1c5a:	1f 91       	pop	r17
    1c5c:	0f 91       	pop	r16
    1c5e:	ff 90       	pop	r15
    1c60:	ef 90       	pop	r14
    1c62:	df 90       	pop	r13
    1c64:	08 95       	ret

00001c66 <LCD_Enable>:
    1c66:	16 bc       	out	0x26, r1	; 38
    1c68:	81 e0       	ldi	r24, 0x01	; 1
    1c6a:	85 bb       	out	0x15, r24	; 21
    1c6c:	ee e6       	ldi	r30, 0x6E	; 110
    1c6e:	f0 e0       	ldi	r31, 0x00	; 0
    1c70:	80 81       	ld	r24, Z
    1c72:	81 60       	ori	r24, 0x01	; 1
    1c74:	80 83       	st	Z, r24
    1c76:	08 95       	ret

00001c78 <LCD_Disable>:
    1c78:	ee e6       	ldi	r30, 0x6E	; 110
    1c7a:	f0 e0       	ldi	r31, 0x00	; 0
    1c7c:	80 81       	ld	r24, Z
    1c7e:	8e 7f       	andi	r24, 0xFE	; 254
    1c80:	80 83       	st	Z, r24
    1c82:	08 95       	ret

00001c84 <lcdSetContrast>:
    1c84:	0f 93       	push	r16
    1c86:	1f 93       	push	r17
    1c88:	cf 93       	push	r28
    1c8a:	df 93       	push	r29
    1c8c:	08 2f       	mov	r16, r24
    1c8e:	ce e6       	ldi	r28, 0x6E	; 110
    1c90:	d0 e0       	ldi	r29, 0x00	; 0
    1c92:	18 81       	ld	r17, Y
    1c94:	0e 94 3c 0e 	call	0x1c78	; 0x1c78 <LCD_Disable>
    1c98:	81 e8       	ldi	r24, 0x81	; 129
    1c9a:	60 e0       	ldi	r22, 0x00	; 0
    1c9c:	0e 94 f1 0b 	call	0x17e2	; 0x17e2 <sendData>
    1ca0:	80 2f       	mov	r24, r16
    1ca2:	8f 73       	andi	r24, 0x3F	; 63
    1ca4:	60 e0       	ldi	r22, 0x00	; 0
    1ca6:	0e 94 f1 0b 	call	0x17e2	; 0x17e2 <sendData>
    1caa:	18 83       	st	Y, r17
    1cac:	df 91       	pop	r29
    1cae:	cf 91       	pop	r28
    1cb0:	1f 91       	pop	r17
    1cb2:	0f 91       	pop	r16
    1cb4:	08 95       	ret

00001cb6 <LCD_SelectFont>:
    1cb6:	bc 01       	movw	r22, r24
    1cb8:	00 97       	sbiw	r24, 0x00	; 0
    1cba:	11 f4       	brne	.+4      	; 0x1cc0 <LCD_SelectFont+0xa>
    1cbc:	6d e4       	ldi	r22, 0x4D	; 77
    1cbe:	77 e0       	ldi	r23, 0x07	; 7
    1cc0:	86 e1       	ldi	r24, 0x16	; 22
    1cc2:	91 e0       	ldi	r25, 0x01	; 1
    1cc4:	44 e0       	ldi	r20, 0x04	; 4
    1cc6:	50 e0       	ldi	r21, 0x00	; 0
    1cc8:	0e 94 82 3b 	call	0x7704	; 0x7704 <memcpy_P>
    1ccc:	08 95       	ret

00001cce <LCD_Init>:
    1cce:	cf 93       	push	r28
    1cd0:	df 93       	push	r29
    1cd2:	55 9a       	sbi	0x0a, 5	; 10
    1cd4:	56 9a       	sbi	0x0a, 6	; 10
    1cd6:	57 9a       	sbi	0x0a, 7	; 10
    1cd8:	54 9a       	sbi	0x0a, 4	; 10
    1cda:	51 9a       	sbi	0x0a, 1	; 10
    1cdc:	5e 98       	cbi	0x0b, 6	; 11
    1cde:	89 ef       	ldi	r24, 0xF9	; 249
    1ce0:	90 e0       	ldi	r25, 0x00	; 0
    1ce2:	01 97       	sbiw	r24, 0x01	; 1
    1ce4:	f1 f7       	brne	.-4      	; 0x1ce2 <LCD_Init+0x14>
    1ce6:	00 c0       	rjmp	.+0      	; 0x1ce8 <LCD_Init+0x1a>
    1ce8:	00 00       	nop
    1cea:	5e 9a       	sbi	0x0b, 6	; 11
    1cec:	89 ef       	ldi	r24, 0xF9	; 249
    1cee:	90 e0       	ldi	r25, 0x00	; 0
    1cf0:	01 97       	sbiw	r24, 0x01	; 1
    1cf2:	f1 f7       	brne	.-4      	; 0x1cf0 <LCD_Init+0x22>
    1cf4:	00 c0       	rjmp	.+0      	; 0x1cf6 <LCD_Init+0x28>
    1cf6:	00 00       	nop
    1cf8:	cc e7       	ldi	r28, 0x7C	; 124
    1cfa:	d0 e0       	ldi	r29, 0x00	; 0
    1cfc:	03 c0       	rjmp	.+6      	; 0x1d04 <LCD_Init+0x36>
    1cfe:	60 e0       	ldi	r22, 0x00	; 0
    1d00:	0e 94 f1 0b 	call	0x17e2	; 0x17e2 <sendData>
    1d04:	fe 01       	movw	r30, r28
    1d06:	21 96       	adiw	r28, 0x01	; 1
    1d08:	84 91       	lpm	r24, Z+
    1d0a:	88 23       	and	r24, r24
    1d0c:	c1 f7       	brne	.-16     	; 0x1cfe <LCD_Init+0x30>
    1d0e:	80 e0       	ldi	r24, 0x00	; 0
    1d10:	90 e0       	ldi	r25, 0x00	; 0
    1d12:	0e 94 5b 0e 	call	0x1cb6	; 0x1cb6 <LCD_SelectFont>
    1d16:	82 e0       	ldi	r24, 0x02	; 2
    1d18:	85 bd       	out	0x25, r24	; 37
    1d1a:	0e 94 33 0e 	call	0x1c66	; 0x1c66 <LCD_Enable>
    1d1e:	df 91       	pop	r29
    1d20:	cf 91       	pop	r28
    1d22:	08 95       	ret

00001d24 <LED_FlashOrangeLED>:
    1d24:	cf 92       	push	r12
    1d26:	df 92       	push	r13
    1d28:	ef 92       	push	r14
    1d2a:	ff 92       	push	r15
    1d2c:	0f 93       	push	r16
    1d2e:	1f 93       	push	r17
    1d30:	df 93       	push	r29
    1d32:	cf 93       	push	r28
    1d34:	0f 92       	push	r0
    1d36:	cd b7       	in	r28, 0x3d	; 61
    1d38:	de b7       	in	r29, 0x3e	; 62
    1d3a:	6c 01       	movw	r12, r24
    1d3c:	25 b1       	in	r18, 0x05	; 5
    1d3e:	26 95       	lsr	r18
    1d40:	26 95       	lsr	r18
    1d42:	26 95       	lsr	r18
    1d44:	21 70       	andi	r18, 0x01	; 1
    1d46:	00 e0       	ldi	r16, 0x00	; 0
    1d48:	10 e0       	ldi	r17, 0x00	; 0
    1d4a:	e6 2e       	mov	r14, r22
    1d4c:	ff 24       	eor	r15, r15
    1d4e:	24 c0       	rjmp	.+72     	; 0x1d98 <LED_FlashOrangeLED+0x74>
    1d50:	85 b1       	in	r24, 0x05	; 5
    1d52:	86 95       	lsr	r24
    1d54:	86 95       	lsr	r24
    1d56:	86 95       	lsr	r24
    1d58:	80 95       	com	r24
    1d5a:	81 70       	andi	r24, 0x01	; 1
    1d5c:	88 0f       	add	r24, r24
    1d5e:	88 0f       	add	r24, r24
    1d60:	88 0f       	add	r24, r24
    1d62:	95 b1       	in	r25, 0x05	; 5
    1d64:	97 7f       	andi	r25, 0xF7	; 247
    1d66:	98 2b       	or	r25, r24
    1d68:	95 b9       	out	0x05, r25	; 5
    1d6a:	c6 01       	movw	r24, r12
    1d6c:	29 83       	std	Y+1, r18	; 0x01
    1d6e:	0e 94 f4 0e 	call	0x1de8	; 0x1de8 <delay_ms>
    1d72:	85 b1       	in	r24, 0x05	; 5
    1d74:	86 95       	lsr	r24
    1d76:	86 95       	lsr	r24
    1d78:	86 95       	lsr	r24
    1d7a:	80 95       	com	r24
    1d7c:	81 70       	andi	r24, 0x01	; 1
    1d7e:	88 0f       	add	r24, r24
    1d80:	88 0f       	add	r24, r24
    1d82:	88 0f       	add	r24, r24
    1d84:	95 b1       	in	r25, 0x05	; 5
    1d86:	97 7f       	andi	r25, 0xF7	; 247
    1d88:	98 2b       	or	r25, r24
    1d8a:	95 b9       	out	0x05, r25	; 5
    1d8c:	c6 01       	movw	r24, r12
    1d8e:	0e 94 f4 0e 	call	0x1de8	; 0x1de8 <delay_ms>
    1d92:	0f 5f       	subi	r16, 0xFF	; 255
    1d94:	1f 4f       	sbci	r17, 0xFF	; 255
    1d96:	29 81       	ldd	r18, Y+1	; 0x01
    1d98:	0e 15       	cp	r16, r14
    1d9a:	1f 05       	cpc	r17, r15
    1d9c:	cc f2       	brlt	.-78     	; 0x1d50 <LED_FlashOrangeLED+0x2c>
    1d9e:	21 70       	andi	r18, 0x01	; 1
    1da0:	22 0f       	add	r18, r18
    1da2:	22 0f       	add	r18, r18
    1da4:	22 0f       	add	r18, r18
    1da6:	85 b1       	in	r24, 0x05	; 5
    1da8:	87 7f       	andi	r24, 0xF7	; 247
    1daa:	82 2b       	or	r24, r18
    1dac:	85 b9       	out	0x05, r24	; 5
    1dae:	0f 90       	pop	r0
    1db0:	cf 91       	pop	r28
    1db2:	df 91       	pop	r29
    1db4:	1f 91       	pop	r17
    1db6:	0f 91       	pop	r16
    1db8:	ff 90       	pop	r15
    1dba:	ef 90       	pop	r14
    1dbc:	df 90       	pop	r13
    1dbe:	cf 90       	pop	r12
    1dc0:	08 95       	ret

00001dc2 <delay_us>:
    1dc2:	0f c0       	rjmp	.+30     	; 0x1de2 <delay_us+0x20>
	...
    1de0:	01 97       	sbiw	r24, 0x01	; 1
    1de2:	00 97       	sbiw	r24, 0x00	; 0
    1de4:	79 f7       	brne	.-34     	; 0x1dc4 <delay_us+0x2>
    1de6:	08 95       	ret

00001de8 <delay_ms>:
    1de8:	1f 93       	push	r17
    1dea:	cf 93       	push	r28
    1dec:	df 93       	push	r29
    1dee:	ec 01       	movw	r28, r24
    1df0:	08 c0       	rjmp	.+16     	; 0x1e02 <delay_ms+0x1a>
    1df2:	1a e0       	ldi	r17, 0x0A	; 10
    1df4:	84 e6       	ldi	r24, 0x64	; 100
    1df6:	90 e0       	ldi	r25, 0x00	; 0
    1df8:	0e 94 e1 0e 	call	0x1dc2	; 0x1dc2 <delay_us>
    1dfc:	11 50       	subi	r17, 0x01	; 1
    1dfe:	d1 f7       	brne	.-12     	; 0x1df4 <delay_ms+0xc>
    1e00:	21 97       	sbiw	r28, 0x01	; 1
    1e02:	20 97       	sbiw	r28, 0x00	; 0
    1e04:	b1 f7       	brne	.-20     	; 0x1df2 <delay_ms+0xa>
    1e06:	df 91       	pop	r29
    1e08:	cf 91       	pop	r28
    1e0a:	1f 91       	pop	r17
    1e0c:	08 95       	ret

00001e0e <Ultrasonic_Init>:
    1e0e:	50 9a       	sbi	0x0a, 0	; 10
    1e10:	48 9a       	sbi	0x09, 0	; 9
    1e12:	22 98       	cbi	0x04, 2	; 4
    1e14:	80 e1       	ldi	r24, 0x10	; 16
    1e16:	80 93 69 00 	sts	0x0069, r24
    1e1a:	84 e0       	ldi	r24, 0x04	; 4
    1e1c:	8d bb       	out	0x1d, r24	; 29
    1e1e:	8c bb       	out	0x1c, r24	; 28
    1e20:	08 95       	ret

00001e22 <Disarm>:
    1e22:	10 92 a2 07 	sts	0x07A2, r1
    1e26:	2b 98       	cbi	0x05, 3	; 5
    1e28:	10 92 e9 05 	sts	0x05E9, r1
    1e2c:	10 92 e8 05 	sts	0x05E8, r1
    1e30:	86 e4       	ldi	r24, 0x46	; 70
    1e32:	90 e0       	ldi	r25, 0x00	; 0
    1e34:	62 e0       	ldi	r22, 0x02	; 2
    1e36:	0e 94 90 0b 	call	0x1720	; 0x1720 <Beeper_Beep>
    1e3a:	80 e0       	ldi	r24, 0x00	; 0
    1e3c:	90 e0       	ldi	r25, 0x00	; 0
    1e3e:	0e 94 4d 2f 	call	0x5e9a	; 0x5e9a <Menu_LoadPage>
    1e42:	08 95       	ret

00001e44 <Arm>:
    1e44:	80 91 d8 06 	lds	r24, 0x06D8
    1e48:	82 30       	cpi	r24, 0x02	; 2
    1e4a:	39 f4       	brne	.+14     	; 0x1e5a <Arm+0x16>
    1e4c:	80 91 d9 06 	lds	r24, 0x06D9
    1e50:	81 30       	cpi	r24, 0x01	; 1
    1e52:	19 f4       	brne	.+6      	; 0x1e5a <Arm+0x16>
    1e54:	0e 94 11 0f 	call	0x1e22	; 0x1e22 <Disarm>
    1e58:	08 95       	ret
    1e5a:	81 e0       	ldi	r24, 0x01	; 1
    1e5c:	80 93 a2 07 	sts	0x07A2, r24
    1e60:	8e e1       	ldi	r24, 0x1E	; 30
    1e62:	90 e0       	ldi	r25, 0x00	; 0
    1e64:	64 e0       	ldi	r22, 0x04	; 4
    1e66:	70 e0       	ldi	r23, 0x00	; 0
    1e68:	0e 94 92 0e 	call	0x1d24	; 0x1d24 <LED_FlashOrangeLED>
    1e6c:	2b 9a       	sbi	0x05, 3	; 5
    1e6e:	8c eb       	ldi	r24, 0xBC	; 188
    1e70:	92 e0       	ldi	r25, 0x02	; 2
    1e72:	61 e0       	ldi	r22, 0x01	; 1
    1e74:	0e 94 90 0b 	call	0x1720	; 0x1720 <Beeper_Beep>
    1e78:	10 92 e9 05 	sts	0x05E9, r1
    1e7c:	10 92 e8 05 	sts	0x05E8, r1
    1e80:	10 92 1e 06 	sts	0x061E, r1
    1e84:	10 92 1d 06 	sts	0x061D, r1
    1e88:	82 e0       	ldi	r24, 0x02	; 2
    1e8a:	90 e0       	ldi	r25, 0x00	; 0
    1e8c:	0e 94 4d 2f 	call	0x5e9a	; 0x5e9a <Menu_LoadPage>
    1e90:	80 e0       	ldi	r24, 0x00	; 0
    1e92:	90 e0       	ldi	r25, 0x00	; 0
    1e94:	dc 01       	movw	r26, r24
    1e96:	80 93 68 06 	sts	0x0668, r24
    1e9a:	90 93 69 06 	sts	0x0669, r25
    1e9e:	a0 93 6a 06 	sts	0x066A, r26
    1ea2:	b0 93 6b 06 	sts	0x066B, r27
    1ea6:	80 93 80 06 	sts	0x0680, r24
    1eaa:	90 93 81 06 	sts	0x0681, r25
    1eae:	a0 93 82 06 	sts	0x0682, r26
    1eb2:	b0 93 83 06 	sts	0x0683, r27
    1eb6:	80 93 98 06 	sts	0x0698, r24
    1eba:	90 93 99 06 	sts	0x0699, r25
    1ebe:	a0 93 9a 06 	sts	0x069A, r26
    1ec2:	b0 93 9b 06 	sts	0x069B, r27
    1ec6:	80 93 54 05 	sts	0x0554, r24
    1eca:	90 93 55 05 	sts	0x0555, r25
    1ece:	a0 93 56 05 	sts	0x0556, r26
    1ed2:	b0 93 57 05 	sts	0x0557, r27
    1ed6:	80 93 6c 05 	sts	0x056C, r24
    1eda:	90 93 6d 05 	sts	0x056D, r25
    1ede:	a0 93 6e 05 	sts	0x056E, r26
    1ee2:	b0 93 6f 05 	sts	0x056F, r27
    1ee6:	80 93 84 05 	sts	0x0584, r24
    1eea:	90 93 85 05 	sts	0x0585, r25
    1eee:	a0 93 86 05 	sts	0x0586, r26
    1ef2:	b0 93 87 05 	sts	0x0587, r27
    1ef6:	08 95       	ret

00001ef8 <Set_EEPROM_Default_Config>:
    1ef8:	81 ed       	ldi	r24, 0xD1	; 209
    1efa:	96 e0       	ldi	r25, 0x06	; 6
    1efc:	60 e9       	ldi	r22, 0x90	; 144
    1efe:	70 e0       	ldi	r23, 0x00	; 0
    1f00:	49 eb       	ldi	r20, 0xB9	; 185
    1f02:	50 e0       	ldi	r21, 0x00	; 0
    1f04:	0e 94 82 3b 	call	0x7704	; 0x7704 <memcpy_P>
    1f08:	08 95       	ret

00001f0a <eeprom_write_byte_changed>:
    1f0a:	0f 93       	push	r16
    1f0c:	1f 93       	push	r17
    1f0e:	df 93       	push	r29
    1f10:	cf 93       	push	r28
    1f12:	0f 92       	push	r0
    1f14:	cd b7       	in	r28, 0x3d	; 61
    1f16:	de b7       	in	r29, 0x3e	; 62
    1f18:	8c 01       	movw	r16, r24
    1f1a:	69 83       	std	Y+1, r22	; 0x01
    1f1c:	0e 94 04 3c 	call	0x7808	; 0x7808 <__eerd_byte_m324pa>
    1f20:	69 81       	ldd	r22, Y+1	; 0x01
    1f22:	86 17       	cp	r24, r22
    1f24:	19 f0       	breq	.+6      	; 0x1f2c <eeprom_write_byte_changed+0x22>
    1f26:	c8 01       	movw	r24, r16
    1f28:	0e 94 0c 3c 	call	0x7818	; 0x7818 <__eewr_byte_m324pa>
    1f2c:	0f 90       	pop	r0
    1f2e:	cf 91       	pop	r28
    1f30:	df 91       	pop	r29
    1f32:	1f 91       	pop	r17
    1f34:	0f 91       	pop	r16
    1f36:	08 95       	ret

00001f38 <eeprom_write_block_changes>:
    1f38:	cf 92       	push	r12
    1f3a:	df 92       	push	r13
    1f3c:	ef 92       	push	r14
    1f3e:	ff 92       	push	r15
    1f40:	0f 93       	push	r16
    1f42:	1f 93       	push	r17
    1f44:	cf 93       	push	r28
    1f46:	df 93       	push	r29
    1f48:	ec 01       	movw	r28, r24
    1f4a:	7b 01       	movw	r14, r22
    1f4c:	6a 01       	movw	r12, r20
    1f4e:	00 e0       	ldi	r16, 0x00	; 0
    1f50:	10 e0       	ldi	r17, 0x00	; 0
    1f52:	08 c0       	rjmp	.+16     	; 0x1f64 <eeprom_write_block_changes+0x2c>
    1f54:	c7 01       	movw	r24, r14
    1f56:	80 0f       	add	r24, r16
    1f58:	91 1f       	adc	r25, r17
    1f5a:	69 91       	ld	r22, Y+
    1f5c:	0e 94 85 0f 	call	0x1f0a	; 0x1f0a <eeprom_write_byte_changed>
    1f60:	0f 5f       	subi	r16, 0xFF	; 255
    1f62:	1f 4f       	sbci	r17, 0xFF	; 255
    1f64:	0c 15       	cp	r16, r12
    1f66:	1d 05       	cpc	r17, r13
    1f68:	a8 f3       	brcs	.-22     	; 0x1f54 <eeprom_write_block_changes+0x1c>
    1f6a:	df 91       	pop	r29
    1f6c:	cf 91       	pop	r28
    1f6e:	1f 91       	pop	r17
    1f70:	0f 91       	pop	r16
    1f72:	ff 90       	pop	r15
    1f74:	ef 90       	pop	r14
    1f76:	df 90       	pop	r13
    1f78:	cf 90       	pop	r12
    1f7a:	08 95       	ret

00001f7c <Load_Config_from_EEPROM>:
    1f7c:	81 ed       	ldi	r24, 0xD1	; 209
    1f7e:	96 e0       	ldi	r25, 0x06	; 6
    1f80:	60 e0       	ldi	r22, 0x00	; 0
    1f82:	70 e0       	ldi	r23, 0x00	; 0
    1f84:	49 eb       	ldi	r20, 0xB9	; 185
    1f86:	50 e0       	ldi	r21, 0x00	; 0
    1f88:	0e 94 9c 0f 	call	0x1f38	; 0x1f38 <eeprom_write_block_changes>
    1f8c:	08 95       	ret

00001f8e <Save_Config_to_EEPROM>:
    1f8e:	f8 94       	cli
    1f90:	81 ed       	ldi	r24, 0xD1	; 209
    1f92:	96 e0       	ldi	r25, 0x06	; 6
    1f94:	60 e0       	ldi	r22, 0x00	; 0
    1f96:	70 e0       	ldi	r23, 0x00	; 0
    1f98:	49 eb       	ldi	r20, 0xB9	; 185
    1f9a:	50 e0       	ldi	r21, 0x00	; 0
    1f9c:	0e 94 9c 0f 	call	0x1f38	; 0x1f38 <eeprom_write_block_changes>
    1fa0:	78 94       	sei
    1fa2:	8c eb       	ldi	r24, 0xBC	; 188
    1fa4:	92 e0       	ldi	r25, 0x02	; 2
    1fa6:	61 e0       	ldi	r22, 0x01	; 1
    1fa8:	0e 94 90 0b 	call	0x1720	; 0x1720 <Beeper_Beep>
    1fac:	08 95       	ret

00001fae <Save_Default_Config_to_EEPROM>:
    1fae:	0e 94 7c 0f 	call	0x1ef8	; 0x1ef8 <Set_EEPROM_Default_Config>
    1fb2:	e4 e4       	ldi	r30, 0x44	; 68
    1fb4:	f7 e0       	ldi	r31, 0x07	; 7
    1fb6:	20 ef       	ldi	r18, 0xF0	; 240
    1fb8:	35 e0       	ldi	r19, 0x05	; 5
    1fba:	80 e6       	ldi	r24, 0x60	; 96
    1fbc:	94 e0       	ldi	r25, 0x04	; 4
    1fbe:	21 93       	st	Z+, r18
    1fc0:	31 93       	st	Z+, r19
    1fc2:	93 8b       	std	Z+19, r25	; 0x13
    1fc4:	82 8b       	std	Z+18, r24	; 0x12
    1fc6:	31 87       	std	Z+9, r19	; 0x09
    1fc8:	20 87       	std	Z+8, r18	; 0x08
    1fca:	95 8f       	std	Z+29, r25	; 0x1d
    1fcc:	84 8f       	std	Z+28, r24	; 0x1c
    1fce:	47 e0       	ldi	r20, 0x07	; 7
    1fd0:	ee 34       	cpi	r30, 0x4E	; 78
    1fd2:	f4 07       	cpc	r31, r20
    1fd4:	a1 f7       	brne	.-24     	; 0x1fbe <Save_Default_Config_to_EEPROM+0x10>
    1fd6:	0e 94 c7 0f 	call	0x1f8e	; 0x1f8e <Save_Config_to_EEPROM>
    1fda:	08 95       	ret

00001fdc <Initial_EEPROM_Config_Load>:
    1fdc:	80 e0       	ldi	r24, 0x00	; 0
    1fde:	90 e0       	ldi	r25, 0x00	; 0
    1fe0:	0e 94 04 3c 	call	0x7808	; 0x7808 <__eerd_byte_m324pa>
    1fe4:	8e 3f       	cpi	r24, 0xFE	; 254
    1fe6:	19 f0       	breq	.+6      	; 0x1fee <Initial_EEPROM_Config_Load+0x12>
    1fe8:	0e 94 d7 0f 	call	0x1fae	; 0x1fae <Save_Default_Config_to_EEPROM>
    1fec:	08 95       	ret
    1fee:	81 ed       	ldi	r24, 0xD1	; 209
    1ff0:	96 e0       	ldi	r25, 0x06	; 6
    1ff2:	60 e0       	ldi	r22, 0x00	; 0
    1ff4:	70 e0       	ldi	r23, 0x00	; 0
    1ff6:	49 eb       	ldi	r20, 0xB9	; 185
    1ff8:	50 e0       	ldi	r21, 0x00	; 0
    1ffa:	0e 94 f4 3b 	call	0x77e8	; 0x77e8 <__eerd_block_m324pa>
    1ffe:	08 95       	ret

00002000 <__vector_15>:
    2000:	1f 92       	push	r1
    2002:	0f 92       	push	r0
    2004:	0f b6       	in	r0, 0x3f	; 63
    2006:	0f 92       	push	r0
    2008:	11 24       	eor	r1, r1
    200a:	8f 93       	push	r24
    200c:	9f 93       	push	r25
    200e:	80 91 5e 06 	lds	r24, 0x065E
    2012:	90 91 5f 06 	lds	r25, 0x065F
    2016:	01 96       	adiw	r24, 0x01	; 1
    2018:	90 93 5f 06 	sts	0x065F, r25
    201c:	80 93 5e 06 	sts	0x065E, r24
    2020:	9f 91       	pop	r25
    2022:	8f 91       	pop	r24
    2024:	0f 90       	pop	r0
    2026:	0f be       	out	0x3f, r0	; 63
    2028:	0f 90       	pop	r0
    202a:	1f 90       	pop	r1
    202c:	18 95       	reti

0000202e <__vector_11>:
    202e:	1f 92       	push	r1
    2030:	0f 92       	push	r0
    2032:	0f b6       	in	r0, 0x3f	; 63
    2034:	0f 92       	push	r0
    2036:	11 24       	eor	r1, r1
    2038:	8f 93       	push	r24
    203a:	9f 93       	push	r25
    203c:	80 91 bd 05 	lds	r24, 0x05BD
    2040:	90 91 be 05 	lds	r25, 0x05BE
    2044:	01 96       	adiw	r24, 0x01	; 1
    2046:	90 93 be 05 	sts	0x05BE, r25
    204a:	80 93 bd 05 	sts	0x05BD, r24
    204e:	9f 91       	pop	r25
    2050:	8f 91       	pop	r24
    2052:	0f 90       	pop	r0
    2054:	0f be       	out	0x3f, r0	; 63
    2056:	0f 90       	pop	r0
    2058:	1f 90       	pop	r1
    205a:	18 95       	reti

0000205c <Timer_Init>:
    205c:	81 e0       	ldi	r24, 0x01	; 1
    205e:	80 93 81 00 	sts	0x0081, r24
    2062:	80 93 6f 00 	sts	0x006F, r24
    2066:	10 92 5f 06 	sts	0x065F, r1
    206a:	10 92 5e 06 	sts	0x065E, r1
    206e:	93 e0       	ldi	r25, 0x03	; 3
    2070:	90 93 b1 00 	sts	0x00B1, r25
    2074:	80 93 70 00 	sts	0x0070, r24
    2078:	17 ba       	out	0x17, r1	; 23
    207a:	10 92 b2 00 	sts	0x00B2, r1
    207e:	10 92 be 05 	sts	0x05BE, r1
    2082:	10 92 bd 05 	sts	0x05BD, r1
    2086:	08 95       	ret

00002088 <UART_Init>:
    2088:	20 91 d3 06 	lds	r18, 0x06D3
    208c:	2f 3f       	cpi	r18, 0xFF	; 255
    208e:	61 f4       	brne	.+24     	; 0x20a8 <UART_Init+0x20>
    2090:	10 92 1f 05 	sts	0x051F, r1
    2094:	90 93 cd 00 	sts	0x00CD, r25
    2098:	80 93 cc 00 	sts	0x00CC, r24
    209c:	86 e0       	ldi	r24, 0x06	; 6
    209e:	80 93 ca 00 	sts	0x00CA, r24
    20a2:	88 e9       	ldi	r24, 0x98	; 152
    20a4:	80 93 c9 00 	sts	0x00C9, r24
    20a8:	08 95       	ret

000020aa <send_byte>:
    20aa:	90 91 c8 00 	lds	r25, 0x00C8
    20ae:	95 ff       	sbrs	r25, 5
    20b0:	fc cf       	rjmp	.-8      	; 0x20aa <send_byte>
    20b2:	80 93 ce 00 	sts	0x00CE, r24
    20b6:	08 95       	ret

000020b8 <Send_Data>:
    20b8:	ef 92       	push	r14
    20ba:	ff 92       	push	r15
    20bc:	0f 93       	push	r16
    20be:	1f 93       	push	r17
    20c0:	cf 93       	push	r28
    20c2:	df 93       	push	r29
    20c4:	08 2f       	mov	r16, r24
    20c6:	19 2f       	mov	r17, r25
    20c8:	c0 e0       	ldi	r28, 0x00	; 0
    20ca:	d0 e0       	ldi	r29, 0x00	; 0
    20cc:	e6 2e       	mov	r14, r22
    20ce:	ff 24       	eor	r15, r15
    20d0:	06 c0       	rjmp	.+12     	; 0x20de <Send_Data+0x26>
    20d2:	f8 01       	movw	r30, r16
    20d4:	81 91       	ld	r24, Z+
    20d6:	8f 01       	movw	r16, r30
    20d8:	0e 94 55 10 	call	0x20aa	; 0x20aa <send_byte>
    20dc:	21 96       	adiw	r28, 0x01	; 1
    20de:	ce 15       	cp	r28, r14
    20e0:	df 05       	cpc	r29, r15
    20e2:	bc f3       	brlt	.-18     	; 0x20d2 <Send_Data+0x1a>
    20e4:	df 91       	pop	r29
    20e6:	cf 91       	pop	r28
    20e8:	1f 91       	pop	r17
    20ea:	0f 91       	pop	r16
    20ec:	ff 90       	pop	r15
    20ee:	ef 90       	pop	r14
    20f0:	08 95       	ret

000020f2 <ParseCommand>:
    20f2:	80 91 a2 07 	lds	r24, 0x07A2
    20f6:	81 30       	cpi	r24, 0x01	; 1
    20f8:	09 f4       	brne	.+2      	; 0x20fc <ParseCommand+0xa>
    20fa:	5c c0       	rjmp	.+184    	; 0x21b4 <ParseCommand+0xc2>
    20fc:	80 e0       	ldi	r24, 0x00	; 0
    20fe:	90 e0       	ldi	r25, 0x00	; 0
    2100:	20 e0       	ldi	r18, 0x00	; 0
    2102:	fc 01       	movw	r30, r24
    2104:	ed 54       	subi	r30, 0x4D	; 77
    2106:	f8 4f       	sbci	r31, 0xF8	; 248
    2108:	30 81       	ld	r19, Z
    210a:	23 0f       	add	r18, r19
    210c:	01 96       	adiw	r24, 0x01	; 1
    210e:	88 30       	cpi	r24, 0x08	; 8
    2110:	91 05       	cpc	r25, r1
    2112:	b9 f7       	brne	.-18     	; 0x2102 <ParseCommand+0x10>
    2114:	80 91 bb 07 	lds	r24, 0x07BB
    2118:	28 17       	cp	r18, r24
    211a:	09 f0       	breq	.+2      	; 0x211e <ParseCommand+0x2c>
    211c:	4b c0       	rjmp	.+150    	; 0x21b4 <ParseCommand+0xc2>
    211e:	80 91 b3 07 	lds	r24, 0x07B3
    2122:	83 34       	cpi	r24, 0x43	; 67
    2124:	21 f0       	breq	.+8      	; 0x212e <ParseCommand+0x3c>
    2126:	86 35       	cpi	r24, 0x56	; 86
    2128:	09 f0       	breq	.+2      	; 0x212c <ParseCommand+0x3a>
    212a:	44 c0       	rjmp	.+136    	; 0x21b4 <ParseCommand+0xc2>
    212c:	2a c0       	rjmp	.+84     	; 0x2182 <ParseCommand+0x90>
    212e:	80 91 b4 07 	lds	r24, 0x07B4
    2132:	85 30       	cpi	r24, 0x05	; 5
    2134:	81 f0       	breq	.+32     	; 0x2156 <ParseCommand+0x64>
    2136:	86 30       	cpi	r24, 0x06	; 6
    2138:	18 f4       	brcc	.+6      	; 0x2140 <ParseCommand+0x4e>
    213a:	81 30       	cpi	r24, 0x01	; 1
    213c:	d9 f5       	brne	.+118    	; 0x21b4 <ParseCommand+0xc2>
    213e:	05 c0       	rjmp	.+10     	; 0x214a <ParseCommand+0x58>
    2140:	86 30       	cpi	r24, 0x06	; 6
    2142:	c9 f0       	breq	.+50     	; 0x2176 <ParseCommand+0x84>
    2144:	87 30       	cpi	r24, 0x07	; 7
    2146:	b1 f5       	brne	.+108    	; 0x21b4 <ParseCommand+0xc2>
    2148:	19 c0       	rjmp	.+50     	; 0x217c <ParseCommand+0x8a>
    214a:	8e e1       	ldi	r24, 0x1E	; 30
    214c:	90 e0       	ldi	r25, 0x00	; 0
    214e:	64 e0       	ldi	r22, 0x04	; 4
    2150:	0e 94 92 0e 	call	0x1d24	; 0x1d24 <LED_FlashOrangeLED>
    2154:	08 95       	ret
    2156:	80 e0       	ldi	r24, 0x00	; 0
    2158:	91 e0       	ldi	r25, 0x01	; 1
    215a:	61 e0       	ldi	r22, 0x01	; 1
    215c:	0e 94 5c 10 	call	0x20b8	; 0x20b8 <Send_Data>
    2160:	81 ed       	ldi	r24, 0xD1	; 209
    2162:	96 e0       	ldi	r25, 0x06	; 6
    2164:	66 e5       	ldi	r22, 0x56	; 86
    2166:	0e 94 5c 10 	call	0x20b8	; 0x20b8 <Send_Data>
    216a:	82 e0       	ldi	r24, 0x02	; 2
    216c:	91 e0       	ldi	r25, 0x01	; 1
    216e:	61 e0       	ldi	r22, 0x01	; 1
    2170:	0e 94 5c 10 	call	0x20b8	; 0x20b8 <Send_Data>
    2174:	08 95       	ret
    2176:	0e 94 c7 0f 	call	0x1f8e	; 0x1f8e <Save_Config_to_EEPROM>
    217a:	08 95       	ret
    217c:	0e 94 40 29 	call	0x5280	; 0x5280 <Sensors_Calibrate>
    2180:	08 95       	ret
    2182:	80 91 b4 07 	lds	r24, 0x07B4
    2186:	60 91 b5 07 	lds	r22, 0x07B5
    218a:	40 91 b6 07 	lds	r20, 0x07B6
    218e:	9f ef       	ldi	r25, 0xFF	; 255
    2190:	69 9f       	mul	r22, r25
    2192:	b0 01       	movw	r22, r0
    2194:	11 24       	eor	r1, r1
    2196:	68 0f       	add	r22, r24
    2198:	71 1d       	adc	r23, r1
    219a:	6f 52       	subi	r22, 0x2F	; 47
    219c:	79 4f       	sbci	r23, 0xF9	; 249
    219e:	24 2f       	mov	r18, r20
    21a0:	33 27       	eor	r19, r19
    21a2:	27 fd       	sbrc	r18, 7
    21a4:	30 95       	com	r19
    21a6:	e7 eb       	ldi	r30, 0xB7	; 183
    21a8:	f7 e0       	ldi	r31, 0x07	; 7
    21aa:	cb 01       	movw	r24, r22
    21ac:	bf 01       	movw	r22, r30
    21ae:	53 2f       	mov	r21, r19
    21b0:	0e 94 a9 3b 	call	0x7752	; 0x7752 <memcpy>
    21b4:	08 95       	ret

000021b6 <__vector_28>:
    21b6:	1f 92       	push	r1
    21b8:	0f 92       	push	r0
    21ba:	0f b6       	in	r0, 0x3f	; 63
    21bc:	0f 92       	push	r0
    21be:	11 24       	eor	r1, r1
    21c0:	2f 93       	push	r18
    21c2:	3f 93       	push	r19
    21c4:	4f 93       	push	r20
    21c6:	5f 93       	push	r21
    21c8:	6f 93       	push	r22
    21ca:	7f 93       	push	r23
    21cc:	8f 93       	push	r24
    21ce:	9f 93       	push	r25
    21d0:	af 93       	push	r26
    21d2:	bf 93       	push	r27
    21d4:	ef 93       	push	r30
    21d6:	ff 93       	push	r31
    21d8:	80 91 c8 00 	lds	r24, 0x00C8
    21dc:	87 ff       	sbrs	r24, 7
    21de:	fc cf       	rjmp	.-8      	; 0x21d8 <__vector_28+0x22>
    21e0:	80 91 ce 00 	lds	r24, 0x00CE
    21e4:	80 93 ae 07 	sts	0x07AE, r24
    21e8:	80 91 20 05 	lds	r24, 0x0520
    21ec:	88 23       	and	r24, r24
    21ee:	99 f0       	breq	.+38     	; 0x2216 <__vector_28+0x60>
    21f0:	80 91 5e 06 	lds	r24, 0x065E
    21f4:	90 91 5f 06 	lds	r25, 0x065F
    21f8:	20 91 af 07 	lds	r18, 0x07AF
    21fc:	30 91 b0 07 	lds	r19, 0x07B0
    2200:	82 1b       	sub	r24, r18
    2202:	93 0b       	sbc	r25, r19
    2204:	85 31       	cpi	r24, 0x15	; 21
    2206:	91 05       	cpc	r25, r1
    2208:	30 f0       	brcs	.+12     	; 0x2216 <__vector_28+0x60>
    220a:	10 92 20 05 	sts	0x0520, r1
    220e:	10 92 1f 05 	sts	0x051F, r1
    2212:	10 92 a8 07 	sts	0x07A8, r1
    2216:	e0 91 1f 05 	lds	r30, 0x051F
    221a:	f0 e0       	ldi	r31, 0x00	; 0
    221c:	80 91 ae 07 	lds	r24, 0x07AE
    2220:	ed 54       	subi	r30, 0x4D	; 77
    2222:	f8 4f       	sbci	r31, 0xF8	; 248
    2224:	80 83       	st	Z, r24
    2226:	80 91 20 05 	lds	r24, 0x0520
    222a:	88 23       	and	r24, r24
    222c:	19 f0       	breq	.+6      	; 0x2234 <__vector_28+0x7e>
    222e:	81 30       	cpi	r24, 0x01	; 1
    2230:	c1 f4       	brne	.+48     	; 0x2262 <__vector_28+0xac>
    2232:	06 c0       	rjmp	.+12     	; 0x2240 <__vector_28+0x8a>
    2234:	10 92 1f 05 	sts	0x051F, r1
    2238:	81 e0       	ldi	r24, 0x01	; 1
    223a:	80 93 20 05 	sts	0x0520, r24
    223e:	07 c0       	rjmp	.+14     	; 0x224e <__vector_28+0x98>
    2240:	80 91 1f 05 	lds	r24, 0x051F
    2244:	88 30       	cpi	r24, 0x08	; 8
    2246:	19 f4       	brne	.+6      	; 0x224e <__vector_28+0x98>
    2248:	0e 94 79 10 	call	0x20f2	; 0x20f2 <ParseCommand>
    224c:	0a c0       	rjmp	.+20     	; 0x2262 <__vector_28+0xac>
    224e:	f8 94       	cli
    2250:	80 91 5e 06 	lds	r24, 0x065E
    2254:	90 91 5f 06 	lds	r25, 0x065F
    2258:	90 93 b0 07 	sts	0x07B0, r25
    225c:	80 93 af 07 	sts	0x07AF, r24
    2260:	78 94       	sei
    2262:	80 91 1f 05 	lds	r24, 0x051F
    2266:	8f 5f       	subi	r24, 0xFF	; 255
    2268:	80 93 1f 05 	sts	0x051F, r24
    226c:	80 91 1f 05 	lds	r24, 0x051F
    2270:	89 30       	cpi	r24, 0x09	; 9
    2272:	21 f4       	brne	.+8      	; 0x227c <__vector_28+0xc6>
    2274:	10 92 1f 05 	sts	0x051F, r1
    2278:	10 92 20 05 	sts	0x0520, r1
    227c:	ff 91       	pop	r31
    227e:	ef 91       	pop	r30
    2280:	bf 91       	pop	r27
    2282:	af 91       	pop	r26
    2284:	9f 91       	pop	r25
    2286:	8f 91       	pop	r24
    2288:	7f 91       	pop	r23
    228a:	6f 91       	pop	r22
    228c:	5f 91       	pop	r21
    228e:	4f 91       	pop	r20
    2290:	3f 91       	pop	r19
    2292:	2f 91       	pop	r18
    2294:	0f 90       	pop	r0
    2296:	0f be       	out	0x3f, r0	; 63
    2298:	0f 90       	pop	r0
    229a:	1f 90       	pop	r1
    229c:	18 95       	reti

0000229e <Send_Data_TEST>:
    229e:	ef 92       	push	r14
    22a0:	ff 92       	push	r15
    22a2:	0f 93       	push	r16
    22a4:	1f 93       	push	r17
    22a6:	cf 93       	push	r28
    22a8:	df 93       	push	r29
    22aa:	08 2f       	mov	r16, r24
    22ac:	19 2f       	mov	r17, r25
    22ae:	c0 e0       	ldi	r28, 0x00	; 0
    22b0:	d0 e0       	ldi	r29, 0x00	; 0
    22b2:	e6 2e       	mov	r14, r22
    22b4:	ff 24       	eor	r15, r15
    22b6:	06 c0       	rjmp	.+12     	; 0x22c4 <Send_Data_TEST+0x26>
    22b8:	f8 01       	movw	r30, r16
    22ba:	81 91       	ld	r24, Z+
    22bc:	8f 01       	movw	r16, r30
    22be:	0e 94 55 10 	call	0x20aa	; 0x20aa <send_byte>
    22c2:	21 96       	adiw	r28, 0x01	; 1
    22c4:	ce 15       	cp	r28, r14
    22c6:	df 05       	cpc	r29, r15
    22c8:	bc f3       	brlt	.-18     	; 0x22b8 <Send_Data_TEST+0x1a>
    22ca:	df 91       	pop	r29
    22cc:	cf 91       	pop	r28
    22ce:	1f 91       	pop	r17
    22d0:	0f 91       	pop	r16
    22d2:	ff 90       	pop	r15
    22d4:	ef 90       	pop	r14
    22d6:	08 95       	ret

000022d8 <_font12x16selector>:
    22d8:	90 e0       	ldi	r25, 0x00	; 0
    22da:	80 97       	sbiw	r24, 0x20	; 32
    22dc:	9c 01       	movw	r18, r24
    22de:	22 0f       	add	r18, r18
    22e0:	33 1f       	adc	r19, r19
    22e2:	28 0f       	add	r18, r24
    22e4:	39 1f       	adc	r19, r25
    22e6:	83 e0       	ldi	r24, 0x03	; 3
    22e8:	22 0f       	add	r18, r18
    22ea:	33 1f       	adc	r19, r19
    22ec:	8a 95       	dec	r24
    22ee:	e1 f7       	brne	.-8      	; 0x22e8 <_font12x16selector+0x10>
    22f0:	23 5b       	subi	r18, 0xB3	; 179
    22f2:	3e 4f       	sbci	r19, 0xFE	; 254
    22f4:	c9 01       	movw	r24, r18
    22f6:	08 95       	ret

000022f8 <_font6x8selector>:
    22f8:	90 e0       	ldi	r25, 0x00	; 0
    22fa:	80 97       	sbiw	r24, 0x20	; 32
    22fc:	9c 01       	movw	r18, r24
    22fe:	22 0f       	add	r18, r18
    2300:	33 1f       	adc	r19, r19
    2302:	28 0f       	add	r18, r24
    2304:	39 1f       	adc	r19, r25
    2306:	22 0f       	add	r18, r18
    2308:	33 1f       	adc	r19, r19
    230a:	2f 5a       	subi	r18, 0xAF	; 175
    230c:	38 4f       	sbci	r19, 0xF8	; 248
    230e:	c9 01       	movw	r24, r18
    2310:	08 95       	ret

00002312 <Setup>:
    2312:	0e 94 b3 38 	call	0x7166	; 0x7166 <Menu_EnableAllItems>
    2316:	0e 94 ee 0f 	call	0x1fdc	; 0x1fdc <Initial_EEPROM_Config_Load>
    231a:	0e 94 7a 26 	call	0x4cf4	; 0x4cf4 <RX_Init>
    231e:	80 91 d3 06 	lds	r24, 0x06D3
    2322:	8f 3f       	cpi	r24, 0xFF	; 255
    2324:	31 f4       	brne	.+12     	; 0x2332 <Setup+0x20>
    2326:	80 91 de 06 	lds	r24, 0x06DE
    232a:	80 ff       	sbrs	r24, 0
    232c:	02 c0       	rjmp	.+4      	; 0x2332 <Setup+0x20>
    232e:	0e 94 07 0f 	call	0x1e0e	; 0x1e0e <Ultrasonic_Init>
    2332:	3e 9a       	sbi	0x07, 6	; 7
    2334:	3c 9a       	sbi	0x07, 4	; 7
    2336:	3a 9a       	sbi	0x07, 2	; 7
    2338:	3b 9a       	sbi	0x07, 3	; 7
    233a:	46 98       	cbi	0x08, 6	; 8
    233c:	44 98       	cbi	0x08, 4	; 8
    233e:	42 98       	cbi	0x08, 2	; 8
    2340:	43 98       	cbi	0x08, 3	; 8
    2342:	21 9a       	sbi	0x04, 1	; 4
    2344:	23 9a       	sbi	0x04, 3	; 4
    2346:	13 98       	cbi	0x02, 3	; 2
    2348:	10 92 80 00 	sts	0x0080, r1
    234c:	10 92 81 00 	sts	0x0081, r1
    2350:	10 92 82 00 	sts	0x0082, r1
    2354:	80 91 d3 06 	lds	r24, 0x06D3
    2358:	8f 3f       	cpi	r24, 0xFF	; 255
    235a:	21 f4       	brne	.+8      	; 0x2364 <Setup+0x52>
    235c:	8a e0       	ldi	r24, 0x0A	; 10
    235e:	90 e0       	ldi	r25, 0x00	; 0
    2360:	0e 94 44 10 	call	0x2088	; 0x2088 <UART_Init>
    2364:	0e 94 d5 2a 	call	0x55aa	; 0x55aa <ADCPort_Init>
    2368:	0e 94 01 29 	call	0x5202	; 0x5202 <Sensors_Init>
    236c:	0e 94 b0 0b 	call	0x1760	; 0x1760 <KeyBoard_Init>
    2370:	0e 94 2e 10 	call	0x205c	; 0x205c <Timer_Init>
    2374:	0e 94 67 0e 	call	0x1cce	; 0x1cce <LCD_Init>
    2378:	0e 94 3f 0c 	call	0x187e	; 0x187e <LCD_Clear>
    237c:	0e 94 ab 38 	call	0x7156	; 0x7156 <Menu_MenuInit>
    2380:	78 94       	sei
    2382:	8e e1       	ldi	r24, 0x1E	; 30
    2384:	90 e0       	ldi	r25, 0x00	; 0
    2386:	0e 94 f4 0e 	call	0x1de8	; 0x1de8 <delay_ms>
    238a:	08 95       	ret

0000238c <Loop>:
    238c:	0e 94 b1 27 	call	0x4f62	; 0x4f62 <RX_CopyLatestReceiverValues>
    2390:	80 91 ea 05 	lds	r24, 0x05EA
    2394:	90 91 eb 05 	lds	r25, 0x05EB
    2398:	00 97       	sbiw	r24, 0x00	; 0
    239a:	41 f4       	brne	.+16     	; 0x23ac <Loop+0x20>
    239c:	80 91 bd 05 	lds	r24, 0x05BD
    23a0:	90 91 be 05 	lds	r25, 0x05BE
    23a4:	90 93 eb 05 	sts	0x05EB, r25
    23a8:	80 93 ea 05 	sts	0x05EA, r24
    23ac:	80 91 bd 05 	lds	r24, 0x05BD
    23b0:	90 91 be 05 	lds	r25, 0x05BE
    23b4:	20 91 ea 05 	lds	r18, 0x05EA
    23b8:	30 91 eb 05 	lds	r19, 0x05EB
    23bc:	82 1b       	sub	r24, r18
    23be:	93 0b       	sbc	r25, r19
    23c0:	8b 30       	cpi	r24, 0x0B	; 11
    23c2:	91 05       	cpc	r25, r1
    23c4:	30 f0       	brcs	.+12     	; 0x23d2 <Loop+0x46>
    23c6:	0e 94 68 38 	call	0x70d0	; 0x70d0 <Menu_MenuShow>
    23ca:	10 92 eb 05 	sts	0x05EB, r1
    23ce:	10 92 ea 05 	sts	0x05EA, r1
    23d2:	08 95       	ret

000023d4 <LoopESCCalibration>:
    23d4:	83 e0       	ldi	r24, 0x03	; 3
    23d6:	0e 94 4d 2f 	call	0x5e9a	; 0x5e9a <Menu_LoadPage>
    23da:	0e 94 c6 11 	call	0x238c	; 0x238c <Loop>
    23de:	fd cf       	rjmp	.-6      	; 0x23da <LoopESCCalibration+0x6>

000023e0 <LoopCalibration>:
    23e0:	10 92 c1 07 	sts	0x07C1, r1
    23e4:	10 92 c2 07 	sts	0x07C2, r1
    23e8:	10 92 c3 07 	sts	0x07C3, r1
    23ec:	10 92 c5 07 	sts	0x07C5, r1
    23f0:	10 92 ca 07 	sts	0x07CA, r1
    23f4:	02 c0       	rjmp	.+4      	; 0x23fa <LoopCalibration+0x1a>
    23f6:	0e 94 c6 11 	call	0x238c	; 0x238c <Loop>
    23fa:	80 91 d2 06 	lds	r24, 0x06D2
    23fe:	82 ff       	sbrs	r24, 2
    2400:	fa cf       	rjmp	.-12     	; 0x23f6 <LoopCalibration+0x16>
    2402:	81 ff       	sbrs	r24, 1
    2404:	f8 cf       	rjmp	.-16     	; 0x23f6 <LoopCalibration+0x16>
    2406:	08 95       	ret

00002408 <HandleSticksForArming>:
    2408:	80 91 e7 05 	lds	r24, 0x05E7
    240c:	88 23       	and	r24, r24
    240e:	09 f4       	brne	.+2      	; 0x2412 <HandleSticksForArming+0xa>
    2410:	6c c1       	rjmp	.+728    	; 0x26ea <HandleSticksForArming+0x2e2>
    2412:	80 91 cc 05 	lds	r24, 0x05CC
    2416:	81 30       	cpi	r24, 0x01	; 1
    2418:	09 f0       	breq	.+2      	; 0x241c <HandleSticksForArming+0x14>
    241a:	67 c1       	rjmp	.+718    	; 0x26ea <HandleSticksForArming+0x2e2>
    241c:	80 91 d5 07 	lds	r24, 0x07D5
    2420:	80 7f       	andi	r24, 0xF0	; 240
    2422:	09 f0       	breq	.+2      	; 0x2426 <HandleSticksForArming+0x1e>
    2424:	62 c1       	rjmp	.+708    	; 0x26ea <HandleSticksForArming+0x2e2>
    2426:	80 91 c5 06 	lds	r24, 0x06C5
    242a:	8e 7f       	andi	r24, 0xFE	; 254
    242c:	80 93 c5 06 	sts	0x06C5, r24
    2430:	80 91 e8 05 	lds	r24, 0x05E8
    2434:	90 91 e9 05 	lds	r25, 0x05E9
    2438:	00 97       	sbiw	r24, 0x00	; 0
    243a:	41 f4       	brne	.+16     	; 0x244c <HandleSticksForArming+0x44>
    243c:	80 91 5c 06 	lds	r24, 0x065C
    2440:	90 91 5d 06 	lds	r25, 0x065D
    2444:	90 93 e9 05 	sts	0x05E9, r25
    2448:	80 93 e8 05 	sts	0x05E8, r24
    244c:	80 91 a2 07 	lds	r24, 0x07A2
    2450:	81 30       	cpi	r24, 0x01	; 1
    2452:	09 f0       	breq	.+2      	; 0x2456 <HandleSticksForArming+0x4e>
    2454:	54 c0       	rjmp	.+168    	; 0x24fe <HandleSticksForArming+0xf6>
    2456:	20 91 cc 05 	lds	r18, 0x05CC
    245a:	82 2f       	mov	r24, r18
    245c:	90 e0       	ldi	r25, 0x00	; 0
    245e:	fc 01       	movw	r30, r24
    2460:	ee 0f       	add	r30, r30
    2462:	ff 1f       	adc	r31, r31
    2464:	43 e0       	ldi	r20, 0x03	; 3
    2466:	88 0f       	add	r24, r24
    2468:	99 1f       	adc	r25, r25
    246a:	4a 95       	dec	r20
    246c:	e1 f7       	brne	.-8      	; 0x2466 <HandleSticksForArming+0x5e>
    246e:	e8 0f       	add	r30, r24
    2470:	f9 1f       	adc	r31, r25
    2472:	ec 5f       	subi	r30, 0xFC	; 252
    2474:	f9 4f       	sbci	r31, 0xF9	; 249
    2476:	84 81       	ldd	r24, Z+4	; 0x04
    2478:	95 81       	ldd	r25, Z+5	; 0x05
    247a:	21 e0       	ldi	r18, 0x01	; 1
    247c:	81 39       	cpi	r24, 0x91	; 145
    247e:	92 07       	cpc	r25, r18
    2480:	84 f0       	brlt	.+32     	; 0x24a2 <HandleSticksForArming+0x9a>
    2482:	10 92 57 06 	sts	0x0657, r1
    2486:	80 91 5c 06 	lds	r24, 0x065C
    248a:	90 91 5d 06 	lds	r25, 0x065D
    248e:	20 91 e8 05 	lds	r18, 0x05E8
    2492:	30 91 e9 05 	lds	r19, 0x05E9
    2496:	82 1b       	sub	r24, r18
    2498:	93 0b       	sbc	r25, r19
    249a:	21 e0       	ldi	r18, 0x01	; 1
    249c:	82 33       	cpi	r24, 0x32	; 50
    249e:	92 07       	cpc	r25, r18
    24a0:	58 f5       	brcc	.+86     	; 0x24f8 <HandleSticksForArming+0xf0>
    24a2:	60 91 d6 06 	lds	r22, 0x06D6
    24a6:	66 23       	and	r22, r22
    24a8:	09 f4       	brne	.+2      	; 0x24ac <HandleSticksForArming+0xa4>
    24aa:	1f c1       	rjmp	.+574    	; 0x26ea <HandleSticksForArming+0x2e2>
    24ac:	80 91 1d 06 	lds	r24, 0x061D
    24b0:	90 91 1e 06 	lds	r25, 0x061E
    24b4:	00 97       	sbiw	r24, 0x00	; 0
    24b6:	41 f4       	brne	.+16     	; 0x24c8 <HandleSticksForArming+0xc0>
    24b8:	80 91 5c 06 	lds	r24, 0x065C
    24bc:	90 91 5d 06 	lds	r25, 0x065D
    24c0:	90 93 1e 06 	sts	0x061E, r25
    24c4:	80 93 1d 06 	sts	0x061D, r24
    24c8:	80 91 5c 06 	lds	r24, 0x065C
    24cc:	90 91 5d 06 	lds	r25, 0x065D
    24d0:	20 91 1d 06 	lds	r18, 0x061D
    24d4:	30 91 1e 06 	lds	r19, 0x061E
    24d8:	82 1b       	sub	r24, r18
    24da:	93 0b       	sbc	r25, r19
    24dc:	70 e0       	ldi	r23, 0x00	; 0
    24de:	48 ee       	ldi	r20, 0xE8	; 232
    24e0:	53 e0       	ldi	r21, 0x03	; 3
    24e2:	64 9f       	mul	r22, r20
    24e4:	90 01       	movw	r18, r0
    24e6:	65 9f       	mul	r22, r21
    24e8:	30 0d       	add	r19, r0
    24ea:	74 9f       	mul	r23, r20
    24ec:	30 0d       	add	r19, r0
    24ee:	11 24       	eor	r1, r1
    24f0:	28 17       	cp	r18, r24
    24f2:	39 07       	cpc	r19, r25
    24f4:	08 f0       	brcs	.+2      	; 0x24f8 <HandleSticksForArming+0xf0>
    24f6:	f9 c0       	rjmp	.+498    	; 0x26ea <HandleSticksForArming+0x2e2>
    24f8:	0e 94 11 0f 	call	0x1e22	; 0x1e22 <Disarm>
    24fc:	08 95       	ret
    24fe:	88 23       	and	r24, r24
    2500:	09 f0       	breq	.+2      	; 0x2504 <HandleSticksForArming+0xfc>
    2502:	f3 c0       	rjmp	.+486    	; 0x26ea <HandleSticksForArming+0x2e2>
    2504:	20 91 cc 05 	lds	r18, 0x05CC
    2508:	82 2f       	mov	r24, r18
    250a:	90 e0       	ldi	r25, 0x00	; 0
    250c:	fc 01       	movw	r30, r24
    250e:	ee 0f       	add	r30, r30
    2510:	ff 1f       	adc	r31, r31
    2512:	23 e0       	ldi	r18, 0x03	; 3
    2514:	88 0f       	add	r24, r24
    2516:	99 1f       	adc	r25, r25
    2518:	2a 95       	dec	r18
    251a:	e1 f7       	brne	.-8      	; 0x2514 <HandleSticksForArming+0x10c>
    251c:	e8 0f       	add	r30, r24
    251e:	f9 1f       	adc	r31, r25
    2520:	ec 5f       	subi	r30, 0xFC	; 252
    2522:	f9 4f       	sbci	r31, 0xF9	; 249
    2524:	84 81       	ldd	r24, Z+4	; 0x04
    2526:	95 81       	ldd	r25, Z+5	; 0x05
    2528:	2e ef       	ldi	r18, 0xFE	; 254
    252a:	80 37       	cpi	r24, 0x70	; 112
    252c:	92 07       	cpc	r25, r18
    252e:	fc f4       	brge	.+62     	; 0x256e <HandleSticksForArming+0x166>
    2530:	10 92 57 06 	sts	0x0657, r1
    2534:	80 91 5c 06 	lds	r24, 0x065C
    2538:	90 91 5d 06 	lds	r25, 0x065D
    253c:	20 91 e8 05 	lds	r18, 0x05E8
    2540:	30 91 e9 05 	lds	r19, 0x05E9
    2544:	82 1b       	sub	r24, r18
    2546:	93 0b       	sbc	r25, r19
    2548:	21 e0       	ldi	r18, 0x01	; 1
    254a:	82 33       	cpi	r24, 0x32	; 50
    254c:	92 07       	cpc	r25, r18
    254e:	78 f0       	brcs	.+30     	; 0x256e <HandleSticksForArming+0x166>
    2550:	80 91 d3 06 	lds	r24, 0x06D3
    2554:	88 23       	and	r24, r24
    2556:	41 f4       	brne	.+16     	; 0x2568 <HandleSticksForArming+0x160>
    2558:	80 91 d5 07 	lds	r24, 0x07D5
    255c:	90 e0       	ldi	r25, 0x00	; 0
    255e:	8f 70       	andi	r24, 0x0F	; 15
    2560:	90 70       	andi	r25, 0x00	; 0
    2562:	00 97       	sbiw	r24, 0x00	; 0
    2564:	09 f0       	breq	.+2      	; 0x2568 <HandleSticksForArming+0x160>
    2566:	c1 c0       	rjmp	.+386    	; 0x26ea <HandleSticksForArming+0x2e2>
    2568:	0e 94 22 0f 	call	0x1e44	; 0x1e44 <Arm>
    256c:	08 95       	ret
    256e:	20 91 cc 05 	lds	r18, 0x05CC
    2572:	82 2f       	mov	r24, r18
    2574:	90 e0       	ldi	r25, 0x00	; 0
    2576:	fc 01       	movw	r30, r24
    2578:	ee 0f       	add	r30, r30
    257a:	ff 1f       	adc	r31, r31
    257c:	a3 e0       	ldi	r26, 0x03	; 3
    257e:	88 0f       	add	r24, r24
    2580:	99 1f       	adc	r25, r25
    2582:	aa 95       	dec	r26
    2584:	e1 f7       	brne	.-8      	; 0x257e <HandleSticksForArming+0x176>
    2586:	e8 0f       	add	r30, r24
    2588:	f9 1f       	adc	r31, r25
    258a:	ec 5f       	subi	r30, 0xFC	; 252
    258c:	f9 4f       	sbci	r31, 0xF9	; 249
    258e:	80 81       	ld	r24, Z
    2590:	91 81       	ldd	r25, Z+1	; 0x01
    2592:	21 e0       	ldi	r18, 0x01	; 1
    2594:	81 39       	cpi	r24, 0x91	; 145
    2596:	92 07       	cpc	r25, r18
    2598:	ac f0       	brlt	.+42     	; 0x25c4 <HandleSticksForArming+0x1bc>
    259a:	10 92 57 06 	sts	0x0657, r1
    259e:	80 91 5c 06 	lds	r24, 0x065C
    25a2:	90 91 5d 06 	lds	r25, 0x065D
    25a6:	20 91 e8 05 	lds	r18, 0x05E8
    25aa:	30 91 e9 05 	lds	r19, 0x05E9
    25ae:	82 1b       	sub	r24, r18
    25b0:	93 0b       	sbc	r25, r19
    25b2:	21 e0       	ldi	r18, 0x01	; 1
    25b4:	82 33       	cpi	r24, 0x32	; 50
    25b6:	92 07       	cpc	r25, r18
    25b8:	08 f4       	brcc	.+2      	; 0x25bc <HandleSticksForArming+0x1b4>
    25ba:	97 c0       	rjmp	.+302    	; 0x26ea <HandleSticksForArming+0x2e2>
    25bc:	81 e0       	ldi	r24, 0x01	; 1
    25be:	80 93 da 06 	sts	0x06DA, r24
    25c2:	57 c0       	rjmp	.+174    	; 0x2672 <HandleSticksForArming+0x26a>
    25c4:	20 91 cc 05 	lds	r18, 0x05CC
    25c8:	82 2f       	mov	r24, r18
    25ca:	90 e0       	ldi	r25, 0x00	; 0
    25cc:	fc 01       	movw	r30, r24
    25ce:	ee 0f       	add	r30, r30
    25d0:	ff 1f       	adc	r31, r31
    25d2:	63 e0       	ldi	r22, 0x03	; 3
    25d4:	88 0f       	add	r24, r24
    25d6:	99 1f       	adc	r25, r25
    25d8:	6a 95       	dec	r22
    25da:	e1 f7       	brne	.-8      	; 0x25d4 <HandleSticksForArming+0x1cc>
    25dc:	e8 0f       	add	r30, r24
    25de:	f9 1f       	adc	r31, r25
    25e0:	ec 5f       	subi	r30, 0xFC	; 252
    25e2:	f9 4f       	sbci	r31, 0xF9	; 249
    25e4:	80 81       	ld	r24, Z
    25e6:	91 81       	ldd	r25, Z+1	; 0x01
    25e8:	2e ef       	ldi	r18, 0xFE	; 254
    25ea:	80 37       	cpi	r24, 0x70	; 112
    25ec:	92 07       	cpc	r25, r18
    25ee:	bc f4       	brge	.+46     	; 0x261e <HandleSticksForArming+0x216>
    25f0:	10 92 57 06 	sts	0x0657, r1
    25f4:	80 91 5c 06 	lds	r24, 0x065C
    25f8:	90 91 5d 06 	lds	r25, 0x065D
    25fc:	20 91 e8 05 	lds	r18, 0x05E8
    2600:	30 91 e9 05 	lds	r19, 0x05E9
    2604:	82 1b       	sub	r24, r18
    2606:	93 0b       	sbc	r25, r19
    2608:	21 e0       	ldi	r18, 0x01	; 1
    260a:	82 33       	cpi	r24, 0x32	; 50
    260c:	92 07       	cpc	r25, r18
    260e:	08 f4       	brcc	.+2      	; 0x2612 <HandleSticksForArming+0x20a>
    2610:	6c c0       	rjmp	.+216    	; 0x26ea <HandleSticksForArming+0x2e2>
    2612:	10 92 da 06 	sts	0x06DA, r1
    2616:	80 e5       	ldi	r24, 0x50	; 80
    2618:	90 e0       	ldi	r25, 0x00	; 0
    261a:	64 e0       	ldi	r22, 0x04	; 4
    261c:	2d c0       	rjmp	.+90     	; 0x2678 <HandleSticksForArming+0x270>
    261e:	20 91 cc 05 	lds	r18, 0x05CC
    2622:	82 2f       	mov	r24, r18
    2624:	90 e0       	ldi	r25, 0x00	; 0
    2626:	fc 01       	movw	r30, r24
    2628:	ee 0f       	add	r30, r30
    262a:	ff 1f       	adc	r31, r31
    262c:	43 e0       	ldi	r20, 0x03	; 3
    262e:	88 0f       	add	r24, r24
    2630:	99 1f       	adc	r25, r25
    2632:	4a 95       	dec	r20
    2634:	e1 f7       	brne	.-8      	; 0x262e <HandleSticksForArming+0x226>
    2636:	e8 0f       	add	r30, r24
    2638:	f9 1f       	adc	r31, r25
    263a:	ec 5f       	subi	r30, 0xFC	; 252
    263c:	f9 4f       	sbci	r31, 0xF9	; 249
    263e:	82 81       	ldd	r24, Z+2	; 0x02
    2640:	93 81       	ldd	r25, Z+3	; 0x03
    2642:	2e ef       	ldi	r18, 0xFE	; 254
    2644:	80 37       	cpi	r24, 0x70	; 112
    2646:	92 07       	cpc	r25, r18
    2648:	f4 f4       	brge	.+60     	; 0x2686 <HandleSticksForArming+0x27e>
    264a:	10 92 57 06 	sts	0x0657, r1
    264e:	80 91 5c 06 	lds	r24, 0x065C
    2652:	90 91 5d 06 	lds	r25, 0x065D
    2656:	20 91 e8 05 	lds	r18, 0x05E8
    265a:	30 91 e9 05 	lds	r19, 0x05E9
    265e:	82 1b       	sub	r24, r18
    2660:	93 0b       	sbc	r25, r19
    2662:	21 e0       	ldi	r18, 0x01	; 1
    2664:	82 33       	cpi	r24, 0x32	; 50
    2666:	92 07       	cpc	r25, r18
    2668:	08 f4       	brcc	.+2      	; 0x266c <HandleSticksForArming+0x264>
    266a:	3f c0       	rjmp	.+126    	; 0x26ea <HandleSticksForArming+0x2e2>
    266c:	82 e0       	ldi	r24, 0x02	; 2
    266e:	80 93 1c 06 	sts	0x061C, r24
    2672:	80 e5       	ldi	r24, 0x50	; 80
    2674:	90 e0       	ldi	r25, 0x00	; 0
    2676:	68 e0       	ldi	r22, 0x08	; 8
    2678:	0e 94 92 0e 	call	0x1d24	; 0x1d24 <LED_FlashOrangeLED>
    267c:	10 92 e9 05 	sts	0x05E9, r1
    2680:	10 92 e8 05 	sts	0x05E8, r1
    2684:	08 95       	ret
    2686:	20 91 cc 05 	lds	r18, 0x05CC
    268a:	82 2f       	mov	r24, r18
    268c:	90 e0       	ldi	r25, 0x00	; 0
    268e:	fc 01       	movw	r30, r24
    2690:	ee 0f       	add	r30, r30
    2692:	ff 1f       	adc	r31, r31
    2694:	23 e0       	ldi	r18, 0x03	; 3
    2696:	88 0f       	add	r24, r24
    2698:	99 1f       	adc	r25, r25
    269a:	2a 95       	dec	r18
    269c:	e1 f7       	brne	.-8      	; 0x2696 <HandleSticksForArming+0x28e>
    269e:	e8 0f       	add	r30, r24
    26a0:	f9 1f       	adc	r31, r25
    26a2:	ec 5f       	subi	r30, 0xFC	; 252
    26a4:	f9 4f       	sbci	r31, 0xF9	; 249
    26a6:	82 81       	ldd	r24, Z+2	; 0x02
    26a8:	93 81       	ldd	r25, Z+3	; 0x03
    26aa:	21 e0       	ldi	r18, 0x01	; 1
    26ac:	81 39       	cpi	r24, 0x91	; 145
    26ae:	92 07       	cpc	r25, r18
    26b0:	e4 f0       	brlt	.+56     	; 0x26ea <HandleSticksForArming+0x2e2>
    26b2:	10 92 57 06 	sts	0x0657, r1
    26b6:	80 91 5c 06 	lds	r24, 0x065C
    26ba:	90 91 5d 06 	lds	r25, 0x065D
    26be:	20 91 e8 05 	lds	r18, 0x05E8
    26c2:	30 91 e9 05 	lds	r19, 0x05E9
    26c6:	82 1b       	sub	r24, r18
    26c8:	93 0b       	sbc	r25, r19
    26ca:	21 e0       	ldi	r18, 0x01	; 1
    26cc:	82 33       	cpi	r24, 0x32	; 50
    26ce:	92 07       	cpc	r25, r18
    26d0:	60 f0       	brcs	.+24     	; 0x26ea <HandleSticksForArming+0x2e2>
    26d2:	81 e0       	ldi	r24, 0x01	; 1
    26d4:	80 93 1c 06 	sts	0x061C, r24
    26d8:	80 e5       	ldi	r24, 0x50	; 80
    26da:	90 e0       	ldi	r25, 0x00	; 0
    26dc:	64 e0       	ldi	r22, 0x04	; 4
    26de:	0e 94 92 0e 	call	0x1d24	; 0x1d24 <LED_FlashOrangeLED>
    26e2:	10 92 e9 05 	sts	0x05E9, r1
    26e6:	10 92 e8 05 	sts	0x05E8, r1
    26ea:	08 95       	ret

000026ec <HandleSticksAsKeys>:
    26ec:	80 91 e7 05 	lds	r24, 0x05E7
    26f0:	88 23       	and	r24, r24
    26f2:	09 f4       	brne	.+2      	; 0x26f6 <HandleSticksAsKeys+0xa>
    26f4:	87 c0       	rjmp	.+270    	; 0x2804 <HandleSticksAsKeys+0x118>
    26f6:	80 91 d5 07 	lds	r24, 0x07D5
    26fa:	80 7f       	andi	r24, 0xF0	; 240
    26fc:	09 f0       	breq	.+2      	; 0x2700 <HandleSticksAsKeys+0x14>
    26fe:	82 c0       	rjmp	.+260    	; 0x2804 <HandleSticksAsKeys+0x118>
    2700:	80 91 e8 05 	lds	r24, 0x05E8
    2704:	90 91 e9 05 	lds	r25, 0x05E9
    2708:	00 97       	sbiw	r24, 0x00	; 0
    270a:	41 f4       	brne	.+16     	; 0x271c <HandleSticksAsKeys+0x30>
    270c:	80 91 5c 06 	lds	r24, 0x065C
    2710:	90 91 5d 06 	lds	r25, 0x065D
    2714:	90 93 e9 05 	sts	0x05E9, r25
    2718:	80 93 e8 05 	sts	0x05E8, r24
    271c:	80 91 10 06 	lds	r24, 0x0610
    2720:	90 91 11 06 	lds	r25, 0x0611
    2724:	21 e0       	ldi	r18, 0x01	; 1
    2726:	81 39       	cpi	r24, 0x91	; 145
    2728:	92 07       	cpc	r25, r18
    272a:	8c f0       	brlt	.+34     	; 0x274e <HandleSticksAsKeys+0x62>
    272c:	10 92 57 06 	sts	0x0657, r1
    2730:	80 91 5c 06 	lds	r24, 0x065C
    2734:	90 91 5d 06 	lds	r25, 0x065D
    2738:	20 91 e8 05 	lds	r18, 0x05E8
    273c:	30 91 e9 05 	lds	r19, 0x05E9
    2740:	82 1b       	sub	r24, r18
    2742:	93 0b       	sbc	r25, r19
    2744:	81 35       	cpi	r24, 0x51	; 81
    2746:	91 05       	cpc	r25, r1
    2748:	00 f1       	brcs	.+64     	; 0x278a <HandleSticksAsKeys+0x9e>
    274a:	80 e2       	ldi	r24, 0x20	; 32
    274c:	18 c0       	rjmp	.+48     	; 0x277e <HandleSticksAsKeys+0x92>
    274e:	80 91 10 06 	lds	r24, 0x0610
    2752:	90 91 11 06 	lds	r25, 0x0611
    2756:	2e ef       	ldi	r18, 0xFE	; 254
    2758:	80 37       	cpi	r24, 0x70	; 112
    275a:	92 07       	cpc	r25, r18
    275c:	b4 f4       	brge	.+44     	; 0x278a <HandleSticksAsKeys+0x9e>
    275e:	10 92 57 06 	sts	0x0657, r1
    2762:	80 91 5c 06 	lds	r24, 0x065C
    2766:	90 91 5d 06 	lds	r25, 0x065D
    276a:	20 91 e8 05 	lds	r18, 0x05E8
    276e:	30 91 e9 05 	lds	r19, 0x05E9
    2772:	82 1b       	sub	r24, r18
    2774:	93 0b       	sbc	r25, r19
    2776:	81 35       	cpi	r24, 0x51	; 81
    2778:	91 05       	cpc	r25, r1
    277a:	38 f0       	brcs	.+14     	; 0x278a <HandleSticksAsKeys+0x9e>
    277c:	80 e4       	ldi	r24, 0x40	; 64
    277e:	80 93 c4 06 	sts	0x06C4, r24
    2782:	10 92 e9 05 	sts	0x05E9, r1
    2786:	10 92 e8 05 	sts	0x05E8, r1
    278a:	80 91 0e 06 	lds	r24, 0x060E
    278e:	90 91 0f 06 	lds	r25, 0x060F
    2792:	21 e0       	ldi	r18, 0x01	; 1
    2794:	81 39       	cpi	r24, 0x91	; 145
    2796:	92 07       	cpc	r25, r18
    2798:	bc f0       	brlt	.+46     	; 0x27c8 <HandleSticksAsKeys+0xdc>
    279a:	10 92 57 06 	sts	0x0657, r1
    279e:	80 91 5c 06 	lds	r24, 0x065C
    27a2:	90 91 5d 06 	lds	r25, 0x065D
    27a6:	20 91 e8 05 	lds	r18, 0x05E8
    27aa:	30 91 e9 05 	lds	r19, 0x05E9
    27ae:	82 1b       	sub	r24, r18
    27b0:	93 0b       	sbc	r25, r19
    27b2:	81 35       	cpi	r24, 0x51	; 81
    27b4:	91 05       	cpc	r25, r1
    27b6:	30 f1       	brcs	.+76     	; 0x2804 <HandleSticksAsKeys+0x118>
    27b8:	80 e1       	ldi	r24, 0x10	; 16
    27ba:	80 93 c4 06 	sts	0x06C4, r24
    27be:	10 92 e9 05 	sts	0x05E9, r1
    27c2:	10 92 e8 05 	sts	0x05E8, r1
    27c6:	08 95       	ret
    27c8:	80 91 0e 06 	lds	r24, 0x060E
    27cc:	90 91 0f 06 	lds	r25, 0x060F
    27d0:	2e ef       	ldi	r18, 0xFE	; 254
    27d2:	80 37       	cpi	r24, 0x70	; 112
    27d4:	92 07       	cpc	r25, r18
    27d6:	b4 f4       	brge	.+44     	; 0x2804 <HandleSticksAsKeys+0x118>
    27d8:	10 92 57 06 	sts	0x0657, r1
    27dc:	80 91 5c 06 	lds	r24, 0x065C
    27e0:	90 91 5d 06 	lds	r25, 0x065D
    27e4:	20 91 e8 05 	lds	r18, 0x05E8
    27e8:	30 91 e9 05 	lds	r19, 0x05E9
    27ec:	82 1b       	sub	r24, r18
    27ee:	93 0b       	sbc	r25, r19
    27f0:	81 35       	cpi	r24, 0x51	; 81
    27f2:	91 05       	cpc	r25, r1
    27f4:	38 f0       	brcs	.+14     	; 0x2804 <HandleSticksAsKeys+0x118>
    27f6:	80 e8       	ldi	r24, 0x80	; 128
    27f8:	80 93 c4 06 	sts	0x06C4, r24
    27fc:	10 92 e9 05 	sts	0x05E9, r1
    2800:	10 92 e8 05 	sts	0x05E8, r1
    2804:	08 95       	ret

00002806 <ZEROMotors>:
    2806:	10 92 99 05 	sts	0x0599, r1
    280a:	10 92 98 05 	sts	0x0598, r1
    280e:	10 92 9b 05 	sts	0x059B, r1
    2812:	10 92 9a 05 	sts	0x059A, r1
    2816:	10 92 9d 05 	sts	0x059D, r1
    281a:	10 92 9c 05 	sts	0x059C, r1
    281e:	80 91 d8 06 	lds	r24, 0x06D8
    2822:	82 30       	cpi	r24, 0x02	; 2
    2824:	39 f4       	brne	.+14     	; 0x2834 <ZEROMotors+0x2e>
    2826:	86 e2       	ldi	r24, 0x26	; 38
    2828:	92 e0       	ldi	r25, 0x02	; 2
    282a:	90 93 9f 05 	sts	0x059F, r25
    282e:	80 93 9e 05 	sts	0x059E, r24
    2832:	04 c0       	rjmp	.+8      	; 0x283c <ZEROMotors+0x36>
    2834:	10 92 9f 05 	sts	0x059F, r1
    2838:	10 92 9e 05 	sts	0x059E, r1
    283c:	0e 94 03 25 	call	0x4a06	; 0x4a06 <Motor_GenerateOutputSignal>
    2840:	08 95       	ret

00002842 <MainLoop>:
    2842:	8f 92       	push	r8
    2844:	9f 92       	push	r9
    2846:	af 92       	push	r10
    2848:	bf 92       	push	r11
    284a:	cf 92       	push	r12
    284c:	df 92       	push	r13
    284e:	ef 92       	push	r14
    2850:	ff 92       	push	r15
    2852:	0f 93       	push	r16
    2854:	1f 93       	push	r17
    2856:	cf 93       	push	r28
    2858:	df 93       	push	r29
    285a:	0e 94 b1 27 	call	0x4f62	; 0x4f62 <RX_CopyLatestReceiverValues>
    285e:	20 91 cc 05 	lds	r18, 0x05CC
    2862:	82 2f       	mov	r24, r18
    2864:	90 e0       	ldi	r25, 0x00	; 0
    2866:	fc 01       	movw	r30, r24
    2868:	ee 0f       	add	r30, r30
    286a:	ff 1f       	adc	r31, r31
    286c:	23 e0       	ldi	r18, 0x03	; 3
    286e:	88 0f       	add	r24, r24
    2870:	99 1f       	adc	r25, r25
    2872:	2a 95       	dec	r18
    2874:	e1 f7       	brne	.-8      	; 0x286e <MainLoop+0x2c>
    2876:	e8 0f       	add	r30, r24
    2878:	f9 1f       	adc	r31, r25
    287a:	ec 5f       	subi	r30, 0xFC	; 252
    287c:	f9 4f       	sbci	r31, 0xF9	; 249
    287e:	86 81       	ldd	r24, Z+6	; 0x06
    2880:	97 81       	ldd	r25, Z+7	; 0x07
    2882:	90 93 c7 05 	sts	0x05C7, r25
    2886:	80 93 c6 05 	sts	0x05C6, r24
    288a:	0e 94 21 2a 	call	0x5442	; 0x5442 <Sensors_ReadAll>
    288e:	f8 94       	cli
    2890:	80 91 5e 06 	lds	r24, 0x065E
    2894:	90 91 5f 06 	lds	r25, 0x065F
    2898:	90 93 5d 06 	sts	0x065D, r25
    289c:	80 93 5c 06 	sts	0x065C, r24
    28a0:	78 94       	sei
    28a2:	0e 94 48 1b 	call	0x3690	; 0x3690 <IMU>
    28a6:	21 e0       	ldi	r18, 0x01	; 1
    28a8:	20 93 57 06 	sts	0x0657, r18
    28ac:	80 91 d3 06 	lds	r24, 0x06D3
    28b0:	88 23       	and	r24, r24
    28b2:	89 f4       	brne	.+34     	; 0x28d6 <MainLoop+0x94>
    28b4:	80 91 d5 07 	lds	r24, 0x07D5
    28b8:	80 7f       	andi	r24, 0xF0	; 240
    28ba:	69 f4       	brne	.+26     	; 0x28d6 <MainLoop+0x94>
    28bc:	80 91 16 06 	lds	r24, 0x0616
    28c0:	90 91 17 06 	lds	r25, 0x0617
    28c4:	3e ef       	ldi	r19, 0xFE	; 254
    28c6:	80 37       	cpi	r24, 0x70	; 112
    28c8:	93 07       	cpc	r25, r19
    28ca:	1c f4       	brge	.+6      	; 0x28d2 <MainLoop+0x90>
    28cc:	10 92 cc 05 	sts	0x05CC, r1
    28d0:	02 c0       	rjmp	.+4      	; 0x28d6 <MainLoop+0x94>
    28d2:	20 93 cc 05 	sts	0x05CC, r18
    28d6:	80 91 ea 05 	lds	r24, 0x05EA
    28da:	90 91 eb 05 	lds	r25, 0x05EB
    28de:	20 91 5c 06 	lds	r18, 0x065C
    28e2:	30 91 5d 06 	lds	r19, 0x065D
    28e6:	00 97       	sbiw	r24, 0x00	; 0
    28e8:	29 f4       	brne	.+10     	; 0x28f4 <MainLoop+0xb2>
    28ea:	30 93 eb 05 	sts	0x05EB, r19
    28ee:	20 93 ea 05 	sts	0x05EA, r18
    28f2:	6a c0       	rjmp	.+212    	; 0x29c8 <MainLoop+0x186>
    28f4:	28 1b       	sub	r18, r24
    28f6:	39 0b       	sbc	r19, r25
    28f8:	25 30       	cpi	r18, 0x05	; 5
    28fa:	31 05       	cpc	r19, r1
    28fc:	08 f4       	brcc	.+2      	; 0x2900 <MainLoop+0xbe>
    28fe:	64 c0       	rjmp	.+200    	; 0x29c8 <MainLoop+0x186>
    2900:	0e 94 68 38 	call	0x70d0	; 0x70d0 <Menu_MenuShow>
    2904:	80 91 41 07 	lds	r24, 0x0741
    2908:	88 23       	and	r24, r24
    290a:	79 f0       	breq	.+30     	; 0x292a <MainLoop+0xe8>
    290c:	20 91 49 06 	lds	r18, 0x0649
    2910:	30 91 4a 06 	lds	r19, 0x064A
    2914:	90 e0       	ldi	r25, 0x00	; 0
    2916:	40 91 c5 06 	lds	r20, 0x06C5
    291a:	28 17       	cp	r18, r24
    291c:	39 07       	cpc	r19, r25
    291e:	14 f4       	brge	.+4      	; 0x2924 <MainLoop+0xe2>
    2920:	42 60       	ori	r20, 0x02	; 2
    2922:	01 c0       	rjmp	.+2      	; 0x2926 <MainLoop+0xe4>
    2924:	4d 7f       	andi	r20, 0xFD	; 253
    2926:	40 93 c5 06 	sts	0x06C5, r20
    292a:	80 91 c5 06 	lds	r24, 0x06C5
    292e:	88 23       	and	r24, r24
    2930:	51 f0       	breq	.+20     	; 0x2946 <MainLoop+0x104>
    2932:	85 b1       	in	r24, 0x05	; 5
    2934:	86 95       	lsr	r24
    2936:	80 95       	com	r24
    2938:	81 70       	andi	r24, 0x01	; 1
    293a:	88 0f       	add	r24, r24
    293c:	95 b1       	in	r25, 0x05	; 5
    293e:	9d 7f       	andi	r25, 0xFD	; 253
    2940:	98 2b       	or	r25, r24
    2942:	95 b9       	out	0x05, r25	; 5
    2944:	01 c0       	rjmp	.+2      	; 0x2948 <MainLoop+0x106>
    2946:	29 98       	cbi	0x05, 1	; 5
    2948:	80 91 d3 06 	lds	r24, 0x06D3
    294c:	8f 3f       	cpi	r24, 0xFF	; 255
    294e:	c1 f5       	brne	.+112    	; 0x29c0 <MainLoop+0x17e>
    2950:	20 91 21 05 	lds	r18, 0x0521
    2954:	22 23       	and	r18, r18
    2956:	81 f0       	breq	.+32     	; 0x2978 <MainLoop+0x136>
    2958:	80 91 16 06 	lds	r24, 0x0616
    295c:	90 91 17 06 	lds	r25, 0x0617
    2960:	4e ef       	ldi	r20, 0xFE	; 254
    2962:	80 37       	cpi	r24, 0x70	; 112
    2964:	94 07       	cpc	r25, r20
    2966:	34 f4       	brge	.+12     	; 0x2974 <MainLoop+0x132>
    2968:	84 e0       	ldi	r24, 0x04	; 4
    296a:	80 93 1c 06 	sts	0x061C, r24
    296e:	10 92 21 05 	sts	0x0521, r1
    2972:	26 c0       	rjmp	.+76     	; 0x29c0 <MainLoop+0x17e>
    2974:	21 30       	cpi	r18, 0x01	; 1
    2976:	71 f0       	breq	.+28     	; 0x2994 <MainLoop+0x152>
    2978:	80 91 16 06 	lds	r24, 0x0616
    297c:	90 91 17 06 	lds	r25, 0x0617
    2980:	51 e0       	ldi	r21, 0x01	; 1
    2982:	81 39       	cpi	r24, 0x91	; 145
    2984:	95 07       	cpc	r25, r21
    2986:	24 f0       	brlt	.+8      	; 0x2990 <MainLoop+0x14e>
    2988:	81 e0       	ldi	r24, 0x01	; 1
    298a:	80 93 1c 06 	sts	0x061C, r24
    298e:	16 c0       	rjmp	.+44     	; 0x29bc <MainLoop+0x17a>
    2990:	2b 30       	cpi	r18, 0x0B	; 11
    2992:	b1 f0       	breq	.+44     	; 0x29c0 <MainLoop+0x17e>
    2994:	80 91 16 06 	lds	r24, 0x0616
    2998:	90 91 17 06 	lds	r25, 0x0617
    299c:	21 e0       	ldi	r18, 0x01	; 1
    299e:	80 39       	cpi	r24, 0x90	; 144
    29a0:	92 07       	cpc	r25, r18
    29a2:	74 f4       	brge	.+28     	; 0x29c0 <MainLoop+0x17e>
    29a4:	80 91 16 06 	lds	r24, 0x0616
    29a8:	90 91 17 06 	lds	r25, 0x0617
    29ac:	3e ef       	ldi	r19, 0xFE	; 254
    29ae:	81 37       	cpi	r24, 0x71	; 113
    29b0:	93 07       	cpc	r25, r19
    29b2:	34 f0       	brlt	.+12     	; 0x29c0 <MainLoop+0x17e>
    29b4:	82 e0       	ldi	r24, 0x02	; 2
    29b6:	80 93 1c 06 	sts	0x061C, r24
    29ba:	8b e0       	ldi	r24, 0x0B	; 11
    29bc:	80 93 21 05 	sts	0x0521, r24
    29c0:	10 92 eb 05 	sts	0x05EB, r1
    29c4:	10 92 ea 05 	sts	0x05EA, r1
    29c8:	c0 91 c6 05 	lds	r28, 0x05C6
    29cc:	d0 91 c7 05 	lds	r29, 0x05C7
    29d0:	c2 33       	cpi	r28, 0x32	; 50
    29d2:	d1 05       	cpc	r29, r1
    29d4:	4c f4       	brge	.+18     	; 0x29e8 <MainLoop+0x1a6>
    29d6:	0e 94 04 12 	call	0x2408	; 0x2408 <HandleSticksForArming>
    29da:	0e 94 03 14 	call	0x2806	; 0x2806 <ZEROMotors>
    29de:	0e 94 f8 1a 	call	0x35f0	; 0x35f0 <ZERO_Is>
    29e2:	0e 94 34 1b 	call	0x3668	; 0x3668 <IMU_Reset>
    29e6:	6b c3       	rjmp	.+1750   	; 0x30be <MainLoop+0x87c>
    29e8:	80 91 a2 07 	lds	r24, 0x07A2
    29ec:	88 23       	and	r24, r24
    29ee:	29 f4       	brne	.+10     	; 0x29fa <MainLoop+0x1b8>
    29f0:	0e 94 03 14 	call	0x2806	; 0x2806 <ZEROMotors>
    29f4:	0e 94 76 13 	call	0x26ec	; 0x26ec <HandleSticksAsKeys>
    29f8:	62 c3       	rjmp	.+1732   	; 0x30be <MainLoop+0x87c>
    29fa:	10 92 1e 06 	sts	0x061E, r1
    29fe:	10 92 1d 06 	sts	0x061D, r1
    2a02:	20 91 cc 05 	lds	r18, 0x05CC
    2a06:	82 2f       	mov	r24, r18
    2a08:	90 e0       	ldi	r25, 0x00	; 0
    2a0a:	fc 01       	movw	r30, r24
    2a0c:	ee 0f       	add	r30, r30
    2a0e:	ff 1f       	adc	r31, r31
    2a10:	13 e0       	ldi	r17, 0x03	; 3
    2a12:	88 0f       	add	r24, r24
    2a14:	99 1f       	adc	r25, r25
    2a16:	1a 95       	dec	r17
    2a18:	e1 f7       	brne	.-8      	; 0x2a12 <MainLoop+0x1d0>
    2a1a:	e8 0f       	add	r30, r24
    2a1c:	f9 1f       	adc	r31, r25
    2a1e:	ec 5f       	subi	r30, 0xFC	; 252
    2a20:	f9 4f       	sbci	r31, 0xF9	; 249
    2a22:	80 81       	ld	r24, Z
    2a24:	91 81       	ldd	r25, Z+1	; 0x01
    2a26:	e0 90 dd 06 	lds	r14, 0x06DD
    2a2a:	ff 24       	eor	r15, r15
    2a2c:	e8 9e       	mul	r14, r24
    2a2e:	b0 01       	movw	r22, r0
    2a30:	e9 9e       	mul	r14, r25
    2a32:	70 0d       	add	r23, r0
    2a34:	f8 9e       	mul	r15, r24
    2a36:	70 0d       	add	r23, r0
    2a38:	11 24       	eor	r1, r1
    2a3a:	88 27       	eor	r24, r24
    2a3c:	77 fd       	sbrc	r23, 7
    2a3e:	80 95       	com	r24
    2a40:	98 2f       	mov	r25, r24
    2a42:	0e 94 c2 39 	call	0x7384	; 0x7384 <__floatsisf>
    2a46:	2d ec       	ldi	r18, 0xCD	; 205
    2a48:	3c ec       	ldi	r19, 0xCC	; 204
    2a4a:	4c e4       	ldi	r20, 0x4C	; 76
    2a4c:	5d e3       	ldi	r21, 0x3D	; 61
    2a4e:	0e 94 76 3a 	call	0x74ec	; 0x74ec <__mulsf3>
    2a52:	0e 94 8f 39 	call	0x731e	; 0x731e <__fixsfsi>
    2a56:	70 93 c1 05 	sts	0x05C1, r23
    2a5a:	60 93 c0 05 	sts	0x05C0, r22
    2a5e:	20 91 cc 05 	lds	r18, 0x05CC
    2a62:	82 2f       	mov	r24, r18
    2a64:	90 e0       	ldi	r25, 0x00	; 0
    2a66:	fc 01       	movw	r30, r24
    2a68:	ee 0f       	add	r30, r30
    2a6a:	ff 1f       	adc	r31, r31
    2a6c:	a3 e0       	ldi	r26, 0x03	; 3
    2a6e:	88 0f       	add	r24, r24
    2a70:	99 1f       	adc	r25, r25
    2a72:	aa 95       	dec	r26
    2a74:	e1 f7       	brne	.-8      	; 0x2a6e <MainLoop+0x22c>
    2a76:	e8 0f       	add	r30, r24
    2a78:	f9 1f       	adc	r31, r25
    2a7a:	ec 5f       	subi	r30, 0xFC	; 252
    2a7c:	f9 4f       	sbci	r31, 0xF9	; 249
    2a7e:	82 81       	ldd	r24, Z+2	; 0x02
    2a80:	93 81       	ldd	r25, Z+3	; 0x03
    2a82:	e8 9e       	mul	r14, r24
    2a84:	b0 01       	movw	r22, r0
    2a86:	e9 9e       	mul	r14, r25
    2a88:	70 0d       	add	r23, r0
    2a8a:	f8 9e       	mul	r15, r24
    2a8c:	70 0d       	add	r23, r0
    2a8e:	11 24       	eor	r1, r1
    2a90:	88 27       	eor	r24, r24
    2a92:	77 fd       	sbrc	r23, 7
    2a94:	80 95       	com	r24
    2a96:	98 2f       	mov	r25, r24
    2a98:	0e 94 c2 39 	call	0x7384	; 0x7384 <__floatsisf>
    2a9c:	2d ec       	ldi	r18, 0xCD	; 205
    2a9e:	3c ec       	ldi	r19, 0xCC	; 204
    2aa0:	4c e4       	ldi	r20, 0x4C	; 76
    2aa2:	5d e3       	ldi	r21, 0x3D	; 61
    2aa4:	0e 94 76 3a 	call	0x74ec	; 0x74ec <__mulsf3>
    2aa8:	0e 94 8f 39 	call	0x731e	; 0x731e <__fixsfsi>
    2aac:	70 93 c3 05 	sts	0x05C3, r23
    2ab0:	60 93 c2 05 	sts	0x05C2, r22
    2ab4:	20 91 cc 05 	lds	r18, 0x05CC
    2ab8:	82 2f       	mov	r24, r18
    2aba:	90 e0       	ldi	r25, 0x00	; 0
    2abc:	fc 01       	movw	r30, r24
    2abe:	ee 0f       	add	r30, r30
    2ac0:	ff 1f       	adc	r31, r31
    2ac2:	63 e0       	ldi	r22, 0x03	; 3
    2ac4:	88 0f       	add	r24, r24
    2ac6:	99 1f       	adc	r25, r25
    2ac8:	6a 95       	dec	r22
    2aca:	e1 f7       	brne	.-8      	; 0x2ac4 <MainLoop+0x282>
    2acc:	e8 0f       	add	r30, r24
    2ace:	f9 1f       	adc	r31, r25
    2ad0:	ec 5f       	subi	r30, 0xFC	; 252
    2ad2:	f9 4f       	sbci	r31, 0xF9	; 249
    2ad4:	84 81       	ldd	r24, Z+4	; 0x04
    2ad6:	95 81       	ldd	r25, Z+5	; 0x05
    2ad8:	e8 9e       	mul	r14, r24
    2ada:	b0 01       	movw	r22, r0
    2adc:	e9 9e       	mul	r14, r25
    2ade:	70 0d       	add	r23, r0
    2ae0:	f8 9e       	mul	r15, r24
    2ae2:	70 0d       	add	r23, r0
    2ae4:	11 24       	eor	r1, r1
    2ae6:	88 27       	eor	r24, r24
    2ae8:	77 fd       	sbrc	r23, 7
    2aea:	80 95       	com	r24
    2aec:	98 2f       	mov	r25, r24
    2aee:	0e 94 c2 39 	call	0x7384	; 0x7384 <__floatsisf>
    2af2:	2d ec       	ldi	r18, 0xCD	; 205
    2af4:	3c ec       	ldi	r19, 0xCC	; 204
    2af6:	4c e4       	ldi	r20, 0x4C	; 76
    2af8:	5d e3       	ldi	r21, 0x3D	; 61
    2afa:	0e 94 76 3a 	call	0x74ec	; 0x74ec <__mulsf3>
    2afe:	0e 94 8f 39 	call	0x731e	; 0x731e <__fixsfsi>
    2b02:	70 93 c5 05 	sts	0x05C5, r23
    2b06:	60 93 c4 05 	sts	0x05C4, r22
    2b0a:	80 91 d8 06 	lds	r24, 0x06D8
    2b0e:	81 30       	cpi	r24, 0x01	; 1
    2b10:	71 f4       	brne	.+28     	; 0x2b2e <MainLoop+0x2ec>
    2b12:	40 91 d9 06 	lds	r20, 0x06D9
    2b16:	80 91 37 06 	lds	r24, 0x0637
    2b1a:	90 91 38 06 	lds	r25, 0x0638
    2b1e:	20 91 b8 05 	lds	r18, 0x05B8
    2b22:	30 91 b9 05 	lds	r19, 0x05B9
    2b26:	41 30       	cpi	r20, 0x01	; 1
    2b28:	09 f0       	breq	.+2      	; 0x2b2c <MainLoop+0x2ea>
    2b2a:	57 c0       	rjmp	.+174    	; 0x2bda <MainLoop+0x398>
    2b2c:	34 c0       	rjmp	.+104    	; 0x2b96 <MainLoop+0x354>
    2b2e:	60 91 37 06 	lds	r22, 0x0637
    2b32:	70 91 38 06 	lds	r23, 0x0638
    2b36:	cb 01       	movw	r24, r22
    2b38:	8c 0f       	add	r24, r28
    2b3a:	9d 1f       	adc	r25, r29
    2b3c:	90 93 9d 05 	sts	0x059D, r25
    2b40:	80 93 9c 05 	sts	0x059C, r24
    2b44:	88 27       	eor	r24, r24
    2b46:	77 fd       	sbrc	r23, 7
    2b48:	80 95       	com	r24
    2b4a:	98 2f       	mov	r25, r24
    2b4c:	0e 94 c2 39 	call	0x7384	; 0x7384 <__floatsisf>
    2b50:	20 e0       	ldi	r18, 0x00	; 0
    2b52:	30 e0       	ldi	r19, 0x00	; 0
    2b54:	40 e0       	ldi	r20, 0x00	; 0
    2b56:	5f e3       	ldi	r21, 0x3F	; 63
    2b58:	0e 94 76 3a 	call	0x74ec	; 0x74ec <__mulsf3>
    2b5c:	0e 94 8f 39 	call	0x731e	; 0x731e <__fixsfsi>
    2b60:	9b 01       	movw	r18, r22
    2b62:	70 93 38 06 	sts	0x0638, r23
    2b66:	60 93 37 06 	sts	0x0637, r22
    2b6a:	40 91 b8 05 	lds	r20, 0x05B8
    2b6e:	50 91 b9 05 	lds	r21, 0x05B9
    2b72:	ce 01       	movw	r24, r28
    2b74:	82 1b       	sub	r24, r18
    2b76:	93 0b       	sbc	r25, r19
    2b78:	84 1b       	sub	r24, r20
    2b7a:	95 0b       	sbc	r25, r21
    2b7c:	90 93 99 05 	sts	0x0599, r25
    2b80:	80 93 98 05 	sts	0x0598, r24
    2b84:	c4 0f       	add	r28, r20
    2b86:	d5 1f       	adc	r29, r21
    2b88:	c2 1b       	sub	r28, r18
    2b8a:	d3 0b       	sbc	r29, r19
    2b8c:	d0 93 9b 05 	sts	0x059B, r29
    2b90:	c0 93 9a 05 	sts	0x059A, r28
    2b94:	3d c0       	rjmp	.+122    	; 0x2c10 <MainLoop+0x3ce>
    2b96:	b9 01       	movw	r22, r18
    2b98:	6c 0f       	add	r22, r28
    2b9a:	7d 1f       	adc	r23, r29
    2b9c:	ae 01       	movw	r20, r28
    2b9e:	42 1b       	sub	r20, r18
    2ba0:	53 0b       	sbc	r21, r19
    2ba2:	48 1b       	sub	r20, r24
    2ba4:	59 0b       	sbc	r21, r25
    2ba6:	50 93 99 05 	sts	0x0599, r21
    2baa:	40 93 98 05 	sts	0x0598, r20
    2bae:	ab 01       	movw	r20, r22
    2bb0:	48 1b       	sub	r20, r24
    2bb2:	59 0b       	sbc	r21, r25
    2bb4:	50 93 9b 05 	sts	0x059B, r21
    2bb8:	40 93 9a 05 	sts	0x059A, r20
    2bbc:	68 0f       	add	r22, r24
    2bbe:	79 1f       	adc	r23, r25
    2bc0:	70 93 9d 05 	sts	0x059D, r23
    2bc4:	60 93 9c 05 	sts	0x059C, r22
    2bc8:	c8 0f       	add	r28, r24
    2bca:	d9 1f       	adc	r29, r25
    2bcc:	c2 1b       	sub	r28, r18
    2bce:	d3 0b       	sbc	r29, r19
    2bd0:	d0 93 9f 05 	sts	0x059F, r29
    2bd4:	c0 93 9e 05 	sts	0x059E, r28
    2bd8:	1b c0       	rjmp	.+54     	; 0x2c10 <MainLoop+0x3ce>
    2bda:	a9 01       	movw	r20, r18
    2bdc:	4c 0f       	add	r20, r28
    2bde:	5d 1f       	adc	r21, r29
    2be0:	50 93 9b 05 	sts	0x059B, r21
    2be4:	40 93 9a 05 	sts	0x059A, r20
    2be8:	ae 01       	movw	r20, r28
    2bea:	42 1b       	sub	r20, r18
    2bec:	53 0b       	sbc	r21, r19
    2bee:	50 93 9f 05 	sts	0x059F, r21
    2bf2:	40 93 9e 05 	sts	0x059E, r20
    2bf6:	9e 01       	movw	r18, r28
    2bf8:	28 1b       	sub	r18, r24
    2bfa:	39 0b       	sbc	r19, r25
    2bfc:	30 93 99 05 	sts	0x0599, r19
    2c00:	20 93 98 05 	sts	0x0598, r18
    2c04:	c8 0f       	add	r28, r24
    2c06:	d9 1f       	adc	r29, r25
    2c08:	d0 93 9d 05 	sts	0x059D, r29
    2c0c:	c0 93 9c 05 	sts	0x059C, r28
    2c10:	80 91 1c 06 	lds	r24, 0x061C
    2c14:	81 30       	cpi	r24, 0x01	; 1
    2c16:	09 f0       	breq	.+2      	; 0x2c1a <MainLoop+0x3d8>
    2c18:	2e c1       	rjmp	.+604    	; 0x2e76 <MainLoop+0x634>
    2c1a:	90 91 d8 06 	lds	r25, 0x06D8
    2c1e:	80 91 da 06 	lds	r24, 0x06DA
    2c22:	91 30       	cpi	r25, 0x01	; 1
    2c24:	09 f0       	breq	.+2      	; 0x2c28 <MainLoop+0x3e6>
    2c26:	a3 c0       	rjmp	.+326    	; 0x2d6e <MainLoop+0x52c>
    2c28:	60 91 c0 05 	lds	r22, 0x05C0
    2c2c:	70 91 c1 05 	lds	r23, 0x05C1
    2c30:	e0 90 c2 05 	lds	r14, 0x05C2
    2c34:	f0 90 c3 05 	lds	r15, 0x05C3
    2c38:	80 90 9e 05 	lds	r8, 0x059E
    2c3c:	90 90 9f 05 	lds	r9, 0x059F
    2c40:	a0 90 9a 05 	lds	r10, 0x059A
    2c44:	b0 90 9b 05 	lds	r11, 0x059B
    2c48:	c0 90 9c 05 	lds	r12, 0x059C
    2c4c:	d0 90 9d 05 	lds	r13, 0x059D
    2c50:	00 91 98 05 	lds	r16, 0x0598
    2c54:	10 91 99 05 	lds	r17, 0x0599
    2c58:	81 30       	cpi	r24, 0x01	; 1
    2c5a:	09 f0       	breq	.+2      	; 0x2c5e <MainLoop+0x41c>
    2c5c:	49 c0       	rjmp	.+146    	; 0x2cf0 <MainLoop+0x4ae>
    2c5e:	88 27       	eor	r24, r24
    2c60:	77 fd       	sbrc	r23, 7
    2c62:	80 95       	com	r24
    2c64:	98 2f       	mov	r25, r24
    2c66:	0e 94 c2 39 	call	0x7384	; 0x7384 <__floatsisf>
    2c6a:	2e ea       	ldi	r18, 0xAE	; 174
    2c6c:	37 e4       	ldi	r19, 0x47	; 71
    2c6e:	41 e2       	ldi	r20, 0x21	; 33
    2c70:	5f e3       	ldi	r21, 0x3F	; 63
    2c72:	0e 94 76 3a 	call	0x74ec	; 0x74ec <__mulsf3>
    2c76:	0e 94 8f 39 	call	0x731e	; 0x731e <__fixsfsi>
    2c7a:	eb 01       	movw	r28, r22
    2c7c:	70 93 c1 05 	sts	0x05C1, r23
    2c80:	60 93 c0 05 	sts	0x05C0, r22
    2c84:	b7 01       	movw	r22, r14
    2c86:	88 27       	eor	r24, r24
    2c88:	77 fd       	sbrc	r23, 7
    2c8a:	80 95       	com	r24
    2c8c:	98 2f       	mov	r25, r24
    2c8e:	0e 94 c2 39 	call	0x7384	; 0x7384 <__floatsisf>
    2c92:	2e ea       	ldi	r18, 0xAE	; 174
    2c94:	37 e4       	ldi	r19, 0x47	; 71
    2c96:	41 e2       	ldi	r20, 0x21	; 33
    2c98:	5f e3       	ldi	r21, 0x3F	; 63
    2c9a:	0e 94 76 3a 	call	0x74ec	; 0x74ec <__mulsf3>
    2c9e:	0e 94 8f 39 	call	0x731e	; 0x731e <__fixsfsi>
    2ca2:	9b 01       	movw	r18, r22
    2ca4:	70 93 c3 05 	sts	0x05C3, r23
    2ca8:	60 93 c2 05 	sts	0x05C2, r22
    2cac:	8c 0e       	add	r8, r28
    2cae:	9d 1e       	adc	r9, r29
    2cb0:	cc 1a       	sub	r12, r28
    2cb2:	dd 0a       	sbc	r13, r29
    2cb4:	ce 01       	movw	r24, r28
    2cb6:	82 0f       	add	r24, r18
    2cb8:	93 1f       	adc	r25, r19
    2cba:	80 0f       	add	r24, r16
    2cbc:	91 1f       	adc	r25, r17
    2cbe:	90 93 99 05 	sts	0x0599, r25
    2cc2:	80 93 98 05 	sts	0x0598, r24
    2cc6:	a2 0e       	add	r10, r18
    2cc8:	b3 1e       	adc	r11, r19
    2cca:	ac 1a       	sub	r10, r28
    2ccc:	bd 0a       	sbc	r11, r29
    2cce:	b0 92 9b 05 	sts	0x059B, r11
    2cd2:	a0 92 9a 05 	sts	0x059A, r10
    2cd6:	c2 1a       	sub	r12, r18
    2cd8:	d3 0a       	sbc	r13, r19
    2cda:	d0 92 9d 05 	sts	0x059D, r13
    2cde:	c0 92 9c 05 	sts	0x059C, r12
    2ce2:	82 1a       	sub	r8, r18
    2ce4:	93 0a       	sbc	r9, r19
    2ce6:	90 92 9f 05 	sts	0x059F, r9
    2cea:	80 92 9e 05 	sts	0x059E, r8
    2cee:	2e c1       	rjmp	.+604    	; 0x2f4c <MainLoop+0x70a>
    2cf0:	88 27       	eor	r24, r24
    2cf2:	77 fd       	sbrc	r23, 7
    2cf4:	80 95       	com	r24
    2cf6:	98 2f       	mov	r25, r24
    2cf8:	0e 94 c2 39 	call	0x7384	; 0x7384 <__floatsisf>
    2cfc:	26 e6       	ldi	r18, 0x66	; 102
    2cfe:	36 e6       	ldi	r19, 0x66	; 102
    2d00:	46 e6       	ldi	r20, 0x66	; 102
    2d02:	5f e3       	ldi	r21, 0x3F	; 63
    2d04:	0e 94 76 3a 	call	0x74ec	; 0x74ec <__mulsf3>
    2d08:	0e 94 8f 39 	call	0x731e	; 0x731e <__fixsfsi>
    2d0c:	eb 01       	movw	r28, r22
    2d0e:	70 93 c1 05 	sts	0x05C1, r23
    2d12:	60 93 c0 05 	sts	0x05C0, r22
    2d16:	b7 01       	movw	r22, r14
    2d18:	88 27       	eor	r24, r24
    2d1a:	77 fd       	sbrc	r23, 7
    2d1c:	80 95       	com	r24
    2d1e:	98 2f       	mov	r25, r24
    2d20:	0e 94 c2 39 	call	0x7384	; 0x7384 <__floatsisf>
    2d24:	26 e6       	ldi	r18, 0x66	; 102
    2d26:	36 e6       	ldi	r19, 0x66	; 102
    2d28:	46 e6       	ldi	r20, 0x66	; 102
    2d2a:	5f e3       	ldi	r21, 0x3F	; 63
    2d2c:	0e 94 76 3a 	call	0x74ec	; 0x74ec <__mulsf3>
    2d30:	0e 94 8f 39 	call	0x731e	; 0x731e <__fixsfsi>
    2d34:	70 93 c3 05 	sts	0x05C3, r23
    2d38:	60 93 c2 05 	sts	0x05C2, r22
    2d3c:	06 0f       	add	r16, r22
    2d3e:	17 1f       	adc	r17, r23
    2d40:	10 93 99 05 	sts	0x0599, r17
    2d44:	00 93 98 05 	sts	0x0598, r16
    2d48:	c6 1a       	sub	r12, r22
    2d4a:	d7 0a       	sbc	r13, r23
    2d4c:	d0 92 9d 05 	sts	0x059D, r13
    2d50:	c0 92 9c 05 	sts	0x059C, r12
    2d54:	ac 1a       	sub	r10, r28
    2d56:	bd 0a       	sbc	r11, r29
    2d58:	b0 92 9b 05 	sts	0x059B, r11
    2d5c:	a0 92 9a 05 	sts	0x059A, r10
    2d60:	c8 0d       	add	r28, r8
    2d62:	d9 1d       	adc	r29, r9
    2d64:	d0 93 9f 05 	sts	0x059F, r29
    2d68:	c0 93 9e 05 	sts	0x059E, r28
    2d6c:	ef c0       	rjmp	.+478    	; 0x2f4c <MainLoop+0x70a>
    2d6e:	81 30       	cpi	r24, 0x01	; 1
    2d70:	11 f0       	breq	.+4      	; 0x2d76 <MainLoop+0x534>
    2d72:	01 e0       	ldi	r16, 0x01	; 1
    2d74:	01 c0       	rjmp	.+2      	; 0x2d78 <MainLoop+0x536>
    2d76:	0f ef       	ldi	r16, 0xFF	; 255
    2d78:	c0 91 c2 05 	lds	r28, 0x05C2
    2d7c:	d0 91 c3 05 	lds	r29, 0x05C3
    2d80:	60 91 9c 05 	lds	r22, 0x059C
    2d84:	70 91 9d 05 	lds	r23, 0x059D
    2d88:	88 27       	eor	r24, r24
    2d8a:	77 fd       	sbrc	r23, 7
    2d8c:	80 95       	com	r24
    2d8e:	98 2f       	mov	r25, r24
    2d90:	0e 94 c2 39 	call	0x7384	; 0x7384 <__floatsisf>
    2d94:	4b 01       	movw	r8, r22
    2d96:	5c 01       	movw	r10, r24
    2d98:	60 2f       	mov	r22, r16
    2d9a:	77 27       	eor	r23, r23
    2d9c:	67 fd       	sbrc	r22, 7
    2d9e:	70 95       	com	r23
    2da0:	87 2f       	mov	r24, r23
    2da2:	97 2f       	mov	r25, r23
    2da4:	0e 94 c2 39 	call	0x7384	; 0x7384 <__floatsisf>
    2da8:	6b 01       	movw	r12, r22
    2daa:	7c 01       	movw	r14, r24
    2dac:	be 01       	movw	r22, r28
    2dae:	88 27       	eor	r24, r24
    2db0:	77 fd       	sbrc	r23, 7
    2db2:	80 95       	com	r24
    2db4:	98 2f       	mov	r25, r24
    2db6:	0e 94 c2 39 	call	0x7384	; 0x7384 <__floatsisf>
    2dba:	2d ec       	ldi	r18, 0xCD	; 205
    2dbc:	3c ec       	ldi	r19, 0xCC	; 204
    2dbe:	4c e8       	ldi	r20, 0x8C	; 140
    2dc0:	5f e3       	ldi	r21, 0x3F	; 63
    2dc2:	0e 94 76 3a 	call	0x74ec	; 0x74ec <__mulsf3>
    2dc6:	9b 01       	movw	r18, r22
    2dc8:	ac 01       	movw	r20, r24
    2dca:	c7 01       	movw	r24, r14
    2dcc:	b6 01       	movw	r22, r12
    2dce:	0e 94 76 3a 	call	0x74ec	; 0x74ec <__mulsf3>
    2dd2:	9b 01       	movw	r18, r22
    2dd4:	ac 01       	movw	r20, r24
    2dd6:	c5 01       	movw	r24, r10
    2dd8:	b4 01       	movw	r22, r8
    2dda:	0e 94 be 38 	call	0x717c	; 0x717c <__subsf3>
    2dde:	0e 94 8f 39 	call	0x731e	; 0x731e <__fixsfsi>
    2de2:	70 93 9d 05 	sts	0x059D, r23
    2de6:	60 93 9c 05 	sts	0x059C, r22
    2dea:	e0 2e       	mov	r14, r16
    2dec:	ff 24       	eor	r15, r15
    2dee:	e7 fc       	sbrc	r14, 7
    2df0:	f0 94       	com	r15
    2df2:	ec 9e       	mul	r14, r28
    2df4:	b0 01       	movw	r22, r0
    2df6:	ed 9e       	mul	r14, r29
    2df8:	70 0d       	add	r23, r0
    2dfa:	fc 9e       	mul	r15, r28
    2dfc:	70 0d       	add	r23, r0
    2dfe:	11 24       	eor	r1, r1
    2e00:	88 27       	eor	r24, r24
    2e02:	77 fd       	sbrc	r23, 7
    2e04:	80 95       	com	r24
    2e06:	98 2f       	mov	r25, r24
    2e08:	0e 94 c2 39 	call	0x7384	; 0x7384 <__floatsisf>
    2e0c:	20 e0       	ldi	r18, 0x00	; 0
    2e0e:	30 e0       	ldi	r19, 0x00	; 0
    2e10:	40 e0       	ldi	r20, 0x00	; 0
    2e12:	5f e3       	ldi	r21, 0x3F	; 63
    2e14:	0e 94 76 3a 	call	0x74ec	; 0x74ec <__mulsf3>
    2e18:	0e 94 8f 39 	call	0x731e	; 0x731e <__fixsfsi>
    2e1c:	fb 01       	movw	r30, r22
    2e1e:	70 93 c3 05 	sts	0x05C3, r23
    2e22:	60 93 c2 05 	sts	0x05C2, r22
    2e26:	20 91 98 05 	lds	r18, 0x0598
    2e2a:	30 91 99 05 	lds	r19, 0x0599
    2e2e:	80 91 9a 05 	lds	r24, 0x059A
    2e32:	90 91 9b 05 	lds	r25, 0x059B
    2e36:	60 91 c0 05 	lds	r22, 0x05C0
    2e3a:	70 91 c1 05 	lds	r23, 0x05C1
    2e3e:	e6 9e       	mul	r14, r22
    2e40:	a0 01       	movw	r20, r0
    2e42:	e7 9e       	mul	r14, r23
    2e44:	50 0d       	add	r21, r0
    2e46:	f6 9e       	mul	r15, r22
    2e48:	50 0d       	add	r21, r0
    2e4a:	11 24       	eor	r1, r1
    2e4c:	50 93 c1 05 	sts	0x05C1, r21
    2e50:	40 93 c0 05 	sts	0x05C0, r20
    2e54:	24 0f       	add	r18, r20
    2e56:	35 1f       	adc	r19, r21
    2e58:	2e 0f       	add	r18, r30
    2e5a:	3f 1f       	adc	r19, r31
    2e5c:	30 93 99 05 	sts	0x0599, r19
    2e60:	20 93 98 05 	sts	0x0598, r18
    2e64:	84 1b       	sub	r24, r20
    2e66:	95 0b       	sbc	r25, r21
    2e68:	8e 0f       	add	r24, r30
    2e6a:	9f 1f       	adc	r25, r31
    2e6c:	90 93 9b 05 	sts	0x059B, r25
    2e70:	80 93 9a 05 	sts	0x059A, r24
    2e74:	6b c0       	rjmp	.+214    	; 0x2f4c <MainLoop+0x70a>
    2e76:	0e 94 95 20 	call	0x412a	; 0x412a <IMU_HeightKeeping>
    2e7a:	7b 01       	movw	r14, r22
    2e7c:	8c 01       	movw	r16, r24
    2e7e:	60 91 98 05 	lds	r22, 0x0598
    2e82:	70 91 99 05 	lds	r23, 0x0599
    2e86:	88 27       	eor	r24, r24
    2e88:	77 fd       	sbrc	r23, 7
    2e8a:	80 95       	com	r24
    2e8c:	98 2f       	mov	r25, r24
    2e8e:	0e 94 c2 39 	call	0x7384	; 0x7384 <__floatsisf>
    2e92:	a8 01       	movw	r20, r16
    2e94:	97 01       	movw	r18, r14
    2e96:	0e 94 bf 38 	call	0x717e	; 0x717e <__addsf3>
    2e9a:	0e 94 8f 39 	call	0x731e	; 0x731e <__fixsfsi>
    2e9e:	70 93 99 05 	sts	0x0599, r23
    2ea2:	60 93 98 05 	sts	0x0598, r22
    2ea6:	60 91 9a 05 	lds	r22, 0x059A
    2eaa:	70 91 9b 05 	lds	r23, 0x059B
    2eae:	88 27       	eor	r24, r24
    2eb0:	77 fd       	sbrc	r23, 7
    2eb2:	80 95       	com	r24
    2eb4:	98 2f       	mov	r25, r24
    2eb6:	0e 94 c2 39 	call	0x7384	; 0x7384 <__floatsisf>
    2eba:	a8 01       	movw	r20, r16
    2ebc:	97 01       	movw	r18, r14
    2ebe:	0e 94 bf 38 	call	0x717e	; 0x717e <__addsf3>
    2ec2:	0e 94 8f 39 	call	0x731e	; 0x731e <__fixsfsi>
    2ec6:	70 93 9b 05 	sts	0x059B, r23
    2eca:	60 93 9a 05 	sts	0x059A, r22
    2ece:	80 91 d8 06 	lds	r24, 0x06D8
    2ed2:	c0 90 9c 05 	lds	r12, 0x059C
    2ed6:	d0 90 9d 05 	lds	r13, 0x059D
    2eda:	81 30       	cpi	r24, 0x01	; 1
    2edc:	31 f5       	brne	.+76     	; 0x2f2a <MainLoop+0x6e8>
    2ede:	b6 01       	movw	r22, r12
    2ee0:	88 27       	eor	r24, r24
    2ee2:	77 fd       	sbrc	r23, 7
    2ee4:	80 95       	com	r24
    2ee6:	98 2f       	mov	r25, r24
    2ee8:	0e 94 c2 39 	call	0x7384	; 0x7384 <__floatsisf>
    2eec:	a8 01       	movw	r20, r16
    2eee:	97 01       	movw	r18, r14
    2ef0:	0e 94 bf 38 	call	0x717e	; 0x717e <__addsf3>
    2ef4:	0e 94 8f 39 	call	0x731e	; 0x731e <__fixsfsi>
    2ef8:	70 93 9d 05 	sts	0x059D, r23
    2efc:	60 93 9c 05 	sts	0x059C, r22
    2f00:	60 91 9e 05 	lds	r22, 0x059E
    2f04:	70 91 9f 05 	lds	r23, 0x059F
    2f08:	88 27       	eor	r24, r24
    2f0a:	77 fd       	sbrc	r23, 7
    2f0c:	80 95       	com	r24
    2f0e:	98 2f       	mov	r25, r24
    2f10:	0e 94 c2 39 	call	0x7384	; 0x7384 <__floatsisf>
    2f14:	a8 01       	movw	r20, r16
    2f16:	97 01       	movw	r18, r14
    2f18:	0e 94 bf 38 	call	0x717e	; 0x717e <__addsf3>
    2f1c:	0e 94 8f 39 	call	0x731e	; 0x731e <__fixsfsi>
    2f20:	70 93 9f 05 	sts	0x059F, r23
    2f24:	60 93 9e 05 	sts	0x059E, r22
    2f28:	11 c0       	rjmp	.+34     	; 0x2f4c <MainLoop+0x70a>
    2f2a:	b6 01       	movw	r22, r12
    2f2c:	88 27       	eor	r24, r24
    2f2e:	77 fd       	sbrc	r23, 7
    2f30:	80 95       	com	r24
    2f32:	98 2f       	mov	r25, r24
    2f34:	0e 94 c2 39 	call	0x7384	; 0x7384 <__floatsisf>
    2f38:	a8 01       	movw	r20, r16
    2f3a:	97 01       	movw	r18, r14
    2f3c:	0e 94 bf 38 	call	0x717e	; 0x717e <__addsf3>
    2f40:	0e 94 8f 39 	call	0x731e	; 0x731e <__fixsfsi>
    2f44:	70 93 9d 05 	sts	0x059D, r23
    2f48:	60 93 9c 05 	sts	0x059C, r22
    2f4c:	00 91 d8 06 	lds	r16, 0x06D8
    2f50:	80 91 cf 06 	lds	r24, 0x06CF
    2f54:	90 91 d0 06 	lds	r25, 0x06D0
    2f58:	01 30       	cpi	r16, 0x01	; 1
    2f5a:	49 f5       	brne	.+82     	; 0x2fae <MainLoop+0x76c>
    2f5c:	20 91 98 05 	lds	r18, 0x0598
    2f60:	30 91 99 05 	lds	r19, 0x0599
    2f64:	28 1b       	sub	r18, r24
    2f66:	39 0b       	sbc	r19, r25
    2f68:	30 93 99 05 	sts	0x0599, r19
    2f6c:	20 93 98 05 	sts	0x0598, r18
    2f70:	20 91 9c 05 	lds	r18, 0x059C
    2f74:	30 91 9d 05 	lds	r19, 0x059D
    2f78:	28 1b       	sub	r18, r24
    2f7a:	39 0b       	sbc	r19, r25
    2f7c:	30 93 9d 05 	sts	0x059D, r19
    2f80:	20 93 9c 05 	sts	0x059C, r18
    2f84:	20 91 9a 05 	lds	r18, 0x059A
    2f88:	30 91 9b 05 	lds	r19, 0x059B
    2f8c:	28 0f       	add	r18, r24
    2f8e:	39 1f       	adc	r19, r25
    2f90:	30 93 9b 05 	sts	0x059B, r19
    2f94:	20 93 9a 05 	sts	0x059A, r18
    2f98:	20 91 9e 05 	lds	r18, 0x059E
    2f9c:	30 91 9f 05 	lds	r19, 0x059F
    2fa0:	28 0f       	add	r18, r24
    2fa2:	39 1f       	adc	r19, r25
    2fa4:	30 93 9f 05 	sts	0x059F, r19
    2fa8:	20 93 9e 05 	sts	0x059E, r18
    2fac:	3a c0       	rjmp	.+116    	; 0x3022 <MainLoop+0x7e0>
    2fae:	20 91 88 07 	lds	r18, 0x0788
    2fb2:	c2 2f       	mov	r28, r18
    2fb4:	dd 27       	eor	r29, r29
    2fb6:	c7 fd       	sbrc	r28, 7
    2fb8:	d0 95       	com	r29
    2fba:	c8 9f       	mul	r28, r24
    2fbc:	b0 01       	movw	r22, r0
    2fbe:	c9 9f       	mul	r28, r25
    2fc0:	70 0d       	add	r23, r0
    2fc2:	d8 9f       	mul	r29, r24
    2fc4:	70 0d       	add	r23, r0
    2fc6:	11 24       	eor	r1, r1
    2fc8:	6a 5d       	subi	r22, 0xDA	; 218
    2fca:	7d 4f       	sbci	r23, 0xFD	; 253
    2fcc:	88 27       	eor	r24, r24
    2fce:	77 fd       	sbrc	r23, 7
    2fd0:	80 95       	com	r24
    2fd2:	98 2f       	mov	r25, r24
    2fd4:	0e 94 c2 39 	call	0x7384	; 0x7384 <__floatsisf>
    2fd8:	6b 01       	movw	r12, r22
    2fda:	7c 01       	movw	r14, r24
    2fdc:	80 91 c4 05 	lds	r24, 0x05C4
    2fe0:	90 91 c5 05 	lds	r25, 0x05C5
    2fe4:	c8 9f       	mul	r28, r24
    2fe6:	b0 01       	movw	r22, r0
    2fe8:	c9 9f       	mul	r28, r25
    2fea:	70 0d       	add	r23, r0
    2fec:	d8 9f       	mul	r29, r24
    2fee:	70 0d       	add	r23, r0
    2ff0:	11 24       	eor	r1, r1
    2ff2:	88 27       	eor	r24, r24
    2ff4:	77 fd       	sbrc	r23, 7
    2ff6:	80 95       	com	r24
    2ff8:	98 2f       	mov	r25, r24
    2ffa:	0e 94 c2 39 	call	0x7384	; 0x7384 <__floatsisf>
    2ffe:	2d ec       	ldi	r18, 0xCD	; 205
    3000:	3c ec       	ldi	r19, 0xCC	; 204
    3002:	4c e4       	ldi	r20, 0x4C	; 76
    3004:	5e e3       	ldi	r21, 0x3E	; 62
    3006:	0e 94 76 3a 	call	0x74ec	; 0x74ec <__mulsf3>
    300a:	9b 01       	movw	r18, r22
    300c:	ac 01       	movw	r20, r24
    300e:	c7 01       	movw	r24, r14
    3010:	b6 01       	movw	r22, r12
    3012:	0e 94 be 38 	call	0x717c	; 0x717c <__subsf3>
    3016:	0e 94 8f 39 	call	0x731e	; 0x731e <__fixsfsi>
    301a:	70 93 9f 05 	sts	0x059F, r23
    301e:	60 93 9e 05 	sts	0x059E, r22
    3022:	80 91 98 05 	lds	r24, 0x0598
    3026:	90 91 99 05 	lds	r25, 0x0599
    302a:	84 36       	cpi	r24, 0x64	; 100
    302c:	91 05       	cpc	r25, r1
    302e:	34 f4       	brge	.+12     	; 0x303c <MainLoop+0x7fa>
    3030:	84 e6       	ldi	r24, 0x64	; 100
    3032:	90 e0       	ldi	r25, 0x00	; 0
    3034:	90 93 99 05 	sts	0x0599, r25
    3038:	80 93 98 05 	sts	0x0598, r24
    303c:	80 91 9a 05 	lds	r24, 0x059A
    3040:	90 91 9b 05 	lds	r25, 0x059B
    3044:	84 36       	cpi	r24, 0x64	; 100
    3046:	91 05       	cpc	r25, r1
    3048:	34 f4       	brge	.+12     	; 0x3056 <MainLoop+0x814>
    304a:	84 e6       	ldi	r24, 0x64	; 100
    304c:	90 e0       	ldi	r25, 0x00	; 0
    304e:	90 93 9b 05 	sts	0x059B, r25
    3052:	80 93 9a 05 	sts	0x059A, r24
    3056:	80 91 9c 05 	lds	r24, 0x059C
    305a:	90 91 9d 05 	lds	r25, 0x059D
    305e:	84 36       	cpi	r24, 0x64	; 100
    3060:	91 05       	cpc	r25, r1
    3062:	34 f4       	brge	.+12     	; 0x3070 <MainLoop+0x82e>
    3064:	84 e6       	ldi	r24, 0x64	; 100
    3066:	90 e0       	ldi	r25, 0x00	; 0
    3068:	90 93 9d 05 	sts	0x059D, r25
    306c:	80 93 9c 05 	sts	0x059C, r24
    3070:	01 30       	cpi	r16, 0x01	; 1
    3072:	69 f4       	brne	.+26     	; 0x308e <MainLoop+0x84c>
    3074:	80 91 9e 05 	lds	r24, 0x059E
    3078:	90 91 9f 05 	lds	r25, 0x059F
    307c:	84 36       	cpi	r24, 0x64	; 100
    307e:	91 05       	cpc	r25, r1
    3080:	34 f4       	brge	.+12     	; 0x308e <MainLoop+0x84c>
    3082:	84 e6       	ldi	r24, 0x64	; 100
    3084:	90 e0       	ldi	r25, 0x00	; 0
    3086:	90 93 9f 05 	sts	0x059F, r25
    308a:	80 93 9e 05 	sts	0x059E, r24
    308e:	80 91 d3 06 	lds	r24, 0x06D3
    3092:	8f 3f       	cpi	r24, 0xFF	; 255
    3094:	a1 f4       	brne	.+40     	; 0x30be <MainLoop+0x87c>
    3096:	84 e0       	ldi	r24, 0x04	; 4
    3098:	91 e0       	ldi	r25, 0x01	; 1
    309a:	61 e0       	ldi	r22, 0x01	; 1
    309c:	0e 94 5c 10 	call	0x20b8	; 0x20b8 <Send_Data>
    30a0:	8d e3       	ldi	r24, 0x3D	; 61
    30a2:	96 e0       	ldi	r25, 0x06	; 6
    30a4:	6c e0       	ldi	r22, 0x0C	; 12
    30a6:	0e 94 5c 10 	call	0x20b8	; 0x20b8 <Send_Data>
    30aa:	88 e9       	ldi	r24, 0x98	; 152
    30ac:	95 e0       	ldi	r25, 0x05	; 5
    30ae:	68 e0       	ldi	r22, 0x08	; 8
    30b0:	0e 94 5c 10 	call	0x20b8	; 0x20b8 <Send_Data>
    30b4:	86 e0       	ldi	r24, 0x06	; 6
    30b6:	91 e0       	ldi	r25, 0x01	; 1
    30b8:	61 e0       	ldi	r22, 0x01	; 1
    30ba:	0e 94 5c 10 	call	0x20b8	; 0x20b8 <Send_Data>
    30be:	80 91 d5 07 	lds	r24, 0x07D5
    30c2:	80 7f       	andi	r24, 0xF0	; 240
    30c4:	79 f0       	breq	.+30     	; 0x30e4 <MainLoop+0x8a2>
    30c6:	0e 94 03 14 	call	0x2806	; 0x2806 <ZEROMotors>
    30ca:	80 91 a2 07 	lds	r24, 0x07A2
    30ce:	81 30       	cpi	r24, 0x01	; 1
    30d0:	49 f4       	brne	.+18     	; 0x30e4 <MainLoop+0x8a2>
    30d2:	0e 94 03 25 	call	0x4a06	; 0x4a06 <Motor_GenerateOutputSignal>
    30d6:	0e 94 11 0f 	call	0x1e22	; 0x1e22 <Disarm>
    30da:	80 91 c5 06 	lds	r24, 0x06C5
    30de:	81 60       	ori	r24, 0x01	; 1
    30e0:	80 93 c5 06 	sts	0x06C5, r24
    30e4:	0e 94 03 25 	call	0x4a06	; 0x4a06 <Motor_GenerateOutputSignal>
    30e8:	80 91 57 06 	lds	r24, 0x0657
    30ec:	81 30       	cpi	r24, 0x01	; 1
    30ee:	21 f4       	brne	.+8      	; 0x30f8 <MainLoop+0x8b6>
    30f0:	10 92 e9 05 	sts	0x05E9, r1
    30f4:	10 92 e8 05 	sts	0x05E8, r1
    30f8:	df 91       	pop	r29
    30fa:	cf 91       	pop	r28
    30fc:	1f 91       	pop	r17
    30fe:	0f 91       	pop	r16
    3100:	ff 90       	pop	r15
    3102:	ef 90       	pop	r14
    3104:	df 90       	pop	r13
    3106:	cf 90       	pop	r12
    3108:	bf 90       	pop	r11
    310a:	af 90       	pop	r10
    310c:	9f 90       	pop	r9
    310e:	8f 90       	pop	r8
    3110:	08 95       	ret

00003112 <main>:
    3112:	10 92 e7 05 	sts	0x05E7, r1
    3116:	0e 94 89 11 	call	0x2312	; 0x2312 <Setup>
    311a:	10 92 4f 05 	sts	0x054F, r1
    311e:	10 92 c5 06 	sts	0x06C5, r1
    3122:	81 e0       	ldi	r24, 0x01	; 1
    3124:	80 93 1c 06 	sts	0x061C, r24
    3128:	80 93 21 05 	sts	0x0521, r24
    312c:	8d e3       	ldi	r24, 0x3D	; 61
    312e:	96 e0       	ldi	r25, 0x06	; 6
    3130:	90 93 b2 07 	sts	0x07B2, r25
    3134:	80 93 b1 07 	sts	0x07B1, r24
    3138:	10 92 a3 07 	sts	0x07A3, r1
    313c:	0e 94 f0 11 	call	0x23e0	; 0x23e0 <LoopCalibration>
    3140:	80 91 d7 06 	lds	r24, 0x06D7
    3144:	81 30       	cpi	r24, 0x01	; 1
    3146:	11 f4       	brne	.+4      	; 0x314c <main+0x3a>
    3148:	0e 94 ea 11 	call	0x23d4	; 0x23d4 <LoopESCCalibration>
    314c:	0e 94 b3 38 	call	0x7166	; 0x7166 <Menu_EnableAllItems>
    3150:	0e 94 21 14 	call	0x2842	; 0x2842 <MainLoop>
    3154:	fd cf       	rjmp	.-6      	; 0x3150 <main+0x3e>

00003156 <PID_Calculate_ACC>:
    3156:	6f 92       	push	r6
    3158:	7f 92       	push	r7
    315a:	8f 92       	push	r8
    315c:	9f 92       	push	r9
    315e:	af 92       	push	r10
    3160:	bf 92       	push	r11
    3162:	cf 92       	push	r12
    3164:	df 92       	push	r13
    3166:	ef 92       	push	r14
    3168:	ff 92       	push	r15
    316a:	0f 93       	push	r16
    316c:	1f 93       	push	r17
    316e:	df 93       	push	r29
    3170:	cf 93       	push	r28
    3172:	cd b7       	in	r28, 0x3d	; 61
    3174:	de b7       	in	r29, 0x3e	; 62
    3176:	2e 97       	sbiw	r28, 0x0e	; 14
    3178:	0f b6       	in	r0, 0x3f	; 63
    317a:	f8 94       	cli
    317c:	de bf       	out	0x3e, r29	; 62
    317e:	0f be       	out	0x3f, r0	; 63
    3180:	cd bf       	out	0x3d, r28	; 61
    3182:	c9 82       	std	Y+1, r12	; 0x01
    3184:	da 82       	std	Y+2, r13	; 0x02
    3186:	eb 82       	std	Y+3, r14	; 0x03
    3188:	fc 82       	std	Y+4, r15	; 0x04
    318a:	0d 83       	std	Y+5, r16	; 0x05
    318c:	1e 83       	std	Y+6, r17	; 0x06
    318e:	2f 83       	std	Y+7, r18	; 0x07
    3190:	38 87       	std	Y+8, r19	; 0x08
    3192:	49 87       	std	Y+9, r20	; 0x09
    3194:	5a 87       	std	Y+10, r21	; 0x0a
    3196:	6b 87       	std	Y+11, r22	; 0x0b
    3198:	7c 87       	std	Y+12, r23	; 0x0c
    319a:	8d 87       	std	Y+13, r24	; 0x0d
    319c:	9e 87       	std	Y+14, r25	; 0x0e
    319e:	ef 8c       	ldd	r14, Y+31	; 0x1f
    31a0:	f8 a0       	ldd	r15, Y+32	; 0x20
    31a2:	09 a1       	ldd	r16, Y+33	; 0x21
    31a4:	1a a1       	ldd	r17, Y+34	; 0x22
    31a6:	6d 80       	ldd	r6, Y+5	; 0x05
    31a8:	7e 80       	ldd	r7, Y+6	; 0x06
    31aa:	c8 01       	movw	r24, r16
    31ac:	b7 01       	movw	r22, r14
    31ae:	0e 94 57 3b 	call	0x76ae	; 0x76ae <abs>
    31b2:	9c 01       	movw	r18, r24
    31b4:	b9 01       	movw	r22, r18
    31b6:	88 27       	eor	r24, r24
    31b8:	77 fd       	sbrc	r23, 7
    31ba:	80 95       	com	r24
    31bc:	98 2f       	mov	r25, r24
    31be:	0e 94 c2 39 	call	0x7384	; 0x7384 <__floatsisf>
    31c2:	20 e0       	ldi	r18, 0x00	; 0
    31c4:	30 e0       	ldi	r19, 0x00	; 0
    31c6:	40 e8       	ldi	r20, 0x80	; 128
    31c8:	5f e3       	ldi	r21, 0x3F	; 63
    31ca:	0e 94 72 3a 	call	0x74e4	; 0x74e4 <__gesf2>
    31ce:	18 16       	cp	r1, r24
    31d0:	cc f4       	brge	.+50     	; 0x3204 <PID_Calculate_ACC+0xae>
    31d2:	69 81       	ldd	r22, Y+1	; 0x01
    31d4:	7a 81       	ldd	r23, Y+2	; 0x02
    31d6:	88 27       	eor	r24, r24
    31d8:	77 fd       	sbrc	r23, 7
    31da:	80 95       	com	r24
    31dc:	98 2f       	mov	r25, r24
    31de:	0e 94 c2 39 	call	0x7384	; 0x7384 <__floatsisf>
    31e2:	9b 01       	movw	r18, r22
    31e4:	ac 01       	movw	r20, r24
    31e6:	c8 01       	movw	r24, r16
    31e8:	b7 01       	movw	r22, r14
    31ea:	0e 94 76 3a 	call	0x74ec	; 0x74ec <__mulsf3>
    31ee:	20 e0       	ldi	r18, 0x00	; 0
    31f0:	30 e0       	ldi	r19, 0x00	; 0
    31f2:	40 e2       	ldi	r20, 0x20	; 32
    31f4:	51 e4       	ldi	r21, 0x41	; 65
    31f6:	0e 94 27 39 	call	0x724e	; 0x724e <__divsf3>
    31fa:	f5 01       	movw	r30, r10
    31fc:	60 83       	st	Z, r22
    31fe:	71 83       	std	Z+1, r23	; 0x01
    3200:	82 83       	std	Z+2, r24	; 0x02
    3202:	93 83       	std	Z+3, r25	; 0x03
    3204:	c8 01       	movw	r24, r16
    3206:	b7 01       	movw	r22, r14
    3208:	f5 01       	movw	r30, r10
    320a:	24 85       	ldd	r18, Z+12	; 0x0c
    320c:	35 85       	ldd	r19, Z+13	; 0x0d
    320e:	46 85       	ldd	r20, Z+14	; 0x0e
    3210:	57 85       	ldd	r21, Z+15	; 0x0f
    3212:	0e 94 be 38 	call	0x717c	; 0x717c <__subsf3>
    3216:	0e 94 8f 39 	call	0x731e	; 0x731e <__fixsfsi>
    321a:	6b 01       	movw	r12, r22
    321c:	c8 01       	movw	r24, r16
    321e:	b7 01       	movw	r22, r14
    3220:	20 e0       	ldi	r18, 0x00	; 0
    3222:	30 e0       	ldi	r19, 0x00	; 0
    3224:	40 e8       	ldi	r20, 0x80	; 128
    3226:	50 e4       	ldi	r21, 0x40	; 64
    3228:	0e 94 72 3a 	call	0x74e4	; 0x74e4 <__gesf2>
    322c:	18 16       	cp	r1, r24
    322e:	bc f4       	brge	.+46     	; 0x325e <PID_Calculate_ACC+0x108>
    3230:	b3 01       	movw	r22, r6
    3232:	88 27       	eor	r24, r24
    3234:	77 fd       	sbrc	r23, 7
    3236:	80 95       	com	r24
    3238:	98 2f       	mov	r25, r24
    323a:	0e 94 c2 39 	call	0x7384	; 0x7384 <__floatsisf>
    323e:	20 e0       	ldi	r18, 0x00	; 0
    3240:	30 e0       	ldi	r19, 0x00	; 0
    3242:	48 ec       	ldi	r20, 0xC8	; 200
    3244:	52 e4       	ldi	r21, 0x42	; 66
    3246:	0e 94 27 39 	call	0x724e	; 0x724e <__divsf3>
    324a:	9b 01       	movw	r18, r22
    324c:	ac 01       	movw	r20, r24
    324e:	f5 01       	movw	r30, r10
    3250:	64 81       	ldd	r22, Z+4	; 0x04
    3252:	75 81       	ldd	r23, Z+5	; 0x05
    3254:	86 81       	ldd	r24, Z+6	; 0x06
    3256:	97 81       	ldd	r25, Z+7	; 0x07
    3258:	0e 94 bf 38 	call	0x717e	; 0x717e <__addsf3>
    325c:	32 c0       	rjmp	.+100    	; 0x32c2 <PID_Calculate_ACC+0x16c>
    325e:	c8 01       	movw	r24, r16
    3260:	b7 01       	movw	r22, r14
    3262:	20 e0       	ldi	r18, 0x00	; 0
    3264:	30 e0       	ldi	r19, 0x00	; 0
    3266:	40 e8       	ldi	r20, 0x80	; 128
    3268:	50 ec       	ldi	r21, 0xC0	; 192
    326a:	0e 94 23 39 	call	0x7246	; 0x7246 <__cmpsf2>
    326e:	87 ff       	sbrs	r24, 7
    3270:	15 c0       	rjmp	.+42     	; 0x329c <PID_Calculate_ACC+0x146>
    3272:	b3 01       	movw	r22, r6
    3274:	88 27       	eor	r24, r24
    3276:	77 fd       	sbrc	r23, 7
    3278:	80 95       	com	r24
    327a:	98 2f       	mov	r25, r24
    327c:	0e 94 c2 39 	call	0x7384	; 0x7384 <__floatsisf>
    3280:	20 e0       	ldi	r18, 0x00	; 0
    3282:	30 e0       	ldi	r19, 0x00	; 0
    3284:	48 ec       	ldi	r20, 0xC8	; 200
    3286:	52 e4       	ldi	r21, 0x42	; 66
    3288:	0e 94 27 39 	call	0x724e	; 0x724e <__divsf3>
    328c:	9b 01       	movw	r18, r22
    328e:	ac 01       	movw	r20, r24
    3290:	f5 01       	movw	r30, r10
    3292:	64 81       	ldd	r22, Z+4	; 0x04
    3294:	75 81       	ldd	r23, Z+5	; 0x05
    3296:	86 81       	ldd	r24, Z+6	; 0x06
    3298:	97 81       	ldd	r25, Z+7	; 0x07
    329a:	11 c0       	rjmp	.+34     	; 0x32be <PID_Calculate_ACC+0x168>
    329c:	f5 01       	movw	r30, r10
    329e:	64 80       	ldd	r6, Z+4	; 0x04
    32a0:	75 80       	ldd	r7, Z+5	; 0x05
    32a2:	86 80       	ldd	r8, Z+6	; 0x06
    32a4:	97 80       	ldd	r9, Z+7	; 0x07
    32a6:	c4 01       	movw	r24, r8
    32a8:	b3 01       	movw	r22, r6
    32aa:	2a e0       	ldi	r18, 0x0A	; 10
    32ac:	37 ed       	ldi	r19, 0xD7	; 215
    32ae:	43 e2       	ldi	r20, 0x23	; 35
    32b0:	5c e3       	ldi	r21, 0x3C	; 60
    32b2:	0e 94 76 3a 	call	0x74ec	; 0x74ec <__mulsf3>
    32b6:	9b 01       	movw	r18, r22
    32b8:	ac 01       	movw	r20, r24
    32ba:	c4 01       	movw	r24, r8
    32bc:	b3 01       	movw	r22, r6
    32be:	0e 94 be 38 	call	0x717c	; 0x717c <__subsf3>
    32c2:	f5 01       	movw	r30, r10
    32c4:	64 83       	std	Z+4, r22	; 0x04
    32c6:	75 83       	std	Z+5, r23	; 0x05
    32c8:	86 83       	std	Z+6, r24	; 0x06
    32ca:	97 83       	std	Z+7, r25	; 0x07
    32cc:	b6 01       	movw	r22, r12
    32ce:	88 27       	eor	r24, r24
    32d0:	77 fd       	sbrc	r23, 7
    32d2:	80 95       	com	r24
    32d4:	98 2f       	mov	r25, r24
    32d6:	0e 94 c2 39 	call	0x7384	; 0x7384 <__floatsisf>
    32da:	3b 01       	movw	r6, r22
    32dc:	4c 01       	movw	r8, r24
    32de:	69 85       	ldd	r22, Y+9	; 0x09
    32e0:	7a 85       	ldd	r23, Y+10	; 0x0a
    32e2:	88 27       	eor	r24, r24
    32e4:	77 fd       	sbrc	r23, 7
    32e6:	80 95       	com	r24
    32e8:	98 2f       	mov	r25, r24
    32ea:	0e 94 c2 39 	call	0x7384	; 0x7384 <__floatsisf>
    32ee:	9b 01       	movw	r18, r22
    32f0:	ac 01       	movw	r20, r24
    32f2:	c4 01       	movw	r24, r8
    32f4:	b3 01       	movw	r22, r6
    32f6:	0e 94 76 3a 	call	0x74ec	; 0x74ec <__mulsf3>
    32fa:	20 e0       	ldi	r18, 0x00	; 0
    32fc:	30 e0       	ldi	r19, 0x00	; 0
    32fe:	40 ea       	ldi	r20, 0xA0	; 160
    3300:	51 e4       	ldi	r21, 0x41	; 65
    3302:	0e 94 27 39 	call	0x724e	; 0x724e <__divsf3>
    3306:	f5 01       	movw	r30, r10
    3308:	60 87       	std	Z+8, r22	; 0x08
    330a:	71 87       	std	Z+9, r23	; 0x09
    330c:	82 87       	std	Z+10, r24	; 0x0a
    330e:	93 87       	std	Z+11, r25	; 0x0b
    3310:	e4 86       	std	Z+12, r14	; 0x0c
    3312:	f5 86       	std	Z+13, r15	; 0x0d
    3314:	06 87       	std	Z+14, r16	; 0x0e
    3316:	17 87       	std	Z+15, r17	; 0x0f
    3318:	e4 80       	ldd	r14, Z+4	; 0x04
    331a:	f5 80       	ldd	r15, Z+5	; 0x05
    331c:	06 81       	ldd	r16, Z+6	; 0x06
    331e:	17 81       	ldd	r17, Z+7	; 0x07
    3320:	6f 81       	ldd	r22, Y+7	; 0x07
    3322:	78 85       	ldd	r23, Y+8	; 0x08
    3324:	88 27       	eor	r24, r24
    3326:	77 fd       	sbrc	r23, 7
    3328:	80 95       	com	r24
    332a:	98 2f       	mov	r25, r24
    332c:	0e 94 c2 39 	call	0x7384	; 0x7384 <__floatsisf>
    3330:	9b 01       	movw	r18, r22
    3332:	ac 01       	movw	r20, r24
    3334:	c8 01       	movw	r24, r16
    3336:	b7 01       	movw	r22, r14
    3338:	0e 94 8b 22 	call	0x4516	; 0x4516 <Limiterf>
    333c:	f5 01       	movw	r30, r10
    333e:	64 83       	std	Z+4, r22	; 0x04
    3340:	75 83       	std	Z+5, r23	; 0x05
    3342:	86 83       	std	Z+6, r24	; 0x06
    3344:	97 83       	std	Z+7, r25	; 0x07
    3346:	e0 80       	ld	r14, Z
    3348:	f1 80       	ldd	r15, Z+1	; 0x01
    334a:	02 81       	ldd	r16, Z+2	; 0x02
    334c:	13 81       	ldd	r17, Z+3	; 0x03
    334e:	6b 81       	ldd	r22, Y+3	; 0x03
    3350:	7c 81       	ldd	r23, Y+4	; 0x04
    3352:	88 27       	eor	r24, r24
    3354:	77 fd       	sbrc	r23, 7
    3356:	80 95       	com	r24
    3358:	98 2f       	mov	r25, r24
    335a:	0e 94 c2 39 	call	0x7384	; 0x7384 <__floatsisf>
    335e:	9b 01       	movw	r18, r22
    3360:	ac 01       	movw	r20, r24
    3362:	c8 01       	movw	r24, r16
    3364:	b7 01       	movw	r22, r14
    3366:	0e 94 8b 22 	call	0x4516	; 0x4516 <Limiterf>
    336a:	f5 01       	movw	r30, r10
    336c:	60 83       	st	Z, r22
    336e:	71 83       	std	Z+1, r23	; 0x01
    3370:	82 83       	std	Z+2, r24	; 0x02
    3372:	93 83       	std	Z+3, r25	; 0x03
    3374:	e0 84       	ldd	r14, Z+8	; 0x08
    3376:	f1 84       	ldd	r15, Z+9	; 0x09
    3378:	02 85       	ldd	r16, Z+10	; 0x0a
    337a:	13 85       	ldd	r17, Z+11	; 0x0b
    337c:	6b 85       	ldd	r22, Y+11	; 0x0b
    337e:	7c 85       	ldd	r23, Y+12	; 0x0c
    3380:	88 27       	eor	r24, r24
    3382:	77 fd       	sbrc	r23, 7
    3384:	80 95       	com	r24
    3386:	98 2f       	mov	r25, r24
    3388:	0e 94 c2 39 	call	0x7384	; 0x7384 <__floatsisf>
    338c:	9b 01       	movw	r18, r22
    338e:	ac 01       	movw	r20, r24
    3390:	c8 01       	movw	r24, r16
    3392:	b7 01       	movw	r22, r14
    3394:	0e 94 8b 22 	call	0x4516	; 0x4516 <Limiterf>
    3398:	7b 01       	movw	r14, r22
    339a:	8c 01       	movw	r16, r24
    339c:	f5 01       	movw	r30, r10
    339e:	60 87       	std	Z+8, r22	; 0x08
    33a0:	71 87       	std	Z+9, r23	; 0x09
    33a2:	82 87       	std	Z+10, r24	; 0x0a
    33a4:	93 87       	std	Z+11, r25	; 0x0b
    33a6:	60 81       	ld	r22, Z
    33a8:	71 81       	ldd	r23, Z+1	; 0x01
    33aa:	82 81       	ldd	r24, Z+2	; 0x02
    33ac:	93 81       	ldd	r25, Z+3	; 0x03
    33ae:	24 81       	ldd	r18, Z+4	; 0x04
    33b0:	35 81       	ldd	r19, Z+5	; 0x05
    33b2:	46 81       	ldd	r20, Z+6	; 0x06
    33b4:	57 81       	ldd	r21, Z+7	; 0x07
    33b6:	0e 94 bf 38 	call	0x717e	; 0x717e <__addsf3>
    33ba:	a8 01       	movw	r20, r16
    33bc:	97 01       	movw	r18, r14
    33be:	0e 94 bf 38 	call	0x717e	; 0x717e <__addsf3>
    33c2:	2e 96       	adiw	r28, 0x0e	; 14
    33c4:	0f b6       	in	r0, 0x3f	; 63
    33c6:	f8 94       	cli
    33c8:	de bf       	out	0x3e, r29	; 62
    33ca:	0f be       	out	0x3f, r0	; 63
    33cc:	cd bf       	out	0x3d, r28	; 61
    33ce:	cf 91       	pop	r28
    33d0:	df 91       	pop	r29
    33d2:	1f 91       	pop	r17
    33d4:	0f 91       	pop	r16
    33d6:	ff 90       	pop	r15
    33d8:	ef 90       	pop	r14
    33da:	df 90       	pop	r13
    33dc:	cf 90       	pop	r12
    33de:	bf 90       	pop	r11
    33e0:	af 90       	pop	r10
    33e2:	9f 90       	pop	r9
    33e4:	8f 90       	pop	r8
    33e6:	7f 90       	pop	r7
    33e8:	6f 90       	pop	r6
    33ea:	08 95       	ret

000033ec <PID_Calculate>:
    33ec:	af 92       	push	r10
    33ee:	bf 92       	push	r11
    33f0:	cf 92       	push	r12
    33f2:	df 92       	push	r13
    33f4:	ef 92       	push	r14
    33f6:	ff 92       	push	r15
    33f8:	0f 93       	push	r16
    33fa:	1f 93       	push	r17
    33fc:	df 93       	push	r29
    33fe:	cf 93       	push	r28
    3400:	cd b7       	in	r28, 0x3d	; 61
    3402:	de b7       	in	r29, 0x3e	; 62
    3404:	2e 97       	sbiw	r28, 0x0e	; 14
    3406:	0f b6       	in	r0, 0x3f	; 63
    3408:	f8 94       	cli
    340a:	de bf       	out	0x3e, r29	; 62
    340c:	0f be       	out	0x3f, r0	; 63
    340e:	cd bf       	out	0x3d, r28	; 61
    3410:	c9 82       	std	Y+1, r12	; 0x01
    3412:	da 82       	std	Y+2, r13	; 0x02
    3414:	eb 82       	std	Y+3, r14	; 0x03
    3416:	fc 82       	std	Y+4, r15	; 0x04
    3418:	0d 83       	std	Y+5, r16	; 0x05
    341a:	1e 83       	std	Y+6, r17	; 0x06
    341c:	2f 83       	std	Y+7, r18	; 0x07
    341e:	38 87       	std	Y+8, r19	; 0x08
    3420:	49 87       	std	Y+9, r20	; 0x09
    3422:	5a 87       	std	Y+10, r21	; 0x0a
    3424:	6b 87       	std	Y+11, r22	; 0x0b
    3426:	7c 87       	std	Y+12, r23	; 0x0c
    3428:	8d 87       	std	Y+13, r24	; 0x0d
    342a:	9e 87       	std	Y+14, r25	; 0x0e
    342c:	eb 8c       	ldd	r14, Y+27	; 0x1b
    342e:	fc 8c       	ldd	r15, Y+28	; 0x1c
    3430:	0d 8d       	ldd	r16, Y+29	; 0x1d
    3432:	1e 8d       	ldd	r17, Y+30	; 0x1e
    3434:	69 81       	ldd	r22, Y+1	; 0x01
    3436:	7a 81       	ldd	r23, Y+2	; 0x02
    3438:	88 27       	eor	r24, r24
    343a:	77 fd       	sbrc	r23, 7
    343c:	80 95       	com	r24
    343e:	98 2f       	mov	r25, r24
    3440:	0e 94 c2 39 	call	0x7384	; 0x7384 <__floatsisf>
    3444:	9b 01       	movw	r18, r22
    3446:	ac 01       	movw	r20, r24
    3448:	c8 01       	movw	r24, r16
    344a:	b7 01       	movw	r22, r14
    344c:	0e 94 76 3a 	call	0x74ec	; 0x74ec <__mulsf3>
    3450:	20 e0       	ldi	r18, 0x00	; 0
    3452:	30 e0       	ldi	r19, 0x00	; 0
    3454:	40 ea       	ldi	r20, 0xA0	; 160
    3456:	51 e4       	ldi	r21, 0x41	; 65
    3458:	0e 94 27 39 	call	0x724e	; 0x724e <__divsf3>
    345c:	f5 01       	movw	r30, r10
    345e:	60 83       	st	Z, r22
    3460:	71 83       	std	Z+1, r23	; 0x01
    3462:	82 83       	std	Z+2, r24	; 0x02
    3464:	93 83       	std	Z+3, r25	; 0x03
    3466:	c8 01       	movw	r24, r16
    3468:	b7 01       	movw	r22, r14
    346a:	24 85       	ldd	r18, Z+12	; 0x0c
    346c:	35 85       	ldd	r19, Z+13	; 0x0d
    346e:	46 85       	ldd	r20, Z+14	; 0x0e
    3470:	57 85       	ldd	r21, Z+15	; 0x0f
    3472:	0e 94 be 38 	call	0x717c	; 0x717c <__subsf3>
    3476:	0e 94 8f 39 	call	0x731e	; 0x731e <__fixsfsi>
    347a:	6b 01       	movw	r12, r22
    347c:	c8 01       	movw	r24, r16
    347e:	b7 01       	movw	r22, r14
    3480:	20 e0       	ldi	r18, 0x00	; 0
    3482:	30 e0       	ldi	r19, 0x00	; 0
    3484:	40 e8       	ldi	r20, 0x80	; 128
    3486:	5f e3       	ldi	r21, 0x3F	; 63
    3488:	0e 94 72 3a 	call	0x74e4	; 0x74e4 <__gesf2>
    348c:	18 16       	cp	r1, r24
    348e:	54 f0       	brlt	.+20     	; 0x34a4 <PID_Calculate+0xb8>
    3490:	c8 01       	movw	r24, r16
    3492:	b7 01       	movw	r22, r14
    3494:	20 e0       	ldi	r18, 0x00	; 0
    3496:	30 e0       	ldi	r19, 0x00	; 0
    3498:	40 e8       	ldi	r20, 0x80	; 128
    349a:	5f eb       	ldi	r21, 0xBF	; 191
    349c:	0e 94 23 39 	call	0x7246	; 0x7246 <__cmpsf2>
    34a0:	87 ff       	sbrs	r24, 7
    34a2:	22 c0       	rjmp	.+68     	; 0x34e8 <PID_Calculate+0xfc>
    34a4:	6d 81       	ldd	r22, Y+5	; 0x05
    34a6:	7e 81       	ldd	r23, Y+6	; 0x06
    34a8:	88 27       	eor	r24, r24
    34aa:	77 fd       	sbrc	r23, 7
    34ac:	80 95       	com	r24
    34ae:	98 2f       	mov	r25, r24
    34b0:	0e 94 c2 39 	call	0x7384	; 0x7384 <__floatsisf>
    34b4:	9b 01       	movw	r18, r22
    34b6:	ac 01       	movw	r20, r24
    34b8:	c8 01       	movw	r24, r16
    34ba:	b7 01       	movw	r22, r14
    34bc:	0e 94 76 3a 	call	0x74ec	; 0x74ec <__mulsf3>
    34c0:	20 e0       	ldi	r18, 0x00	; 0
    34c2:	30 e0       	ldi	r19, 0x00	; 0
    34c4:	48 e4       	ldi	r20, 0x48	; 72
    34c6:	53 e4       	ldi	r21, 0x43	; 67
    34c8:	0e 94 27 39 	call	0x724e	; 0x724e <__divsf3>
    34cc:	9b 01       	movw	r18, r22
    34ce:	ac 01       	movw	r20, r24
    34d0:	f5 01       	movw	r30, r10
    34d2:	64 81       	ldd	r22, Z+4	; 0x04
    34d4:	75 81       	ldd	r23, Z+5	; 0x05
    34d6:	86 81       	ldd	r24, Z+6	; 0x06
    34d8:	97 81       	ldd	r25, Z+7	; 0x07
    34da:	0e 94 bf 38 	call	0x717e	; 0x717e <__addsf3>
    34de:	f5 01       	movw	r30, r10
    34e0:	64 83       	std	Z+4, r22	; 0x04
    34e2:	75 83       	std	Z+5, r23	; 0x05
    34e4:	86 83       	std	Z+6, r24	; 0x06
    34e6:	97 83       	std	Z+7, r25	; 0x07
    34e8:	89 85       	ldd	r24, Y+9	; 0x09
    34ea:	9a 85       	ldd	r25, Y+10	; 0x0a
    34ec:	c8 9e       	mul	r12, r24
    34ee:	b0 01       	movw	r22, r0
    34f0:	c9 9e       	mul	r12, r25
    34f2:	70 0d       	add	r23, r0
    34f4:	d8 9e       	mul	r13, r24
    34f6:	70 0d       	add	r23, r0
    34f8:	11 24       	eor	r1, r1
    34fa:	88 27       	eor	r24, r24
    34fc:	77 fd       	sbrc	r23, 7
    34fe:	80 95       	com	r24
    3500:	98 2f       	mov	r25, r24
    3502:	0e 94 c2 39 	call	0x7384	; 0x7384 <__floatsisf>
    3506:	20 e0       	ldi	r18, 0x00	; 0
    3508:	30 e0       	ldi	r19, 0x00	; 0
    350a:	40 ea       	ldi	r20, 0xA0	; 160
    350c:	51 e4       	ldi	r21, 0x41	; 65
    350e:	0e 94 27 39 	call	0x724e	; 0x724e <__divsf3>
    3512:	f5 01       	movw	r30, r10
    3514:	60 87       	std	Z+8, r22	; 0x08
    3516:	71 87       	std	Z+9, r23	; 0x09
    3518:	82 87       	std	Z+10, r24	; 0x0a
    351a:	93 87       	std	Z+11, r25	; 0x0b
    351c:	e4 86       	std	Z+12, r14	; 0x0c
    351e:	f5 86       	std	Z+13, r15	; 0x0d
    3520:	06 87       	std	Z+14, r16	; 0x0e
    3522:	17 87       	std	Z+15, r17	; 0x0f
    3524:	e4 80       	ldd	r14, Z+4	; 0x04
    3526:	f5 80       	ldd	r15, Z+5	; 0x05
    3528:	06 81       	ldd	r16, Z+6	; 0x06
    352a:	17 81       	ldd	r17, Z+7	; 0x07
    352c:	6f 81       	ldd	r22, Y+7	; 0x07
    352e:	78 85       	ldd	r23, Y+8	; 0x08
    3530:	88 27       	eor	r24, r24
    3532:	77 fd       	sbrc	r23, 7
    3534:	80 95       	com	r24
    3536:	98 2f       	mov	r25, r24
    3538:	0e 94 c2 39 	call	0x7384	; 0x7384 <__floatsisf>
    353c:	9b 01       	movw	r18, r22
    353e:	ac 01       	movw	r20, r24
    3540:	c8 01       	movw	r24, r16
    3542:	b7 01       	movw	r22, r14
    3544:	0e 94 8b 22 	call	0x4516	; 0x4516 <Limiterf>
    3548:	f5 01       	movw	r30, r10
    354a:	64 83       	std	Z+4, r22	; 0x04
    354c:	75 83       	std	Z+5, r23	; 0x05
    354e:	86 83       	std	Z+6, r24	; 0x06
    3550:	97 83       	std	Z+7, r25	; 0x07
    3552:	e0 80       	ld	r14, Z
    3554:	f1 80       	ldd	r15, Z+1	; 0x01
    3556:	02 81       	ldd	r16, Z+2	; 0x02
    3558:	13 81       	ldd	r17, Z+3	; 0x03
    355a:	6b 81       	ldd	r22, Y+3	; 0x03
    355c:	7c 81       	ldd	r23, Y+4	; 0x04
    355e:	88 27       	eor	r24, r24
    3560:	77 fd       	sbrc	r23, 7
    3562:	80 95       	com	r24
    3564:	98 2f       	mov	r25, r24
    3566:	0e 94 c2 39 	call	0x7384	; 0x7384 <__floatsisf>
    356a:	9b 01       	movw	r18, r22
    356c:	ac 01       	movw	r20, r24
    356e:	c8 01       	movw	r24, r16
    3570:	b7 01       	movw	r22, r14
    3572:	0e 94 8b 22 	call	0x4516	; 0x4516 <Limiterf>
    3576:	f5 01       	movw	r30, r10
    3578:	60 83       	st	Z, r22
    357a:	71 83       	std	Z+1, r23	; 0x01
    357c:	82 83       	std	Z+2, r24	; 0x02
    357e:	93 83       	std	Z+3, r25	; 0x03
    3580:	e0 84       	ldd	r14, Z+8	; 0x08
    3582:	f1 84       	ldd	r15, Z+9	; 0x09
    3584:	02 85       	ldd	r16, Z+10	; 0x0a
    3586:	13 85       	ldd	r17, Z+11	; 0x0b
    3588:	6b 85       	ldd	r22, Y+11	; 0x0b
    358a:	7c 85       	ldd	r23, Y+12	; 0x0c
    358c:	88 27       	eor	r24, r24
    358e:	77 fd       	sbrc	r23, 7
    3590:	80 95       	com	r24
    3592:	98 2f       	mov	r25, r24
    3594:	0e 94 c2 39 	call	0x7384	; 0x7384 <__floatsisf>
    3598:	9b 01       	movw	r18, r22
    359a:	ac 01       	movw	r20, r24
    359c:	c8 01       	movw	r24, r16
    359e:	b7 01       	movw	r22, r14
    35a0:	0e 94 8b 22 	call	0x4516	; 0x4516 <Limiterf>
    35a4:	7b 01       	movw	r14, r22
    35a6:	8c 01       	movw	r16, r24
    35a8:	f5 01       	movw	r30, r10
    35aa:	60 87       	std	Z+8, r22	; 0x08
    35ac:	71 87       	std	Z+9, r23	; 0x09
    35ae:	82 87       	std	Z+10, r24	; 0x0a
    35b0:	93 87       	std	Z+11, r25	; 0x0b
    35b2:	60 81       	ld	r22, Z
    35b4:	71 81       	ldd	r23, Z+1	; 0x01
    35b6:	82 81       	ldd	r24, Z+2	; 0x02
    35b8:	93 81       	ldd	r25, Z+3	; 0x03
    35ba:	24 81       	ldd	r18, Z+4	; 0x04
    35bc:	35 81       	ldd	r19, Z+5	; 0x05
    35be:	46 81       	ldd	r20, Z+6	; 0x06
    35c0:	57 81       	ldd	r21, Z+7	; 0x07
    35c2:	0e 94 bf 38 	call	0x717e	; 0x717e <__addsf3>
    35c6:	a8 01       	movw	r20, r16
    35c8:	97 01       	movw	r18, r14
    35ca:	0e 94 bf 38 	call	0x717e	; 0x717e <__addsf3>
    35ce:	2e 96       	adiw	r28, 0x0e	; 14
    35d0:	0f b6       	in	r0, 0x3f	; 63
    35d2:	f8 94       	cli
    35d4:	de bf       	out	0x3e, r29	; 62
    35d6:	0f be       	out	0x3f, r0	; 63
    35d8:	cd bf       	out	0x3d, r28	; 61
    35da:	cf 91       	pop	r28
    35dc:	df 91       	pop	r29
    35de:	1f 91       	pop	r17
    35e0:	0f 91       	pop	r16
    35e2:	ff 90       	pop	r15
    35e4:	ef 90       	pop	r14
    35e6:	df 90       	pop	r13
    35e8:	cf 90       	pop	r12
    35ea:	bf 90       	pop	r11
    35ec:	af 90       	pop	r10
    35ee:	08 95       	ret

000035f0 <ZERO_Is>:
    35f0:	80 e0       	ldi	r24, 0x00	; 0
    35f2:	90 e0       	ldi	r25, 0x00	; 0
    35f4:	dc 01       	movw	r26, r24
    35f6:	80 93 68 06 	sts	0x0668, r24
    35fa:	90 93 69 06 	sts	0x0669, r25
    35fe:	a0 93 6a 06 	sts	0x066A, r26
    3602:	b0 93 6b 06 	sts	0x066B, r27
    3606:	80 93 80 06 	sts	0x0680, r24
    360a:	90 93 81 06 	sts	0x0681, r25
    360e:	a0 93 82 06 	sts	0x0682, r26
    3612:	b0 93 83 06 	sts	0x0683, r27
    3616:	80 93 98 06 	sts	0x0698, r24
    361a:	90 93 99 06 	sts	0x0699, r25
    361e:	a0 93 9a 06 	sts	0x069A, r26
    3622:	b0 93 9b 06 	sts	0x069B, r27
    3626:	80 93 54 05 	sts	0x0554, r24
    362a:	90 93 55 05 	sts	0x0555, r25
    362e:	a0 93 56 05 	sts	0x0556, r26
    3632:	b0 93 57 05 	sts	0x0557, r27
    3636:	80 93 6c 05 	sts	0x056C, r24
    363a:	90 93 6d 05 	sts	0x056D, r25
    363e:	a0 93 6e 05 	sts	0x056E, r26
    3642:	b0 93 6f 05 	sts	0x056F, r27
    3646:	80 93 84 05 	sts	0x0584, r24
    364a:	90 93 85 05 	sts	0x0585, r25
    364e:	a0 93 86 05 	sts	0x0586, r26
    3652:	b0 93 87 05 	sts	0x0587, r27
    3656:	80 93 8e 07 	sts	0x078E, r24
    365a:	90 93 8f 07 	sts	0x078F, r25
    365e:	a0 93 90 07 	sts	0x0790, r26
    3662:	b0 93 91 07 	sts	0x0791, r27
    3666:	08 95       	ret

00003668 <IMU_Reset>:
    3668:	80 e0       	ldi	r24, 0x00	; 0
    366a:	90 e0       	ldi	r25, 0x00	; 0
    366c:	dc 01       	movw	r26, r24
    366e:	80 93 18 06 	sts	0x0618, r24
    3672:	90 93 19 06 	sts	0x0619, r25
    3676:	a0 93 1a 06 	sts	0x061A, r26
    367a:	b0 93 1b 06 	sts	0x061B, r27
    367e:	80 93 ca 06 	sts	0x06CA, r24
    3682:	90 93 cb 06 	sts	0x06CB, r25
    3686:	a0 93 cc 06 	sts	0x06CC, r26
    368a:	b0 93 cd 06 	sts	0x06CD, r27
    368e:	08 95       	ret

00003690 <IMU>:
    3690:	2f 92       	push	r2
    3692:	3f 92       	push	r3
    3694:	4f 92       	push	r4
    3696:	5f 92       	push	r5
    3698:	6f 92       	push	r6
    369a:	7f 92       	push	r7
    369c:	8f 92       	push	r8
    369e:	9f 92       	push	r9
    36a0:	af 92       	push	r10
    36a2:	bf 92       	push	r11
    36a4:	cf 92       	push	r12
    36a6:	df 92       	push	r13
    36a8:	ef 92       	push	r14
    36aa:	ff 92       	push	r15
    36ac:	0f 93       	push	r16
    36ae:	1f 93       	push	r17
    36b0:	df 93       	push	r29
    36b2:	cf 93       	push	r28
    36b4:	00 d0       	rcall	.+0      	; 0x36b6 <IMU+0x26>
    36b6:	00 d0       	rcall	.+0      	; 0x36b8 <IMU+0x28>
    36b8:	00 d0       	rcall	.+0      	; 0x36ba <IMU+0x2a>
    36ba:	cd b7       	in	r28, 0x3d	; 61
    36bc:	de b7       	in	r29, 0x3e	; 62
    36be:	60 91 31 07 	lds	r22, 0x0731
    36c2:	70 91 32 07 	lds	r23, 0x0732
    36c6:	88 27       	eor	r24, r24
    36c8:	77 fd       	sbrc	r23, 7
    36ca:	80 95       	com	r24
    36cc:	98 2f       	mov	r25, r24
    36ce:	0e 94 c2 39 	call	0x7384	; 0x7384 <__floatsisf>
    36d2:	20 e0       	ldi	r18, 0x00	; 0
    36d4:	30 e0       	ldi	r19, 0x00	; 0
    36d6:	4a e7       	ldi	r20, 0x7A	; 122
    36d8:	54 e4       	ldi	r21, 0x44	; 68
    36da:	0e 94 27 39 	call	0x724e	; 0x724e <__divsf3>
    36de:	b6 2e       	mov	r11, r22
    36e0:	c7 2e       	mov	r12, r23
    36e2:	d8 2e       	mov	r13, r24
    36e4:	e9 2e       	mov	r14, r25
    36e6:	20 90 47 06 	lds	r2, 0x0647
    36ea:	30 90 48 06 	lds	r3, 0x0648
    36ee:	20 91 39 06 	lds	r18, 0x0639
    36f2:	30 91 3a 06 	lds	r19, 0x063A
    36f6:	40 91 3b 06 	lds	r20, 0x063B
    36fa:	50 91 3c 06 	lds	r21, 0x063C
    36fe:	0e 94 76 3a 	call	0x74ec	; 0x74ec <__mulsf3>
    3702:	3b 01       	movw	r6, r22
    3704:	4c 01       	movw	r8, r24
    3706:	60 e0       	ldi	r22, 0x00	; 0
    3708:	70 e0       	ldi	r23, 0x00	; 0
    370a:	80 e8       	ldi	r24, 0x80	; 128
    370c:	9f e3       	ldi	r25, 0x3F	; 63
    370e:	2b 2d       	mov	r18, r11
    3710:	3c 2d       	mov	r19, r12
    3712:	4d 2d       	mov	r20, r13
    3714:	5e 2d       	mov	r21, r14
    3716:	0e 94 be 38 	call	0x717c	; 0x717c <__subsf3>
    371a:	7b 01       	movw	r14, r22
    371c:	8c 01       	movw	r16, r24
    371e:	b1 01       	movw	r22, r2
    3720:	88 27       	eor	r24, r24
    3722:	77 fd       	sbrc	r23, 7
    3724:	80 95       	com	r24
    3726:	98 2f       	mov	r25, r24
    3728:	0e 94 c2 39 	call	0x7384	; 0x7384 <__floatsisf>
    372c:	9b 01       	movw	r18, r22
    372e:	ac 01       	movw	r20, r24
    3730:	c8 01       	movw	r24, r16
    3732:	b7 01       	movw	r22, r14
    3734:	0e 94 76 3a 	call	0x74ec	; 0x74ec <__mulsf3>
    3738:	9b 01       	movw	r18, r22
    373a:	ac 01       	movw	r20, r24
    373c:	c4 01       	movw	r24, r8
    373e:	b3 01       	movw	r22, r6
    3740:	0e 94 bf 38 	call	0x717e	; 0x717e <__addsf3>
    3744:	60 93 39 06 	sts	0x0639, r22
    3748:	70 93 3a 06 	sts	0x063A, r23
    374c:	80 93 3b 06 	sts	0x063B, r24
    3750:	90 93 3c 06 	sts	0x063C, r25
    3754:	60 91 07 07 	lds	r22, 0x0707
    3758:	70 91 08 07 	lds	r23, 0x0708
    375c:	88 27       	eor	r24, r24
    375e:	77 fd       	sbrc	r23, 7
    3760:	80 95       	com	r24
    3762:	98 2f       	mov	r25, r24
    3764:	0e 94 c2 39 	call	0x7384	; 0x7384 <__floatsisf>
    3768:	20 e0       	ldi	r18, 0x00	; 0
    376a:	30 e0       	ldi	r19, 0x00	; 0
    376c:	4a e7       	ldi	r20, 0x7A	; 122
    376e:	54 e4       	ldi	r21, 0x44	; 68
    3770:	0e 94 27 39 	call	0x724e	; 0x724e <__divsf3>
    3774:	b6 2e       	mov	r11, r22
    3776:	c7 2e       	mov	r12, r23
    3778:	d8 2e       	mov	r13, r24
    377a:	e9 2e       	mov	r14, r25
    377c:	20 90 41 06 	lds	r2, 0x0641
    3780:	30 90 42 06 	lds	r3, 0x0642
    3784:	20 91 1f 06 	lds	r18, 0x061F
    3788:	30 91 20 06 	lds	r19, 0x0620
    378c:	40 91 21 06 	lds	r20, 0x0621
    3790:	50 91 22 06 	lds	r21, 0x0622
    3794:	0e 94 76 3a 	call	0x74ec	; 0x74ec <__mulsf3>
    3798:	3b 01       	movw	r6, r22
    379a:	4c 01       	movw	r8, r24
    379c:	60 e0       	ldi	r22, 0x00	; 0
    379e:	70 e0       	ldi	r23, 0x00	; 0
    37a0:	80 e8       	ldi	r24, 0x80	; 128
    37a2:	9f e3       	ldi	r25, 0x3F	; 63
    37a4:	2b 2d       	mov	r18, r11
    37a6:	3c 2d       	mov	r19, r12
    37a8:	4d 2d       	mov	r20, r13
    37aa:	5e 2d       	mov	r21, r14
    37ac:	0e 94 be 38 	call	0x717c	; 0x717c <__subsf3>
    37b0:	7b 01       	movw	r14, r22
    37b2:	8c 01       	movw	r16, r24
    37b4:	b1 01       	movw	r22, r2
    37b6:	88 27       	eor	r24, r24
    37b8:	77 fd       	sbrc	r23, 7
    37ba:	80 95       	com	r24
    37bc:	98 2f       	mov	r25, r24
    37be:	0e 94 c2 39 	call	0x7384	; 0x7384 <__floatsisf>
    37c2:	9b 01       	movw	r18, r22
    37c4:	ac 01       	movw	r20, r24
    37c6:	c8 01       	movw	r24, r16
    37c8:	b7 01       	movw	r22, r14
    37ca:	0e 94 76 3a 	call	0x74ec	; 0x74ec <__mulsf3>
    37ce:	9b 01       	movw	r18, r22
    37d0:	ac 01       	movw	r20, r24
    37d2:	c4 01       	movw	r24, r8
    37d4:	b3 01       	movw	r22, r6
    37d6:	0e 94 bf 38 	call	0x717e	; 0x717e <__addsf3>
    37da:	60 93 1f 06 	sts	0x061F, r22
    37de:	70 93 20 06 	sts	0x0620, r23
    37e2:	80 93 21 06 	sts	0x0621, r24
    37e6:	90 93 22 06 	sts	0x0622, r25
    37ea:	60 91 eb 06 	lds	r22, 0x06EB
    37ee:	70 91 ec 06 	lds	r23, 0x06EC
    37f2:	88 27       	eor	r24, r24
    37f4:	77 fd       	sbrc	r23, 7
    37f6:	80 95       	com	r24
    37f8:	98 2f       	mov	r25, r24
    37fa:	0e 94 c2 39 	call	0x7384	; 0x7384 <__floatsisf>
    37fe:	20 e0       	ldi	r18, 0x00	; 0
    3800:	30 e0       	ldi	r19, 0x00	; 0
    3802:	4a e7       	ldi	r20, 0x7A	; 122
    3804:	54 e4       	ldi	r21, 0x44	; 68
    3806:	0e 94 27 39 	call	0x724e	; 0x724e <__divsf3>
    380a:	b6 2e       	mov	r11, r22
    380c:	c7 2e       	mov	r12, r23
    380e:	d8 2e       	mov	r13, r24
    3810:	e9 2e       	mov	r14, r25
    3812:	20 90 3f 06 	lds	r2, 0x063F
    3816:	30 90 40 06 	lds	r3, 0x0640
    381a:	20 91 e2 05 	lds	r18, 0x05E2
    381e:	30 91 e3 05 	lds	r19, 0x05E3
    3822:	40 91 e4 05 	lds	r20, 0x05E4
    3826:	50 91 e5 05 	lds	r21, 0x05E5
    382a:	0e 94 76 3a 	call	0x74ec	; 0x74ec <__mulsf3>
    382e:	3b 01       	movw	r6, r22
    3830:	4c 01       	movw	r8, r24
    3832:	60 e0       	ldi	r22, 0x00	; 0
    3834:	70 e0       	ldi	r23, 0x00	; 0
    3836:	80 e8       	ldi	r24, 0x80	; 128
    3838:	9f e3       	ldi	r25, 0x3F	; 63
    383a:	2b 2d       	mov	r18, r11
    383c:	3c 2d       	mov	r19, r12
    383e:	4d 2d       	mov	r20, r13
    3840:	5e 2d       	mov	r21, r14
    3842:	0e 94 be 38 	call	0x717c	; 0x717c <__subsf3>
    3846:	7b 01       	movw	r14, r22
    3848:	8c 01       	movw	r16, r24
    384a:	b1 01       	movw	r22, r2
    384c:	88 27       	eor	r24, r24
    384e:	77 fd       	sbrc	r23, 7
    3850:	80 95       	com	r24
    3852:	98 2f       	mov	r25, r24
    3854:	0e 94 c2 39 	call	0x7384	; 0x7384 <__floatsisf>
    3858:	9b 01       	movw	r18, r22
    385a:	ac 01       	movw	r20, r24
    385c:	c8 01       	movw	r24, r16
    385e:	b7 01       	movw	r22, r14
    3860:	0e 94 76 3a 	call	0x74ec	; 0x74ec <__mulsf3>
    3864:	9b 01       	movw	r18, r22
    3866:	ac 01       	movw	r20, r24
    3868:	c4 01       	movw	r24, r8
    386a:	b3 01       	movw	r22, r6
    386c:	0e 94 bf 38 	call	0x717e	; 0x717e <__addsf3>
    3870:	a6 2e       	mov	r10, r22
    3872:	97 2e       	mov	r9, r23
    3874:	88 2e       	mov	r8, r24
    3876:	79 2e       	mov	r7, r25
    3878:	86 2f       	mov	r24, r22
    387a:	99 2d       	mov	r25, r9
    387c:	a8 2d       	mov	r26, r8
    387e:	b7 2d       	mov	r27, r7
    3880:	80 93 e2 05 	sts	0x05E2, r24
    3884:	90 93 e3 05 	sts	0x05E3, r25
    3888:	a0 93 e4 05 	sts	0x05E4, r26
    388c:	b0 93 e5 05 	sts	0x05E5, r27
    3890:	60 91 f9 06 	lds	r22, 0x06F9
    3894:	70 91 fa 06 	lds	r23, 0x06FA
    3898:	88 27       	eor	r24, r24
    389a:	77 fd       	sbrc	r23, 7
    389c:	80 95       	com	r24
    389e:	98 2f       	mov	r25, r24
    38a0:	0e 94 c2 39 	call	0x7384	; 0x7384 <__floatsisf>
    38a4:	20 e0       	ldi	r18, 0x00	; 0
    38a6:	30 e0       	ldi	r19, 0x00	; 0
    38a8:	4a e7       	ldi	r20, 0x7A	; 122
    38aa:	54 e4       	ldi	r21, 0x44	; 68
    38ac:	0e 94 27 39 	call	0x724e	; 0x724e <__divsf3>
    38b0:	b6 2e       	mov	r11, r22
    38b2:	c7 2e       	mov	r12, r23
    38b4:	d8 2e       	mov	r13, r24
    38b6:	e9 2e       	mov	r14, r25
    38b8:	20 91 3d 06 	lds	r18, 0x063D
    38bc:	30 91 3e 06 	lds	r19, 0x063E
    38c0:	3e 83       	std	Y+6, r19	; 0x06
    38c2:	2d 83       	std	Y+5, r18	; 0x05
    38c4:	20 91 60 06 	lds	r18, 0x0660
    38c8:	30 91 61 06 	lds	r19, 0x0661
    38cc:	40 91 62 06 	lds	r20, 0x0662
    38d0:	50 91 63 06 	lds	r21, 0x0663
    38d4:	0e 94 76 3a 	call	0x74ec	; 0x74ec <__mulsf3>
    38d8:	1b 01       	movw	r2, r22
    38da:	2c 01       	movw	r4, r24
    38dc:	60 e0       	ldi	r22, 0x00	; 0
    38de:	70 e0       	ldi	r23, 0x00	; 0
    38e0:	80 e8       	ldi	r24, 0x80	; 128
    38e2:	9f e3       	ldi	r25, 0x3F	; 63
    38e4:	2b 2d       	mov	r18, r11
    38e6:	3c 2d       	mov	r19, r12
    38e8:	4d 2d       	mov	r20, r13
    38ea:	5e 2d       	mov	r21, r14
    38ec:	0e 94 be 38 	call	0x717c	; 0x717c <__subsf3>
    38f0:	7b 01       	movw	r14, r22
    38f2:	8c 01       	movw	r16, r24
    38f4:	ed 81       	ldd	r30, Y+5	; 0x05
    38f6:	fe 81       	ldd	r31, Y+6	; 0x06
    38f8:	bf 01       	movw	r22, r30
    38fa:	88 27       	eor	r24, r24
    38fc:	77 fd       	sbrc	r23, 7
    38fe:	80 95       	com	r24
    3900:	98 2f       	mov	r25, r24
    3902:	0e 94 c2 39 	call	0x7384	; 0x7384 <__floatsisf>
    3906:	9b 01       	movw	r18, r22
    3908:	ac 01       	movw	r20, r24
    390a:	c8 01       	movw	r24, r16
    390c:	b7 01       	movw	r22, r14
    390e:	0e 94 76 3a 	call	0x74ec	; 0x74ec <__mulsf3>
    3912:	9b 01       	movw	r18, r22
    3914:	ac 01       	movw	r20, r24
    3916:	c2 01       	movw	r24, r4
    3918:	b1 01       	movw	r22, r2
    391a:	0e 94 bf 38 	call	0x717e	; 0x717e <__addsf3>
    391e:	60 93 60 06 	sts	0x0660, r22
    3922:	70 93 61 06 	sts	0x0661, r23
    3926:	80 93 62 06 	sts	0x0662, r24
    392a:	90 93 63 06 	sts	0x0663, r25
    392e:	00 d0       	rcall	.+0      	; 0x3930 <IMU+0x2a0>
    3930:	00 d0       	rcall	.+0      	; 0x3932 <IMU+0x2a2>
    3932:	8a 2d       	mov	r24, r10
    3934:	99 2d       	mov	r25, r9
    3936:	a8 2d       	mov	r26, r8
    3938:	b7 2d       	mov	r27, r7
    393a:	ed b7       	in	r30, 0x3d	; 61
    393c:	fe b7       	in	r31, 0x3e	; 62
    393e:	81 83       	std	Z+1, r24	; 0x01
    3940:	92 83       	std	Z+2, r25	; 0x02
    3942:	a3 83       	std	Z+3, r26	; 0x03
    3944:	b4 83       	std	Z+4, r27	; 0x04
    3946:	c0 90 df 06 	lds	r12, 0x06DF
    394a:	d0 90 e0 06 	lds	r13, 0x06E0
    394e:	e0 90 e1 06 	lds	r14, 0x06E1
    3952:	f0 90 e2 06 	lds	r15, 0x06E2
    3956:	00 91 e3 06 	lds	r16, 0x06E3
    395a:	10 91 e4 06 	lds	r17, 0x06E4
    395e:	20 91 e5 06 	lds	r18, 0x06E5
    3962:	30 91 e6 06 	lds	r19, 0x06E6
    3966:	40 91 e7 06 	lds	r20, 0x06E7
    396a:	50 91 e8 06 	lds	r21, 0x06E8
    396e:	60 91 e9 06 	lds	r22, 0x06E9
    3972:	70 91 ea 06 	lds	r23, 0x06EA
    3976:	80 91 eb 06 	lds	r24, 0x06EB
    397a:	90 91 ec 06 	lds	r25, 0x06EC
    397e:	e4 e6       	ldi	r30, 0x64	; 100
    3980:	ae 2e       	mov	r10, r30
    3982:	e6 e0       	ldi	r30, 0x06	; 6
    3984:	be 2e       	mov	r11, r30
    3986:	0e 94 f6 19 	call	0x33ec	; 0x33ec <PID_Calculate>
    398a:	0e 94 8f 39 	call	0x731e	; 0x731e <__fixsfsi>
    398e:	70 93 38 06 	sts	0x0638, r23
    3992:	60 93 37 06 	sts	0x0637, r22
    3996:	80 91 60 06 	lds	r24, 0x0660
    399a:	90 91 61 06 	lds	r25, 0x0661
    399e:	a0 91 62 06 	lds	r26, 0x0662
    39a2:	b0 91 63 06 	lds	r27, 0x0663
    39a6:	ed b7       	in	r30, 0x3d	; 61
    39a8:	fe b7       	in	r31, 0x3e	; 62
    39aa:	81 83       	std	Z+1, r24	; 0x01
    39ac:	92 83       	std	Z+2, r25	; 0x02
    39ae:	a3 83       	std	Z+3, r26	; 0x03
    39b0:	b4 83       	std	Z+4, r27	; 0x04
    39b2:	c0 90 ed 06 	lds	r12, 0x06ED
    39b6:	d0 90 ee 06 	lds	r13, 0x06EE
    39ba:	e0 90 ef 06 	lds	r14, 0x06EF
    39be:	f0 90 f0 06 	lds	r15, 0x06F0
    39c2:	00 91 f1 06 	lds	r16, 0x06F1
    39c6:	10 91 f2 06 	lds	r17, 0x06F2
    39ca:	20 91 f3 06 	lds	r18, 0x06F3
    39ce:	30 91 f4 06 	lds	r19, 0x06F4
    39d2:	40 91 f5 06 	lds	r20, 0x06F5
    39d6:	50 91 f6 06 	lds	r21, 0x06F6
    39da:	60 91 f7 06 	lds	r22, 0x06F7
    39de:	70 91 f8 06 	lds	r23, 0x06F8
    39e2:	80 91 f9 06 	lds	r24, 0x06F9
    39e6:	90 91 fa 06 	lds	r25, 0x06FA
    39ea:	bc e7       	ldi	r27, 0x7C	; 124
    39ec:	ab 2e       	mov	r10, r27
    39ee:	b6 e0       	ldi	r27, 0x06	; 6
    39f0:	bb 2e       	mov	r11, r27
    39f2:	0e 94 f6 19 	call	0x33ec	; 0x33ec <PID_Calculate>
    39f6:	0e 94 8f 39 	call	0x731e	; 0x731e <__fixsfsi>
    39fa:	70 93 b9 05 	sts	0x05B9, r23
    39fe:	60 93 b8 05 	sts	0x05B8, r22
    3a02:	ed b6       	in	r14, 0x3d	; 61
    3a04:	fe b6       	in	r15, 0x3e	; 62
    3a06:	08 94       	sec
    3a08:	e1 1c       	adc	r14, r1
    3a0a:	f1 1c       	adc	r15, r1
    3a0c:	60 91 c4 05 	lds	r22, 0x05C4
    3a10:	70 91 c5 05 	lds	r23, 0x05C5
    3a14:	88 27       	eor	r24, r24
    3a16:	77 fd       	sbrc	r23, 7
    3a18:	80 95       	com	r24
    3a1a:	98 2f       	mov	r25, r24
    3a1c:	0e 94 c2 39 	call	0x7384	; 0x7384 <__floatsisf>
    3a20:	20 e0       	ldi	r18, 0x00	; 0
    3a22:	30 e0       	ldi	r19, 0x00	; 0
    3a24:	40 e0       	ldi	r20, 0x00	; 0
    3a26:	5f e3       	ldi	r21, 0x3F	; 63
    3a28:	0e 94 76 3a 	call	0x74ec	; 0x74ec <__mulsf3>
    3a2c:	9b 01       	movw	r18, r22
    3a2e:	ac 01       	movw	r20, r24
    3a30:	60 91 1f 06 	lds	r22, 0x061F
    3a34:	70 91 20 06 	lds	r23, 0x0620
    3a38:	80 91 21 06 	lds	r24, 0x0621
    3a3c:	90 91 22 06 	lds	r25, 0x0622
    3a40:	0e 94 be 38 	call	0x717c	; 0x717c <__subsf3>
    3a44:	f7 01       	movw	r30, r14
    3a46:	60 83       	st	Z, r22
    3a48:	71 83       	std	Z+1, r23	; 0x01
    3a4a:	82 83       	std	Z+2, r24	; 0x02
    3a4c:	93 83       	std	Z+3, r25	; 0x03
    3a4e:	c0 90 fb 06 	lds	r12, 0x06FB
    3a52:	d0 90 fc 06 	lds	r13, 0x06FC
    3a56:	e0 90 fd 06 	lds	r14, 0x06FD
    3a5a:	f0 90 fe 06 	lds	r15, 0x06FE
    3a5e:	00 91 ff 06 	lds	r16, 0x06FF
    3a62:	10 91 00 07 	lds	r17, 0x0700
    3a66:	20 91 01 07 	lds	r18, 0x0701
    3a6a:	30 91 02 07 	lds	r19, 0x0702
    3a6e:	40 91 03 07 	lds	r20, 0x0703
    3a72:	50 91 04 07 	lds	r21, 0x0704
    3a76:	60 91 05 07 	lds	r22, 0x0705
    3a7a:	70 91 06 07 	lds	r23, 0x0706
    3a7e:	80 91 07 07 	lds	r24, 0x0707
    3a82:	90 91 08 07 	lds	r25, 0x0708
    3a86:	a4 e9       	ldi	r26, 0x94	; 148
    3a88:	aa 2e       	mov	r10, r26
    3a8a:	a6 e0       	ldi	r26, 0x06	; 6
    3a8c:	ba 2e       	mov	r11, r26
    3a8e:	0e 94 f6 19 	call	0x33ec	; 0x33ec <PID_Calculate>
    3a92:	0e 94 8f 39 	call	0x731e	; 0x731e <__fixsfsi>
    3a96:	70 93 d0 06 	sts	0x06D0, r23
    3a9a:	60 93 cf 06 	sts	0x06CF, r22
    3a9e:	60 91 43 06 	lds	r22, 0x0643
    3aa2:	70 91 44 06 	lds	r23, 0x0644
    3aa6:	70 95       	com	r23
    3aa8:	61 95       	neg	r22
    3aaa:	7f 4f       	sbci	r23, 0xFF	; 255
    3aac:	80 91 42 07 	lds	r24, 0x0742
    3ab0:	99 27       	eor	r25, r25
    3ab2:	87 fd       	sbrc	r24, 7
    3ab4:	90 95       	com	r25
    3ab6:	68 1b       	sub	r22, r24
    3ab8:	79 0b       	sbc	r23, r25
    3aba:	88 27       	eor	r24, r24
    3abc:	77 fd       	sbrc	r23, 7
    3abe:	80 95       	com	r24
    3ac0:	98 2f       	mov	r25, r24
    3ac2:	0e 94 c2 39 	call	0x7384	; 0x7384 <__floatsisf>
    3ac6:	a6 2e       	mov	r10, r22
    3ac8:	97 2e       	mov	r9, r23
    3aca:	88 2e       	mov	r8, r24
    3acc:	79 2e       	mov	r7, r25
    3ace:	60 91 45 06 	lds	r22, 0x0645
    3ad2:	70 91 46 06 	lds	r23, 0x0646
    3ad6:	70 95       	com	r23
    3ad8:	61 95       	neg	r22
    3ada:	7f 4f       	sbci	r23, 0xFF	; 255
    3adc:	80 91 43 07 	lds	r24, 0x0743
    3ae0:	99 27       	eor	r25, r25
    3ae2:	87 fd       	sbrc	r24, 7
    3ae4:	90 95       	com	r25
    3ae6:	68 1b       	sub	r22, r24
    3ae8:	79 0b       	sbc	r23, r25
    3aea:	88 27       	eor	r24, r24
    3aec:	77 fd       	sbrc	r23, 7
    3aee:	80 95       	com	r24
    3af0:	98 2f       	mov	r25, r24
    3af2:	0e 94 c2 39 	call	0x7384	; 0x7384 <__floatsisf>
    3af6:	69 83       	std	Y+1, r22	; 0x01
    3af8:	7a 83       	std	Y+2, r23	; 0x02
    3afa:	8b 83       	std	Y+3, r24	; 0x03
    3afc:	9c 83       	std	Y+4, r25	; 0x04
    3afe:	80 91 41 06 	lds	r24, 0x0641
    3b02:	90 91 42 06 	lds	r25, 0x0642
    3b06:	e0 90 18 06 	lds	r14, 0x0618
    3b0a:	f0 90 19 06 	lds	r15, 0x0619
    3b0e:	00 91 1a 06 	lds	r16, 0x061A
    3b12:	10 91 1b 06 	lds	r17, 0x061B
    3b16:	60 91 3f 06 	lds	r22, 0x063F
    3b1a:	70 91 40 06 	lds	r23, 0x0640
    3b1e:	88 27       	eor	r24, r24
    3b20:	77 fd       	sbrc	r23, 7
    3b22:	80 95       	com	r24
    3b24:	98 2f       	mov	r25, r24
    3b26:	0e 94 c2 39 	call	0x7384	; 0x7384 <__floatsisf>
    3b2a:	2b e1       	ldi	r18, 0x1B	; 27
    3b2c:	3f e2       	ldi	r19, 0x2F	; 47
    3b2e:	4d ed       	ldi	r20, 0xDD	; 221
    3b30:	5c e3       	ldi	r21, 0x3C	; 60
    3b32:	0e 94 76 3a 	call	0x74ec	; 0x74ec <__mulsf3>
    3b36:	9b 01       	movw	r18, r22
    3b38:	ac 01       	movw	r20, r24
    3b3a:	c8 01       	movw	r24, r16
    3b3c:	b7 01       	movw	r22, r14
    3b3e:	0e 94 bf 38 	call	0x717e	; 0x717e <__addsf3>
    3b42:	9b 01       	movw	r18, r22
    3b44:	ac 01       	movw	r20, r24
    3b46:	20 93 18 06 	sts	0x0618, r18
    3b4a:	30 93 19 06 	sts	0x0619, r19
    3b4e:	40 93 1a 06 	sts	0x061A, r20
    3b52:	50 93 1b 06 	sts	0x061B, r21
    3b56:	e0 90 ca 06 	lds	r14, 0x06CA
    3b5a:	f0 90 cb 06 	lds	r15, 0x06CB
    3b5e:	00 91 cc 06 	lds	r16, 0x06CC
    3b62:	10 91 cd 06 	lds	r17, 0x06CD
    3b66:	60 91 3d 06 	lds	r22, 0x063D
    3b6a:	70 91 3e 06 	lds	r23, 0x063E
    3b6e:	88 27       	eor	r24, r24
    3b70:	77 fd       	sbrc	r23, 7
    3b72:	80 95       	com	r24
    3b74:	98 2f       	mov	r25, r24
    3b76:	0e 94 c2 39 	call	0x7384	; 0x7384 <__floatsisf>
    3b7a:	2b e1       	ldi	r18, 0x1B	; 27
    3b7c:	3f e2       	ldi	r19, 0x2F	; 47
    3b7e:	4d ed       	ldi	r20, 0xDD	; 221
    3b80:	5c e3       	ldi	r21, 0x3C	; 60
    3b82:	0e 94 76 3a 	call	0x74ec	; 0x74ec <__mulsf3>
    3b86:	9b 01       	movw	r18, r22
    3b88:	ac 01       	movw	r20, r24
    3b8a:	c8 01       	movw	r24, r16
    3b8c:	b7 01       	movw	r22, r14
    3b8e:	0e 94 bf 38 	call	0x717e	; 0x717e <__addsf3>
    3b92:	9b 01       	movw	r18, r22
    3b94:	ac 01       	movw	r20, r24
    3b96:	20 93 ca 06 	sts	0x06CA, r18
    3b9a:	30 93 cb 06 	sts	0x06CB, r19
    3b9e:	40 93 cc 06 	sts	0x06CC, r20
    3ba2:	50 93 cd 06 	sts	0x06CD, r21
    3ba6:	e0 90 15 07 	lds	r14, 0x0715
    3baa:	f0 90 16 07 	lds	r15, 0x0716
    3bae:	0f 90       	pop	r0
    3bb0:	0f 90       	pop	r0
    3bb2:	0f 90       	pop	r0
    3bb4:	0f 90       	pop	r0
    3bb6:	6a 2d       	mov	r22, r10
    3bb8:	79 2d       	mov	r23, r9
    3bba:	88 2d       	mov	r24, r8
    3bbc:	97 2d       	mov	r25, r7
    3bbe:	20 e0       	ldi	r18, 0x00	; 0
    3bc0:	30 e0       	ldi	r19, 0x00	; 0
    3bc2:	40 e2       	ldi	r20, 0x20	; 32
    3bc4:	52 e4       	ldi	r21, 0x42	; 66
    3bc6:	0e 94 23 39 	call	0x7246	; 0x7246 <__cmpsf2>
    3bca:	87 ff       	sbrs	r24, 7
    3bcc:	49 c0       	rjmp	.+146    	; 0x3c60 <IMU+0x5d0>
    3bce:	6a 2d       	mov	r22, r10
    3bd0:	79 2d       	mov	r23, r9
    3bd2:	88 2d       	mov	r24, r8
    3bd4:	97 2d       	mov	r25, r7
    3bd6:	20 e0       	ldi	r18, 0x00	; 0
    3bd8:	30 e0       	ldi	r19, 0x00	; 0
    3bda:	40 e2       	ldi	r20, 0x20	; 32
    3bdc:	52 ec       	ldi	r21, 0xC2	; 194
    3bde:	0e 94 72 3a 	call	0x74e4	; 0x74e4 <__gesf2>
    3be2:	18 16       	cp	r1, r24
    3be4:	ec f5       	brge	.+122    	; 0x3c60 <IMU+0x5d0>
    3be6:	b7 01       	movw	r22, r14
    3be8:	88 27       	eor	r24, r24
    3bea:	77 fd       	sbrc	r23, 7
    3bec:	80 95       	com	r24
    3bee:	98 2f       	mov	r25, r24
    3bf0:	0e 94 c2 39 	call	0x7384	; 0x7384 <__floatsisf>
    3bf4:	20 e0       	ldi	r18, 0x00	; 0
    3bf6:	30 e0       	ldi	r19, 0x00	; 0
    3bf8:	4a e7       	ldi	r20, 0x7A	; 122
    3bfa:	54 e4       	ldi	r21, 0x44	; 68
    3bfc:	0e 94 27 39 	call	0x724e	; 0x724e <__divsf3>
    3c00:	6b 01       	movw	r12, r22
    3c02:	e8 2e       	mov	r14, r24
    3c04:	b9 2e       	mov	r11, r25
    3c06:	20 91 18 06 	lds	r18, 0x0618
    3c0a:	30 91 19 06 	lds	r19, 0x0619
    3c0e:	40 91 1a 06 	lds	r20, 0x061A
    3c12:	50 91 1b 06 	lds	r21, 0x061B
    3c16:	7d 2d       	mov	r23, r13
    3c18:	0e 94 76 3a 	call	0x74ec	; 0x74ec <__mulsf3>
    3c1c:	1b 01       	movw	r2, r22
    3c1e:	2c 01       	movw	r4, r24
    3c20:	60 e0       	ldi	r22, 0x00	; 0
    3c22:	70 e0       	ldi	r23, 0x00	; 0
    3c24:	80 e8       	ldi	r24, 0x80	; 128
    3c26:	9f e3       	ldi	r25, 0x3F	; 63
    3c28:	2c 2d       	mov	r18, r12
    3c2a:	3d 2d       	mov	r19, r13
    3c2c:	4e 2d       	mov	r20, r14
    3c2e:	5b 2d       	mov	r21, r11
    3c30:	0e 94 be 38 	call	0x717c	; 0x717c <__subsf3>
    3c34:	2a 2d       	mov	r18, r10
    3c36:	39 2d       	mov	r19, r9
    3c38:	48 2d       	mov	r20, r8
    3c3a:	57 2d       	mov	r21, r7
    3c3c:	0e 94 76 3a 	call	0x74ec	; 0x74ec <__mulsf3>
    3c40:	9b 01       	movw	r18, r22
    3c42:	ac 01       	movw	r20, r24
    3c44:	c2 01       	movw	r24, r4
    3c46:	b1 01       	movw	r22, r2
    3c48:	0e 94 bf 38 	call	0x717e	; 0x717e <__addsf3>
    3c4c:	9b 01       	movw	r18, r22
    3c4e:	ac 01       	movw	r20, r24
    3c50:	20 93 18 06 	sts	0x0618, r18
    3c54:	30 93 19 06 	sts	0x0619, r19
    3c58:	40 93 1a 06 	sts	0x061A, r20
    3c5c:	50 93 1b 06 	sts	0x061B, r21
    3c60:	e0 90 23 07 	lds	r14, 0x0723
    3c64:	f0 90 24 07 	lds	r15, 0x0724
    3c68:	59 81       	ldd	r21, Y+1	; 0x01
    3c6a:	4a 81       	ldd	r20, Y+2	; 0x02
    3c6c:	3b 81       	ldd	r19, Y+3	; 0x03
    3c6e:	2c 81       	ldd	r18, Y+4	; 0x04
    3c70:	65 2f       	mov	r22, r21
    3c72:	74 2f       	mov	r23, r20
    3c74:	83 2f       	mov	r24, r19
    3c76:	92 2f       	mov	r25, r18
    3c78:	20 e0       	ldi	r18, 0x00	; 0
    3c7a:	30 e0       	ldi	r19, 0x00	; 0
    3c7c:	40 e2       	ldi	r20, 0x20	; 32
    3c7e:	52 e4       	ldi	r21, 0x42	; 66
    3c80:	0e 94 23 39 	call	0x7246	; 0x7246 <__cmpsf2>
    3c84:	87 ff       	sbrs	r24, 7
    3c86:	52 c0       	rjmp	.+164    	; 0x3d2c <IMU+0x69c>
    3c88:	59 81       	ldd	r21, Y+1	; 0x01
    3c8a:	4a 81       	ldd	r20, Y+2	; 0x02
    3c8c:	3b 81       	ldd	r19, Y+3	; 0x03
    3c8e:	2c 81       	ldd	r18, Y+4	; 0x04
    3c90:	65 2f       	mov	r22, r21
    3c92:	74 2f       	mov	r23, r20
    3c94:	83 2f       	mov	r24, r19
    3c96:	92 2f       	mov	r25, r18
    3c98:	20 e0       	ldi	r18, 0x00	; 0
    3c9a:	30 e0       	ldi	r19, 0x00	; 0
    3c9c:	40 e2       	ldi	r20, 0x20	; 32
    3c9e:	52 ec       	ldi	r21, 0xC2	; 194
    3ca0:	0e 94 72 3a 	call	0x74e4	; 0x74e4 <__gesf2>
    3ca4:	18 16       	cp	r1, r24
    3ca6:	0c f0       	brlt	.+2      	; 0x3caa <IMU+0x61a>
    3ca8:	41 c0       	rjmp	.+130    	; 0x3d2c <IMU+0x69c>
    3caa:	b7 01       	movw	r22, r14
    3cac:	88 27       	eor	r24, r24
    3cae:	77 fd       	sbrc	r23, 7
    3cb0:	80 95       	com	r24
    3cb2:	98 2f       	mov	r25, r24
    3cb4:	0e 94 c2 39 	call	0x7384	; 0x7384 <__floatsisf>
    3cb8:	20 e0       	ldi	r18, 0x00	; 0
    3cba:	30 e0       	ldi	r19, 0x00	; 0
    3cbc:	4a e7       	ldi	r20, 0x7A	; 122
    3cbe:	54 e4       	ldi	r21, 0x44	; 68
    3cc0:	0e 94 27 39 	call	0x724e	; 0x724e <__divsf3>
    3cc4:	6b 01       	movw	r12, r22
    3cc6:	e8 2e       	mov	r14, r24
    3cc8:	b9 2e       	mov	r11, r25
    3cca:	20 91 ca 06 	lds	r18, 0x06CA
    3cce:	30 91 cb 06 	lds	r19, 0x06CB
    3cd2:	40 91 cc 06 	lds	r20, 0x06CC
    3cd6:	50 91 cd 06 	lds	r21, 0x06CD
    3cda:	7d 2d       	mov	r23, r13
    3cdc:	0e 94 76 3a 	call	0x74ec	; 0x74ec <__mulsf3>
    3ce0:	3b 01       	movw	r6, r22
    3ce2:	4c 01       	movw	r8, r24
    3ce4:	60 e0       	ldi	r22, 0x00	; 0
    3ce6:	70 e0       	ldi	r23, 0x00	; 0
    3ce8:	80 e8       	ldi	r24, 0x80	; 128
    3cea:	9f e3       	ldi	r25, 0x3F	; 63
    3cec:	2c 2d       	mov	r18, r12
    3cee:	3d 2d       	mov	r19, r13
    3cf0:	4e 2d       	mov	r20, r14
    3cf2:	5b 2d       	mov	r21, r11
    3cf4:	0e 94 be 38 	call	0x717c	; 0x717c <__subsf3>
    3cf8:	b9 81       	ldd	r27, Y+1	; 0x01
    3cfa:	aa 81       	ldd	r26, Y+2	; 0x02
    3cfc:	eb 80       	ldd	r14, Y+3	; 0x03
    3cfe:	dc 80       	ldd	r13, Y+4	; 0x04
    3d00:	2b 2f       	mov	r18, r27
    3d02:	3a 2f       	mov	r19, r26
    3d04:	4e 2d       	mov	r20, r14
    3d06:	5d 2d       	mov	r21, r13
    3d08:	0e 94 76 3a 	call	0x74ec	; 0x74ec <__mulsf3>
    3d0c:	9b 01       	movw	r18, r22
    3d0e:	ac 01       	movw	r20, r24
    3d10:	c4 01       	movw	r24, r8
    3d12:	b3 01       	movw	r22, r6
    3d14:	0e 94 bf 38 	call	0x717e	; 0x717e <__addsf3>
    3d18:	9b 01       	movw	r18, r22
    3d1a:	ac 01       	movw	r20, r24
    3d1c:	20 93 ca 06 	sts	0x06CA, r18
    3d20:	30 93 cb 06 	sts	0x06CB, r19
    3d24:	40 93 cc 06 	sts	0x06CC, r20
    3d28:	50 93 cd 06 	sts	0x06CD, r21
    3d2c:	e0 90 18 06 	lds	r14, 0x0618
    3d30:	f0 90 19 06 	lds	r15, 0x0619
    3d34:	00 91 1a 06 	lds	r16, 0x061A
    3d38:	10 91 1b 06 	lds	r17, 0x061B
    3d3c:	e0 92 00 06 	sts	0x0600, r14
    3d40:	f0 92 01 06 	sts	0x0601, r15
    3d44:	00 93 02 06 	sts	0x0602, r16
    3d48:	10 93 03 06 	sts	0x0603, r17
    3d4c:	20 90 ca 06 	lds	r2, 0x06CA
    3d50:	30 90 cb 06 	lds	r3, 0x06CB
    3d54:	40 90 cc 06 	lds	r4, 0x06CC
    3d58:	50 90 cd 06 	lds	r5, 0x06CD
    3d5c:	20 92 4a 05 	sts	0x054A, r2
    3d60:	30 92 4b 05 	sts	0x054B, r3
    3d64:	40 92 4c 05 	sts	0x054C, r4
    3d68:	50 92 4d 05 	sts	0x054D, r5
    3d6c:	80 91 d9 06 	lds	r24, 0x06D9
    3d70:	88 23       	and	r24, r24
    3d72:	09 f0       	breq	.+2      	; 0x3d76 <IMU+0x6e6>
    3d74:	8e c0       	rjmp	.+284    	; 0x3e92 <IMU+0x802>
    3d76:	90 91 da 06 	lds	r25, 0x06DA
    3d7a:	91 30       	cpi	r25, 0x01	; 1
    3d7c:	09 f0       	breq	.+2      	; 0x3d80 <IMU+0x6f0>
    3d7e:	89 c0       	rjmp	.+274    	; 0x3e92 <IMU+0x802>
    3d80:	80 91 d8 06 	lds	r24, 0x06D8
    3d84:	c0 90 c0 05 	lds	r12, 0x05C0
    3d88:	d0 90 c1 05 	lds	r13, 0x05C1
    3d8c:	20 91 c2 05 	lds	r18, 0x05C2
    3d90:	30 91 c3 05 	lds	r19, 0x05C3
    3d94:	3e 83       	std	Y+6, r19	; 0x06
    3d96:	2d 83       	std	Y+5, r18	; 0x05
    3d98:	81 30       	cpi	r24, 0x01	; 1
    3d9a:	09 f0       	breq	.+2      	; 0x3d9e <IMU+0x70e>
    3d9c:	49 c0       	rjmp	.+146    	; 0x3e30 <IMU+0x7a0>
    3d9e:	b6 01       	movw	r22, r12
    3da0:	88 27       	eor	r24, r24
    3da2:	77 fd       	sbrc	r23, 7
    3da4:	80 95       	com	r24
    3da6:	98 2f       	mov	r25, r24
    3da8:	0e 94 c2 39 	call	0x7384	; 0x7384 <__floatsisf>
    3dac:	20 e0       	ldi	r18, 0x00	; 0
    3dae:	30 e0       	ldi	r19, 0x00	; 0
    3db0:	40 e0       	ldi	r20, 0x00	; 0
    3db2:	5f e3       	ldi	r21, 0x3F	; 63
    3db4:	0e 94 76 3a 	call	0x74ec	; 0x74ec <__mulsf3>
    3db8:	a6 2e       	mov	r10, r22
    3dba:	97 2e       	mov	r9, r23
    3dbc:	88 2e       	mov	r8, r24
    3dbe:	79 2e       	mov	r7, r25
    3dc0:	ed 81       	ldd	r30, Y+5	; 0x05
    3dc2:	fe 81       	ldd	r31, Y+6	; 0x06
    3dc4:	bf 01       	movw	r22, r30
    3dc6:	88 27       	eor	r24, r24
    3dc8:	77 fd       	sbrc	r23, 7
    3dca:	80 95       	com	r24
    3dcc:	98 2f       	mov	r25, r24
    3dce:	0e 94 c2 39 	call	0x7384	; 0x7384 <__floatsisf>
    3dd2:	20 e0       	ldi	r18, 0x00	; 0
    3dd4:	30 e0       	ldi	r19, 0x00	; 0
    3dd6:	40 e0       	ldi	r20, 0x00	; 0
    3dd8:	5f e3       	ldi	r21, 0x3F	; 63
    3dda:	0e 94 76 3a 	call	0x74ec	; 0x74ec <__mulsf3>
    3dde:	d6 2e       	mov	r13, r22
    3de0:	c7 2e       	mov	r12, r23
    3de2:	b8 2e       	mov	r11, r24
    3de4:	69 2e       	mov	r6, r25
    3de6:	c8 01       	movw	r24, r16
    3de8:	b7 01       	movw	r22, r14
    3dea:	2a 2d       	mov	r18, r10
    3dec:	39 2d       	mov	r19, r9
    3dee:	48 2d       	mov	r20, r8
    3df0:	57 2d       	mov	r21, r7
    3df2:	0e 94 be 38 	call	0x717c	; 0x717c <__subsf3>
    3df6:	d6 01       	movw	r26, r12
    3df8:	2b 2f       	mov	r18, r27
    3dfa:	3a 2f       	mov	r19, r26
    3dfc:	4b 2d       	mov	r20, r11
    3dfe:	56 2d       	mov	r21, r6
    3e00:	0e 94 be 38 	call	0x717c	; 0x717c <__subsf3>
    3e04:	60 93 00 06 	sts	0x0600, r22
    3e08:	70 93 01 06 	sts	0x0601, r23
    3e0c:	80 93 02 06 	sts	0x0602, r24
    3e10:	90 93 03 06 	sts	0x0603, r25
    3e14:	c2 01       	movw	r24, r4
    3e16:	b1 01       	movw	r22, r2
    3e18:	2a 2d       	mov	r18, r10
    3e1a:	39 2d       	mov	r19, r9
    3e1c:	48 2d       	mov	r20, r8
    3e1e:	57 2d       	mov	r21, r7
    3e20:	0e 94 be 38 	call	0x717c	; 0x717c <__subsf3>
    3e24:	d6 01       	movw	r26, r12
    3e26:	2b 2f       	mov	r18, r27
    3e28:	3a 2f       	mov	r19, r26
    3e2a:	4b 2d       	mov	r20, r11
    3e2c:	56 2d       	mov	r21, r6
    3e2e:	2e c0       	rjmp	.+92     	; 0x3e8c <IMU+0x7fc>
    3e30:	2d 81       	ldd	r18, Y+5	; 0x05
    3e32:	3e 81       	ldd	r19, Y+6	; 0x06
    3e34:	b9 01       	movw	r22, r18
    3e36:	88 27       	eor	r24, r24
    3e38:	77 fd       	sbrc	r23, 7
    3e3a:	80 95       	com	r24
    3e3c:	98 2f       	mov	r25, r24
    3e3e:	0e 94 c2 39 	call	0x7384	; 0x7384 <__floatsisf>
    3e42:	20 e0       	ldi	r18, 0x00	; 0
    3e44:	30 e0       	ldi	r19, 0x00	; 0
    3e46:	40 e0       	ldi	r20, 0x00	; 0
    3e48:	5f e3       	ldi	r21, 0x3F	; 63
    3e4a:	0e 94 76 3a 	call	0x74ec	; 0x74ec <__mulsf3>
    3e4e:	9b 01       	movw	r18, r22
    3e50:	ac 01       	movw	r20, r24
    3e52:	c8 01       	movw	r24, r16
    3e54:	b7 01       	movw	r22, r14
    3e56:	0e 94 bf 38 	call	0x717e	; 0x717e <__addsf3>
    3e5a:	60 93 00 06 	sts	0x0600, r22
    3e5e:	70 93 01 06 	sts	0x0601, r23
    3e62:	80 93 02 06 	sts	0x0602, r24
    3e66:	90 93 03 06 	sts	0x0603, r25
    3e6a:	b6 01       	movw	r22, r12
    3e6c:	88 27       	eor	r24, r24
    3e6e:	77 fd       	sbrc	r23, 7
    3e70:	80 95       	com	r24
    3e72:	98 2f       	mov	r25, r24
    3e74:	0e 94 c2 39 	call	0x7384	; 0x7384 <__floatsisf>
    3e78:	20 e0       	ldi	r18, 0x00	; 0
    3e7a:	30 e0       	ldi	r19, 0x00	; 0
    3e7c:	40 e0       	ldi	r20, 0x00	; 0
    3e7e:	5f e3       	ldi	r21, 0x3F	; 63
    3e80:	0e 94 76 3a 	call	0x74ec	; 0x74ec <__mulsf3>
    3e84:	9b 01       	movw	r18, r22
    3e86:	ac 01       	movw	r20, r24
    3e88:	c2 01       	movw	r24, r4
    3e8a:	b1 01       	movw	r22, r2
    3e8c:	0e 94 bf 38 	call	0x717e	; 0x717e <__addsf3>
    3e90:	91 c0       	rjmp	.+290    	; 0x3fb4 <IMU+0x924>
    3e92:	90 91 da 06 	lds	r25, 0x06DA
    3e96:	89 17       	cp	r24, r25
    3e98:	99 f5       	brne	.+102    	; 0x3f00 <IMU+0x870>
    3e9a:	60 91 c2 05 	lds	r22, 0x05C2
    3e9e:	70 91 c3 05 	lds	r23, 0x05C3
    3ea2:	88 27       	eor	r24, r24
    3ea4:	77 fd       	sbrc	r23, 7
    3ea6:	80 95       	com	r24
    3ea8:	98 2f       	mov	r25, r24
    3eaa:	0e 94 c2 39 	call	0x7384	; 0x7384 <__floatsisf>
    3eae:	20 e0       	ldi	r18, 0x00	; 0
    3eb0:	30 e0       	ldi	r19, 0x00	; 0
    3eb2:	40 e0       	ldi	r20, 0x00	; 0
    3eb4:	5f e3       	ldi	r21, 0x3F	; 63
    3eb6:	0e 94 76 3a 	call	0x74ec	; 0x74ec <__mulsf3>
    3eba:	9b 01       	movw	r18, r22
    3ebc:	ac 01       	movw	r20, r24
    3ebe:	c8 01       	movw	r24, r16
    3ec0:	b7 01       	movw	r22, r14
    3ec2:	0e 94 be 38 	call	0x717c	; 0x717c <__subsf3>
    3ec6:	60 93 00 06 	sts	0x0600, r22
    3eca:	70 93 01 06 	sts	0x0601, r23
    3ece:	80 93 02 06 	sts	0x0602, r24
    3ed2:	90 93 03 06 	sts	0x0603, r25
    3ed6:	60 91 c0 05 	lds	r22, 0x05C0
    3eda:	70 91 c1 05 	lds	r23, 0x05C1
    3ede:	88 27       	eor	r24, r24
    3ee0:	77 fd       	sbrc	r23, 7
    3ee2:	80 95       	com	r24
    3ee4:	98 2f       	mov	r25, r24
    3ee6:	0e 94 c2 39 	call	0x7384	; 0x7384 <__floatsisf>
    3eea:	20 e0       	ldi	r18, 0x00	; 0
    3eec:	30 e0       	ldi	r19, 0x00	; 0
    3eee:	40 e0       	ldi	r20, 0x00	; 0
    3ef0:	5f e3       	ldi	r21, 0x3F	; 63
    3ef2:	0e 94 76 3a 	call	0x74ec	; 0x74ec <__mulsf3>
    3ef6:	9b 01       	movw	r18, r22
    3ef8:	ac 01       	movw	r20, r24
    3efa:	c2 01       	movw	r24, r4
    3efc:	b1 01       	movw	r22, r2
    3efe:	58 c0       	rjmp	.+176    	; 0x3fb0 <IMU+0x920>
    3f00:	81 30       	cpi	r24, 0x01	; 1
    3f02:	09 f0       	breq	.+2      	; 0x3f06 <IMU+0x876>
    3f04:	5f c0       	rjmp	.+190    	; 0x3fc4 <IMU+0x934>
    3f06:	99 23       	and	r25, r25
    3f08:	09 f0       	breq	.+2      	; 0x3f0c <IMU+0x87c>
    3f0a:	5c c0       	rjmp	.+184    	; 0x3fc4 <IMU+0x934>
    3f0c:	60 91 c0 05 	lds	r22, 0x05C0
    3f10:	70 91 c1 05 	lds	r23, 0x05C1
    3f14:	88 27       	eor	r24, r24
    3f16:	77 fd       	sbrc	r23, 7
    3f18:	80 95       	com	r24
    3f1a:	98 2f       	mov	r25, r24
    3f1c:	0e 94 c2 39 	call	0x7384	; 0x7384 <__floatsisf>
    3f20:	20 e0       	ldi	r18, 0x00	; 0
    3f22:	30 e0       	ldi	r19, 0x00	; 0
    3f24:	40 e0       	ldi	r20, 0x00	; 0
    3f26:	5f e3       	ldi	r21, 0x3F	; 63
    3f28:	0e 94 76 3a 	call	0x74ec	; 0x74ec <__mulsf3>
    3f2c:	d6 2e       	mov	r13, r22
    3f2e:	c7 2e       	mov	r12, r23
    3f30:	b8 2e       	mov	r11, r24
    3f32:	a9 2e       	mov	r10, r25
    3f34:	60 91 c2 05 	lds	r22, 0x05C2
    3f38:	70 91 c3 05 	lds	r23, 0x05C3
    3f3c:	88 27       	eor	r24, r24
    3f3e:	77 fd       	sbrc	r23, 7
    3f40:	80 95       	com	r24
    3f42:	98 2f       	mov	r25, r24
    3f44:	0e 94 c2 39 	call	0x7384	; 0x7384 <__floatsisf>
    3f48:	20 e0       	ldi	r18, 0x00	; 0
    3f4a:	30 e0       	ldi	r19, 0x00	; 0
    3f4c:	40 e0       	ldi	r20, 0x00	; 0
    3f4e:	5f e3       	ldi	r21, 0x3F	; 63
    3f50:	0e 94 76 3a 	call	0x74ec	; 0x74ec <__mulsf3>
    3f54:	96 2e       	mov	r9, r22
    3f56:	87 2e       	mov	r8, r23
    3f58:	78 2e       	mov	r7, r24
    3f5a:	69 2e       	mov	r6, r25
    3f5c:	c8 01       	movw	r24, r16
    3f5e:	b7 01       	movw	r22, r14
    3f60:	d6 01       	movw	r26, r12
    3f62:	f5 01       	movw	r30, r10
    3f64:	2b 2f       	mov	r18, r27
    3f66:	3a 2f       	mov	r19, r26
    3f68:	4f 2f       	mov	r20, r31
    3f6a:	5e 2f       	mov	r21, r30
    3f6c:	0e 94 bf 38 	call	0x717e	; 0x717e <__addsf3>
    3f70:	d4 01       	movw	r26, r8
    3f72:	f3 01       	movw	r30, r6
    3f74:	2b 2f       	mov	r18, r27
    3f76:	3a 2f       	mov	r19, r26
    3f78:	4f 2f       	mov	r20, r31
    3f7a:	5e 2f       	mov	r21, r30
    3f7c:	0e 94 be 38 	call	0x717c	; 0x717c <__subsf3>
    3f80:	60 93 00 06 	sts	0x0600, r22
    3f84:	70 93 01 06 	sts	0x0601, r23
    3f88:	80 93 02 06 	sts	0x0602, r24
    3f8c:	90 93 03 06 	sts	0x0603, r25
    3f90:	c2 01       	movw	r24, r4
    3f92:	b1 01       	movw	r22, r2
    3f94:	d6 01       	movw	r26, r12
    3f96:	f5 01       	movw	r30, r10
    3f98:	2b 2f       	mov	r18, r27
    3f9a:	3a 2f       	mov	r19, r26
    3f9c:	4f 2f       	mov	r20, r31
    3f9e:	5e 2f       	mov	r21, r30
    3fa0:	0e 94 be 38 	call	0x717c	; 0x717c <__subsf3>
    3fa4:	d4 01       	movw	r26, r8
    3fa6:	f3 01       	movw	r30, r6
    3fa8:	2b 2f       	mov	r18, r27
    3faa:	3a 2f       	mov	r19, r26
    3fac:	4f 2f       	mov	r20, r31
    3fae:	5e 2f       	mov	r21, r30
    3fb0:	0e 94 be 38 	call	0x717c	; 0x717c <__subsf3>
    3fb4:	60 93 4a 05 	sts	0x054A, r22
    3fb8:	70 93 4b 05 	sts	0x054B, r23
    3fbc:	80 93 4c 05 	sts	0x054C, r24
    3fc0:	90 93 4d 05 	sts	0x054D, r25
    3fc4:	80 91 1c 06 	lds	r24, 0x061C
    3fc8:	80 fd       	sbrc	r24, 0
    3fca:	96 c0       	rjmp	.+300    	; 0x40f8 <IMU+0xa68>
    3fcc:	60 91 37 06 	lds	r22, 0x0637
    3fd0:	70 91 38 06 	lds	r23, 0x0638
    3fd4:	88 27       	eor	r24, r24
    3fd6:	77 fd       	sbrc	r23, 7
    3fd8:	80 95       	com	r24
    3fda:	98 2f       	mov	r25, r24
    3fdc:	0e 94 c2 39 	call	0x7384	; 0x7384 <__floatsisf>
    3fe0:	3b 01       	movw	r6, r22
    3fe2:	4c 01       	movw	r8, r24
    3fe4:	00 d0       	rcall	.+0      	; 0x3fe6 <IMU+0x956>
    3fe6:	00 d0       	rcall	.+0      	; 0x3fe8 <IMU+0x958>
    3fe8:	80 91 00 06 	lds	r24, 0x0600
    3fec:	90 91 01 06 	lds	r25, 0x0601
    3ff0:	a0 91 02 06 	lds	r26, 0x0602
    3ff4:	b0 91 03 06 	lds	r27, 0x0603
    3ff8:	ed b7       	in	r30, 0x3d	; 61
    3ffa:	fe b7       	in	r31, 0x3e	; 62
    3ffc:	81 83       	std	Z+1, r24	; 0x01
    3ffe:	92 83       	std	Z+2, r25	; 0x02
    4000:	a3 83       	std	Z+3, r26	; 0x03
    4002:	b4 83       	std	Z+4, r27	; 0x04
    4004:	c0 90 09 07 	lds	r12, 0x0709
    4008:	d0 90 0a 07 	lds	r13, 0x070A
    400c:	e0 90 0b 07 	lds	r14, 0x070B
    4010:	f0 90 0c 07 	lds	r15, 0x070C
    4014:	00 91 0d 07 	lds	r16, 0x070D
    4018:	10 91 0e 07 	lds	r17, 0x070E
    401c:	20 91 0f 07 	lds	r18, 0x070F
    4020:	30 91 10 07 	lds	r19, 0x0710
    4024:	40 91 11 07 	lds	r20, 0x0711
    4028:	50 91 12 07 	lds	r21, 0x0712
    402c:	60 91 13 07 	lds	r22, 0x0713
    4030:	70 91 14 07 	lds	r23, 0x0714
    4034:	80 91 15 07 	lds	r24, 0x0715
    4038:	90 91 16 07 	lds	r25, 0x0716
    403c:	f0 e5       	ldi	r31, 0x50	; 80
    403e:	af 2e       	mov	r10, r31
    4040:	f5 e0       	ldi	r31, 0x05	; 5
    4042:	bf 2e       	mov	r11, r31
    4044:	0e 94 ab 18 	call	0x3156	; 0x3156 <PID_Calculate_ACC>
    4048:	9b 01       	movw	r18, r22
    404a:	ac 01       	movw	r20, r24
    404c:	c4 01       	movw	r24, r8
    404e:	b3 01       	movw	r22, r6
    4050:	0e 94 bf 38 	call	0x717e	; 0x717e <__addsf3>
    4054:	0e 94 8f 39 	call	0x731e	; 0x731e <__fixsfsi>
    4058:	70 93 38 06 	sts	0x0638, r23
    405c:	60 93 37 06 	sts	0x0637, r22
    4060:	60 91 b8 05 	lds	r22, 0x05B8
    4064:	70 91 b9 05 	lds	r23, 0x05B9
    4068:	88 27       	eor	r24, r24
    406a:	77 fd       	sbrc	r23, 7
    406c:	80 95       	com	r24
    406e:	98 2f       	mov	r25, r24
    4070:	0e 94 c2 39 	call	0x7384	; 0x7384 <__floatsisf>
    4074:	3b 01       	movw	r6, r22
    4076:	4c 01       	movw	r8, r24
    4078:	80 91 4a 05 	lds	r24, 0x054A
    407c:	90 91 4b 05 	lds	r25, 0x054B
    4080:	a0 91 4c 05 	lds	r26, 0x054C
    4084:	b0 91 4d 05 	lds	r27, 0x054D
    4088:	ed b7       	in	r30, 0x3d	; 61
    408a:	fe b7       	in	r31, 0x3e	; 62
    408c:	81 83       	std	Z+1, r24	; 0x01
    408e:	92 83       	std	Z+2, r25	; 0x02
    4090:	a3 83       	std	Z+3, r26	; 0x03
    4092:	b4 83       	std	Z+4, r27	; 0x04
    4094:	c0 90 17 07 	lds	r12, 0x0717
    4098:	d0 90 18 07 	lds	r13, 0x0718
    409c:	e0 90 19 07 	lds	r14, 0x0719
    40a0:	f0 90 1a 07 	lds	r15, 0x071A
    40a4:	00 91 1b 07 	lds	r16, 0x071B
    40a8:	10 91 1c 07 	lds	r17, 0x071C
    40ac:	20 91 1d 07 	lds	r18, 0x071D
    40b0:	30 91 1e 07 	lds	r19, 0x071E
    40b4:	40 91 1f 07 	lds	r20, 0x071F
    40b8:	50 91 20 07 	lds	r21, 0x0720
    40bc:	60 91 21 07 	lds	r22, 0x0721
    40c0:	70 91 22 07 	lds	r23, 0x0722
    40c4:	80 91 23 07 	lds	r24, 0x0723
    40c8:	90 91 24 07 	lds	r25, 0x0724
    40cc:	e8 e6       	ldi	r30, 0x68	; 104
    40ce:	ae 2e       	mov	r10, r30
    40d0:	e5 e0       	ldi	r30, 0x05	; 5
    40d2:	be 2e       	mov	r11, r30
    40d4:	0e 94 ab 18 	call	0x3156	; 0x3156 <PID_Calculate_ACC>
    40d8:	9b 01       	movw	r18, r22
    40da:	ac 01       	movw	r20, r24
    40dc:	c4 01       	movw	r24, r8
    40de:	b3 01       	movw	r22, r6
    40e0:	0e 94 bf 38 	call	0x717e	; 0x717e <__addsf3>
    40e4:	0e 94 8f 39 	call	0x731e	; 0x731e <__fixsfsi>
    40e8:	70 93 b9 05 	sts	0x05B9, r23
    40ec:	60 93 b8 05 	sts	0x05B8, r22
    40f0:	0f 90       	pop	r0
    40f2:	0f 90       	pop	r0
    40f4:	0f 90       	pop	r0
    40f6:	0f 90       	pop	r0
    40f8:	26 96       	adiw	r28, 0x06	; 6
    40fa:	0f b6       	in	r0, 0x3f	; 63
    40fc:	f8 94       	cli
    40fe:	de bf       	out	0x3e, r29	; 62
    4100:	0f be       	out	0x3f, r0	; 63
    4102:	cd bf       	out	0x3d, r28	; 61
    4104:	cf 91       	pop	r28
    4106:	df 91       	pop	r29
    4108:	1f 91       	pop	r17
    410a:	0f 91       	pop	r16
    410c:	ff 90       	pop	r15
    410e:	ef 90       	pop	r14
    4110:	df 90       	pop	r13
    4112:	cf 90       	pop	r12
    4114:	bf 90       	pop	r11
    4116:	af 90       	pop	r10
    4118:	9f 90       	pop	r9
    411a:	8f 90       	pop	r8
    411c:	7f 90       	pop	r7
    411e:	6f 90       	pop	r6
    4120:	5f 90       	pop	r5
    4122:	4f 90       	pop	r4
    4124:	3f 90       	pop	r3
    4126:	2f 90       	pop	r2
    4128:	08 95       	ret

0000412a <IMU_HeightKeeping>:
    412a:	af 92       	push	r10
    412c:	bf 92       	push	r11
    412e:	cf 92       	push	r12
    4130:	df 92       	push	r13
    4132:	ef 92       	push	r14
    4134:	ff 92       	push	r15
    4136:	0f 93       	push	r16
    4138:	1f 93       	push	r17
    413a:	00 d0       	rcall	.+0      	; 0x413c <IMU_HeightKeeping+0x12>
    413c:	00 d0       	rcall	.+0      	; 0x413e <IMU_HeightKeeping+0x14>
    413e:	80 91 39 06 	lds	r24, 0x0639
    4142:	90 91 3a 06 	lds	r25, 0x063A
    4146:	a0 91 3b 06 	lds	r26, 0x063B
    414a:	b0 91 3c 06 	lds	r27, 0x063C
    414e:	b0 58       	subi	r27, 0x80	; 128
    4150:	ed b7       	in	r30, 0x3d	; 61
    4152:	fe b7       	in	r31, 0x3e	; 62
    4154:	81 83       	std	Z+1, r24	; 0x01
    4156:	92 83       	std	Z+2, r25	; 0x02
    4158:	a3 83       	std	Z+3, r26	; 0x03
    415a:	b4 83       	std	Z+4, r27	; 0x04
    415c:	c0 90 25 07 	lds	r12, 0x0725
    4160:	d0 90 26 07 	lds	r13, 0x0726
    4164:	e0 90 27 07 	lds	r14, 0x0727
    4168:	f0 90 28 07 	lds	r15, 0x0728
    416c:	00 91 29 07 	lds	r16, 0x0729
    4170:	10 91 2a 07 	lds	r17, 0x072A
    4174:	20 91 2b 07 	lds	r18, 0x072B
    4178:	30 91 2c 07 	lds	r19, 0x072C
    417c:	40 91 2d 07 	lds	r20, 0x072D
    4180:	50 91 2e 07 	lds	r21, 0x072E
    4184:	60 91 2f 07 	lds	r22, 0x072F
    4188:	70 91 30 07 	lds	r23, 0x0730
    418c:	80 91 31 07 	lds	r24, 0x0731
    4190:	90 91 32 07 	lds	r25, 0x0732
    4194:	a0 e8       	ldi	r26, 0x80	; 128
    4196:	aa 2e       	mov	r10, r26
    4198:	a5 e0       	ldi	r26, 0x05	; 5
    419a:	ba 2e       	mov	r11, r26
    419c:	0e 94 f6 19 	call	0x33ec	; 0x33ec <PID_Calculate>
    41a0:	60 93 58 06 	sts	0x0658, r22
    41a4:	70 93 59 06 	sts	0x0659, r23
    41a8:	80 93 5a 06 	sts	0x065A, r24
    41ac:	90 93 5b 06 	sts	0x065B, r25
    41b0:	0f 90       	pop	r0
    41b2:	0f 90       	pop	r0
    41b4:	0f 90       	pop	r0
    41b6:	0f 90       	pop	r0
    41b8:	80 91 d3 06 	lds	r24, 0x06D3
    41bc:	8f 3f       	cpi	r24, 0xFF	; 255
    41be:	09 f0       	breq	.+2      	; 0x41c2 <IMU_HeightKeeping+0x98>
    41c0:	f4 c0       	rjmp	.+488    	; 0x43aa <IMU_HeightKeeping+0x280>
    41c2:	80 91 de 06 	lds	r24, 0x06DE
    41c6:	80 ff       	sbrs	r24, 0
    41c8:	f0 c0       	rjmp	.+480    	; 0x43aa <IMU_HeightKeeping+0x280>
    41ca:	80 91 1c 06 	lds	r24, 0x061C
    41ce:	84 30       	cpi	r24, 0x04	; 4
    41d0:	09 f0       	breq	.+2      	; 0x41d4 <IMU_HeightKeeping+0xaa>
    41d2:	eb c0       	rjmp	.+470    	; 0x43aa <IMU_HeightKeeping+0x280>
    41d4:	48 9a       	sbi	0x09, 0	; 9
    41d6:	f8 94       	cli
    41d8:	60 91 d2 05 	lds	r22, 0x05D2
    41dc:	70 91 d3 05 	lds	r23, 0x05D3
    41e0:	80 e0       	ldi	r24, 0x00	; 0
    41e2:	90 e0       	ldi	r25, 0x00	; 0
    41e4:	0e 94 c0 39 	call	0x7380	; 0x7380 <__floatunsisf>
    41e8:	7b 01       	movw	r14, r22
    41ea:	8c 01       	movw	r16, r24
    41ec:	78 94       	sei
    41ee:	7f 2d       	mov	r23, r15
    41f0:	91 2f       	mov	r25, r17
    41f2:	20 e0       	ldi	r18, 0x00	; 0
    41f4:	30 e8       	ldi	r19, 0x80	; 128
    41f6:	49 e0       	ldi	r20, 0x09	; 9
    41f8:	54 e4       	ldi	r21, 0x44	; 68
    41fa:	0e 94 23 39 	call	0x7246	; 0x7246 <__cmpsf2>
    41fe:	87 ff       	sbrs	r24, 7
    4200:	b4 c0       	rjmp	.+360    	; 0x436a <IMU_HeightKeeping+0x240>
    4202:	80 91 27 05 	lds	r24, 0x0527
    4206:	88 23       	and	r24, r24
    4208:	29 f5       	brne	.+74     	; 0x4254 <IMU_HeightKeeping+0x12a>
    420a:	80 91 25 05 	lds	r24, 0x0525
    420e:	90 91 26 05 	lds	r25, 0x0526
    4212:	83 30       	cpi	r24, 0x03	; 3
    4214:	91 05       	cpc	r25, r1
    4216:	34 f4       	brge	.+12     	; 0x4224 <IMU_HeightKeeping+0xfa>
    4218:	01 96       	adiw	r24, 0x01	; 1
    421a:	90 93 26 05 	sts	0x0526, r25
    421e:	80 93 25 05 	sts	0x0525, r24
    4222:	c9 c0       	rjmp	.+402    	; 0x43b6 <IMU_HeightKeeping+0x28c>
    4224:	6e 2d       	mov	r22, r14
    4226:	7f 2d       	mov	r23, r15
    4228:	80 2f       	mov	r24, r16
    422a:	91 2f       	mov	r25, r17
    422c:	0e 94 94 39 	call	0x7328	; 0x7328 <__fixunssfsi>
    4230:	70 93 c9 06 	sts	0x06C9, r23
    4234:	60 93 c8 06 	sts	0x06C8, r22
    4238:	80 e0       	ldi	r24, 0x00	; 0
    423a:	90 e0       	ldi	r25, 0x00	; 0
    423c:	dc 01       	movw	r26, r24
    423e:	80 93 8e 07 	sts	0x078E, r24
    4242:	90 93 8f 07 	sts	0x078F, r25
    4246:	a0 93 90 07 	sts	0x0790, r26
    424a:	b0 93 91 07 	sts	0x0791, r27
    424e:	81 e0       	ldi	r24, 0x01	; 1
    4250:	80 93 27 05 	sts	0x0527, r24
    4254:	60 91 c8 06 	lds	r22, 0x06C8
    4258:	70 91 c9 06 	lds	r23, 0x06C9
    425c:	80 e0       	ldi	r24, 0x00	; 0
    425e:	90 e0       	ldi	r25, 0x00	; 0
    4260:	0e 94 c0 39 	call	0x7380	; 0x7380 <__floatunsisf>
    4264:	2e 2d       	mov	r18, r14
    4266:	3f 2d       	mov	r19, r15
    4268:	40 2f       	mov	r20, r16
    426a:	51 2f       	mov	r21, r17
    426c:	0e 94 be 38 	call	0x717c	; 0x717c <__subsf3>
    4270:	f6 2e       	mov	r15, r22
    4272:	07 2f       	mov	r16, r23
    4274:	18 2f       	mov	r17, r24
    4276:	e9 2e       	mov	r14, r25
    4278:	86 2f       	mov	r24, r22
    427a:	90 2f       	mov	r25, r16
    427c:	a1 2f       	mov	r26, r17
    427e:	be 2d       	mov	r27, r14
    4280:	80 93 ac 06 	sts	0x06AC, r24
    4284:	90 93 ad 06 	sts	0x06AD, r25
    4288:	a0 93 ae 06 	sts	0x06AE, r26
    428c:	b0 93 af 06 	sts	0x06AF, r27
    4290:	6f 2d       	mov	r22, r15
    4292:	70 2f       	mov	r23, r16
    4294:	81 2f       	mov	r24, r17
    4296:	9e 2d       	mov	r25, r14
    4298:	20 e0       	ldi	r18, 0x00	; 0
    429a:	30 e0       	ldi	r19, 0x00	; 0
    429c:	48 e4       	ldi	r20, 0x48	; 72
    429e:	52 e4       	ldi	r21, 0x42	; 66
    42a0:	0e 94 23 39 	call	0x7246	; 0x7246 <__cmpsf2>
    42a4:	87 ff       	sbrs	r24, 7
    42a6:	5c c0       	rjmp	.+184    	; 0x4360 <IMU_HeightKeeping+0x236>
    42a8:	6f 2d       	mov	r22, r15
    42aa:	70 2f       	mov	r23, r16
    42ac:	81 2f       	mov	r24, r17
    42ae:	9e 2d       	mov	r25, r14
    42b0:	20 e0       	ldi	r18, 0x00	; 0
    42b2:	30 e0       	ldi	r19, 0x00	; 0
    42b4:	48 e4       	ldi	r20, 0x48	; 72
    42b6:	52 ec       	ldi	r21, 0xC2	; 194
    42b8:	0e 94 72 3a 	call	0x74e4	; 0x74e4 <__gesf2>
    42bc:	18 16       	cp	r1, r24
    42be:	0c f0       	brlt	.+2      	; 0x42c2 <IMU_HeightKeeping+0x198>
    42c0:	4f c0       	rjmp	.+158    	; 0x4360 <IMU_HeightKeeping+0x236>
    42c2:	10 92 22 05 	sts	0x0522, r1
    42c6:	00 d0       	rcall	.+0      	; 0x42c8 <IMU_HeightKeeping+0x19e>
    42c8:	00 d0       	rcall	.+0      	; 0x42ca <IMU_HeightKeeping+0x1a0>
    42ca:	8f 2d       	mov	r24, r15
    42cc:	90 2f       	mov	r25, r16
    42ce:	a1 2f       	mov	r26, r17
    42d0:	be 2d       	mov	r27, r14
    42d2:	ed b7       	in	r30, 0x3d	; 61
    42d4:	fe b7       	in	r31, 0x3e	; 62
    42d6:	81 83       	std	Z+1, r24	; 0x01
    42d8:	92 83       	std	Z+2, r25	; 0x02
    42da:	a3 83       	std	Z+3, r26	; 0x03
    42dc:	b4 83       	std	Z+4, r27	; 0x04
    42de:	c0 90 33 07 	lds	r12, 0x0733
    42e2:	d0 90 34 07 	lds	r13, 0x0734
    42e6:	e0 90 35 07 	lds	r14, 0x0735
    42ea:	f0 90 36 07 	lds	r15, 0x0736
    42ee:	00 91 37 07 	lds	r16, 0x0737
    42f2:	10 91 38 07 	lds	r17, 0x0738
    42f6:	20 91 39 07 	lds	r18, 0x0739
    42fa:	30 91 3a 07 	lds	r19, 0x073A
    42fe:	40 91 3b 07 	lds	r20, 0x073B
    4302:	50 91 3c 07 	lds	r21, 0x073C
    4306:	60 91 3d 07 	lds	r22, 0x073D
    430a:	70 91 3e 07 	lds	r23, 0x073E
    430e:	80 91 3f 07 	lds	r24, 0x073F
    4312:	90 91 40 07 	lds	r25, 0x0740
    4316:	fa e8       	ldi	r31, 0x8A	; 138
    4318:	af 2e       	mov	r10, r31
    431a:	f7 e0       	ldi	r31, 0x07	; 7
    431c:	bf 2e       	mov	r11, r31
    431e:	0e 94 f6 19 	call	0x33ec	; 0x33ec <PID_Calculate>
    4322:	0e 94 8f 39 	call	0x731e	; 0x731e <__fixsfsi>
    4326:	7b 01       	movw	r14, r22
    4328:	8c 01       	movw	r16, r24
    432a:	70 93 26 05 	sts	0x0526, r23
    432e:	60 93 25 05 	sts	0x0525, r22
    4332:	0f 90       	pop	r0
    4334:	0f 90       	pop	r0
    4336:	0f 90       	pop	r0
    4338:	0f 90       	pop	r0
    433a:	60 91 ac 06 	lds	r22, 0x06AC
    433e:	70 91 ad 06 	lds	r23, 0x06AD
    4342:	80 91 ae 06 	lds	r24, 0x06AE
    4346:	90 91 af 06 	lds	r25, 0x06AF
    434a:	20 e0       	ldi	r18, 0x00	; 0
    434c:	30 e0       	ldi	r19, 0x00	; 0
    434e:	a9 01       	movw	r20, r18
    4350:	0e 94 23 39 	call	0x7246	; 0x7246 <__cmpsf2>
    4354:	88 23       	and	r24, r24
    4356:	21 f4       	brne	.+8      	; 0x4360 <IMU_HeightKeeping+0x236>
    4358:	f0 92 24 05 	sts	0x0524, r15
    435c:	e0 92 23 05 	sts	0x0523, r14
    4360:	60 91 25 05 	lds	r22, 0x0525
    4364:	70 91 26 05 	lds	r23, 0x0526
    4368:	04 c0       	rjmp	.+8      	; 0x4372 <IMU_HeightKeeping+0x248>
    436a:	60 91 23 05 	lds	r22, 0x0523
    436e:	70 91 24 05 	lds	r23, 0x0524
    4372:	88 27       	eor	r24, r24
    4374:	77 fd       	sbrc	r23, 7
    4376:	80 95       	com	r24
    4378:	98 2f       	mov	r25, r24
    437a:	0e 94 c2 39 	call	0x7384	; 0x7384 <__floatsisf>
    437e:	9b 01       	movw	r18, r22
    4380:	ac 01       	movw	r20, r24
    4382:	60 91 58 06 	lds	r22, 0x0658
    4386:	70 91 59 06 	lds	r23, 0x0659
    438a:	80 91 5a 06 	lds	r24, 0x065A
    438e:	90 91 5b 06 	lds	r25, 0x065B
    4392:	0e 94 bf 38 	call	0x717e	; 0x717e <__addsf3>
    4396:	60 93 58 06 	sts	0x0658, r22
    439a:	70 93 59 06 	sts	0x0659, r23
    439e:	80 93 5a 06 	sts	0x065A, r24
    43a2:	90 93 5b 06 	sts	0x065B, r25
    43a6:	48 98       	cbi	0x09, 0	; 9
    43a8:	06 c0       	rjmp	.+12     	; 0x43b6 <IMU_HeightKeeping+0x28c>
    43aa:	10 92 26 05 	sts	0x0526, r1
    43ae:	10 92 25 05 	sts	0x0525, r1
    43b2:	10 92 27 05 	sts	0x0527, r1
    43b6:	70 91 58 06 	lds	r23, 0x0658
    43ba:	60 91 59 06 	lds	r22, 0x0659
    43be:	90 91 5a 06 	lds	r25, 0x065A
    43c2:	80 91 5b 06 	lds	r24, 0x065B
    43c6:	ab 01       	movw	r20, r22
    43c8:	9c 01       	movw	r18, r24
    43ca:	65 2f       	mov	r22, r21
    43cc:	74 2f       	mov	r23, r20
    43ce:	83 2f       	mov	r24, r19
    43d0:	92 2f       	mov	r25, r18
    43d2:	1f 91       	pop	r17
    43d4:	0f 91       	pop	r16
    43d6:	ff 90       	pop	r15
    43d8:	ef 90       	pop	r14
    43da:	df 90       	pop	r13
    43dc:	cf 90       	pop	r12
    43de:	bf 90       	pop	r11
    43e0:	af 90       	pop	r10
    43e2:	08 95       	ret

000043e4 <arctan2>:
    43e4:	6f 92       	push	r6
    43e6:	7f 92       	push	r7
    43e8:	8f 92       	push	r8
    43ea:	9f 92       	push	r9
    43ec:	af 92       	push	r10
    43ee:	bf 92       	push	r11
    43f0:	cf 92       	push	r12
    43f2:	df 92       	push	r13
    43f4:	ef 92       	push	r14
    43f6:	ff 92       	push	r15
    43f8:	0f 93       	push	r16
    43fa:	1f 93       	push	r17
    43fc:	cf 93       	push	r28
    43fe:	df 93       	push	r29
    4400:	ec 01       	movw	r28, r24
    4402:	6b 01       	movw	r12, r22
    4404:	bc 01       	movw	r22, r24
    4406:	97 ff       	sbrs	r25, 7
    4408:	04 c0       	rjmp	.+8      	; 0x4412 <arctan2+0x2e>
    440a:	66 27       	eor	r22, r22
    440c:	77 27       	eor	r23, r23
    440e:	68 1b       	sub	r22, r24
    4410:	79 0b       	sbc	r23, r25
    4412:	88 27       	eor	r24, r24
    4414:	77 fd       	sbrc	r23, 7
    4416:	80 95       	com	r24
    4418:	98 2f       	mov	r25, r24
    441a:	0e 94 c2 39 	call	0x7384	; 0x7384 <__floatsisf>
    441e:	2f ef       	ldi	r18, 0xFF	; 255
    4420:	36 ee       	ldi	r19, 0xE6	; 230
    4422:	4b ed       	ldi	r20, 0xDB	; 219
    4424:	5e e2       	ldi	r21, 0x2E	; 46
    4426:	0e 94 bf 38 	call	0x717e	; 0x717e <__addsf3>
    442a:	16 2f       	mov	r17, r22
    442c:	07 2f       	mov	r16, r23
    442e:	f8 2e       	mov	r15, r24
    4430:	e9 2e       	mov	r14, r25
    4432:	b6 01       	movw	r22, r12
    4434:	88 27       	eor	r24, r24
    4436:	77 fd       	sbrc	r23, 7
    4438:	80 95       	com	r24
    443a:	98 2f       	mov	r25, r24
    443c:	d7 fc       	sbrc	r13, 7
    443e:	2b c0       	rjmp	.+86     	; 0x4496 <arctan2+0xb2>
    4440:	0e 94 c2 39 	call	0x7384	; 0x7384 <__floatsisf>
    4444:	5b 01       	movw	r10, r22
    4446:	6c 01       	movw	r12, r24
    4448:	d8 01       	movw	r26, r16
    444a:	f7 01       	movw	r30, r14
    444c:	2b 2f       	mov	r18, r27
    444e:	3a 2f       	mov	r19, r26
    4450:	4f 2f       	mov	r20, r31
    4452:	5e 2f       	mov	r21, r30
    4454:	0e 94 be 38 	call	0x717c	; 0x717c <__subsf3>
    4458:	3b 01       	movw	r6, r22
    445a:	4c 01       	movw	r8, r24
    445c:	c6 01       	movw	r24, r12
    445e:	b5 01       	movw	r22, r10
    4460:	d8 01       	movw	r26, r16
    4462:	f7 01       	movw	r30, r14
    4464:	2b 2f       	mov	r18, r27
    4466:	3a 2f       	mov	r19, r26
    4468:	4f 2f       	mov	r20, r31
    446a:	5e 2f       	mov	r21, r30
    446c:	0e 94 bf 38 	call	0x717e	; 0x717e <__addsf3>
    4470:	9b 01       	movw	r18, r22
    4472:	ac 01       	movw	r20, r24
    4474:	c4 01       	movw	r24, r8
    4476:	b3 01       	movw	r22, r6
    4478:	0e 94 27 39 	call	0x724e	; 0x724e <__divsf3>
    447c:	20 e0       	ldi	r18, 0x00	; 0
    447e:	30 e0       	ldi	r19, 0x00	; 0
    4480:	40 e0       	ldi	r20, 0x00	; 0
    4482:	53 e4       	ldi	r21, 0x43	; 67
    4484:	0e 94 76 3a 	call	0x74ec	; 0x74ec <__mulsf3>
    4488:	9b 01       	movw	r18, r22
    448a:	ac 01       	movw	r20, r24
    448c:	60 e0       	ldi	r22, 0x00	; 0
    448e:	70 e0       	ldi	r23, 0x00	; 0
    4490:	80 e0       	ldi	r24, 0x00	; 0
    4492:	93 e4       	ldi	r25, 0x43	; 67
    4494:	2a c0       	rjmp	.+84     	; 0x44ea <arctan2+0x106>
    4496:	0e 94 c2 39 	call	0x7384	; 0x7384 <__floatsisf>
    449a:	5b 01       	movw	r10, r22
    449c:	6c 01       	movw	r12, r24
    449e:	d8 01       	movw	r26, r16
    44a0:	f7 01       	movw	r30, r14
    44a2:	2b 2f       	mov	r18, r27
    44a4:	3a 2f       	mov	r19, r26
    44a6:	4f 2f       	mov	r20, r31
    44a8:	5e 2f       	mov	r21, r30
    44aa:	0e 94 bf 38 	call	0x717e	; 0x717e <__addsf3>
    44ae:	3b 01       	movw	r6, r22
    44b0:	4c 01       	movw	r8, r24
    44b2:	a8 01       	movw	r20, r16
    44b4:	97 01       	movw	r18, r14
    44b6:	65 2f       	mov	r22, r21
    44b8:	74 2f       	mov	r23, r20
    44ba:	83 2f       	mov	r24, r19
    44bc:	92 2f       	mov	r25, r18
    44be:	a6 01       	movw	r20, r12
    44c0:	95 01       	movw	r18, r10
    44c2:	0e 94 be 38 	call	0x717c	; 0x717c <__subsf3>
    44c6:	9b 01       	movw	r18, r22
    44c8:	ac 01       	movw	r20, r24
    44ca:	c4 01       	movw	r24, r8
    44cc:	b3 01       	movw	r22, r6
    44ce:	0e 94 27 39 	call	0x724e	; 0x724e <__divsf3>
    44d2:	20 e0       	ldi	r18, 0x00	; 0
    44d4:	30 e0       	ldi	r19, 0x00	; 0
    44d6:	40 e0       	ldi	r20, 0x00	; 0
    44d8:	53 e4       	ldi	r21, 0x43	; 67
    44da:	0e 94 76 3a 	call	0x74ec	; 0x74ec <__mulsf3>
    44de:	9b 01       	movw	r18, r22
    44e0:	ac 01       	movw	r20, r24
    44e2:	60 e0       	ldi	r22, 0x00	; 0
    44e4:	70 e0       	ldi	r23, 0x00	; 0
    44e6:	80 ec       	ldi	r24, 0xC0	; 192
    44e8:	93 e4       	ldi	r25, 0x43	; 67
    44ea:	0e 94 be 38 	call	0x717c	; 0x717c <__subsf3>
    44ee:	d7 fd       	sbrc	r29, 7
    44f0:	90 58       	subi	r25, 0x80	; 128
    44f2:	0e 94 8f 39 	call	0x731e	; 0x731e <__fixsfsi>
    44f6:	cb 01       	movw	r24, r22
    44f8:	df 91       	pop	r29
    44fa:	cf 91       	pop	r28
    44fc:	1f 91       	pop	r17
    44fe:	0f 91       	pop	r16
    4500:	ff 90       	pop	r15
    4502:	ef 90       	pop	r14
    4504:	df 90       	pop	r13
    4506:	cf 90       	pop	r12
    4508:	bf 90       	pop	r11
    450a:	af 90       	pop	r10
    450c:	9f 90       	pop	r9
    450e:	8f 90       	pop	r8
    4510:	7f 90       	pop	r7
    4512:	6f 90       	pop	r6
    4514:	08 95       	ret

00004516 <Limiterf>:
    4516:	af 92       	push	r10
    4518:	bf 92       	push	r11
    451a:	cf 92       	push	r12
    451c:	df 92       	push	r13
    451e:	ef 92       	push	r14
    4520:	ff 92       	push	r15
    4522:	0f 93       	push	r16
    4524:	1f 93       	push	r17
    4526:	d6 2e       	mov	r13, r22
    4528:	c7 2e       	mov	r12, r23
    452a:	b8 2e       	mov	r11, r24
    452c:	a9 2e       	mov	r10, r25
    452e:	79 01       	movw	r14, r18
    4530:	8a 01       	movw	r16, r20
    4532:	a6 01       	movw	r20, r12
    4534:	95 01       	movw	r18, r10
    4536:	65 2f       	mov	r22, r21
    4538:	74 2f       	mov	r23, r20
    453a:	83 2f       	mov	r24, r19
    453c:	92 2f       	mov	r25, r18
    453e:	a8 01       	movw	r20, r16
    4540:	97 01       	movw	r18, r14
    4542:	0e 94 72 3a 	call	0x74e4	; 0x74e4 <__gesf2>
    4546:	18 16       	cp	r1, r24
    4548:	b4 f0       	brlt	.+44     	; 0x4576 <Limiterf+0x60>
    454a:	17 fb       	bst	r17, 7
    454c:	10 95       	com	r17
    454e:	17 f9       	bld	r17, 7
    4550:	10 95       	com	r17
    4552:	a6 01       	movw	r20, r12
    4554:	95 01       	movw	r18, r10
    4556:	65 2f       	mov	r22, r21
    4558:	74 2f       	mov	r23, r20
    455a:	83 2f       	mov	r24, r19
    455c:	92 2f       	mov	r25, r18
    455e:	a8 01       	movw	r20, r16
    4560:	97 01       	movw	r18, r14
    4562:	0e 94 23 39 	call	0x7246	; 0x7246 <__cmpsf2>
    4566:	87 fd       	sbrc	r24, 7
    4568:	06 c0       	rjmp	.+12     	; 0x4576 <Limiterf+0x60>
    456a:	96 01       	movw	r18, r12
    456c:	c5 01       	movw	r24, r10
    456e:	e3 2e       	mov	r14, r19
    4570:	f2 2e       	mov	r15, r18
    4572:	09 2f       	mov	r16, r25
    4574:	18 2f       	mov	r17, r24
    4576:	6e 2d       	mov	r22, r14
    4578:	7f 2d       	mov	r23, r15
    457a:	80 2f       	mov	r24, r16
    457c:	91 2f       	mov	r25, r17
    457e:	1f 91       	pop	r17
    4580:	0f 91       	pop	r16
    4582:	ff 90       	pop	r15
    4584:	ef 90       	pop	r14
    4586:	df 90       	pop	r13
    4588:	cf 90       	pop	r12
    458a:	bf 90       	pop	r11
    458c:	af 90       	pop	r10
    458e:	08 95       	ret

00004590 <Limiter>:
    4590:	68 17       	cp	r22, r24
    4592:	79 07       	cpc	r23, r25
    4594:	3c f0       	brlt	.+14     	; 0x45a4 <Limiter+0x14>
    4596:	70 95       	com	r23
    4598:	61 95       	neg	r22
    459a:	7f 4f       	sbci	r23, 0xFF	; 255
    459c:	68 17       	cp	r22, r24
    459e:	79 07       	cpc	r23, r25
    45a0:	0c f4       	brge	.+2      	; 0x45a4 <Limiter+0x14>
    45a2:	bc 01       	movw	r22, r24
    45a4:	cb 01       	movw	r24, r22
    45a6:	08 95       	ret

000045a8 <ScaleSensor>:
    45a8:	80 e0       	ldi	r24, 0x00	; 0
    45aa:	90 e0       	ldi	r25, 0x00	; 0
    45ac:	08 95       	ret

000045ae <vector3d_modulus>:
    45ae:	6f 92       	push	r6
    45b0:	7f 92       	push	r7
    45b2:	8f 92       	push	r8
    45b4:	9f 92       	push	r9
    45b6:	af 92       	push	r10
    45b8:	bf 92       	push	r11
    45ba:	cf 92       	push	r12
    45bc:	df 92       	push	r13
    45be:	ef 92       	push	r14
    45c0:	ff 92       	push	r15
    45c2:	0f 93       	push	r16
    45c4:	1f 93       	push	r17
    45c6:	fc 01       	movw	r30, r24
    45c8:	20 81       	ld	r18, Z
    45ca:	31 81       	ldd	r19, Z+1	; 0x01
    45cc:	42 81       	ldd	r20, Z+2	; 0x02
    45ce:	53 81       	ldd	r21, Z+3	; 0x03
    45d0:	e4 80       	ldd	r14, Z+4	; 0x04
    45d2:	f5 80       	ldd	r15, Z+5	; 0x05
    45d4:	06 81       	ldd	r16, Z+6	; 0x06
    45d6:	17 81       	ldd	r17, Z+7	; 0x07
    45d8:	a0 84       	ldd	r10, Z+8	; 0x08
    45da:	b1 84       	ldd	r11, Z+9	; 0x09
    45dc:	c2 84       	ldd	r12, Z+10	; 0x0a
    45de:	d3 84       	ldd	r13, Z+11	; 0x0b
    45e0:	ca 01       	movw	r24, r20
    45e2:	b9 01       	movw	r22, r18
    45e4:	0e 94 76 3a 	call	0x74ec	; 0x74ec <__mulsf3>
    45e8:	3b 01       	movw	r6, r22
    45ea:	4c 01       	movw	r8, r24
    45ec:	c8 01       	movw	r24, r16
    45ee:	b7 01       	movw	r22, r14
    45f0:	a8 01       	movw	r20, r16
    45f2:	97 01       	movw	r18, r14
    45f4:	0e 94 76 3a 	call	0x74ec	; 0x74ec <__mulsf3>
    45f8:	9b 01       	movw	r18, r22
    45fa:	ac 01       	movw	r20, r24
    45fc:	c4 01       	movw	r24, r8
    45fe:	b3 01       	movw	r22, r6
    4600:	0e 94 bf 38 	call	0x717e	; 0x717e <__addsf3>
    4604:	7b 01       	movw	r14, r22
    4606:	8c 01       	movw	r16, r24
    4608:	c6 01       	movw	r24, r12
    460a:	b5 01       	movw	r22, r10
    460c:	a6 01       	movw	r20, r12
    460e:	95 01       	movw	r18, r10
    4610:	0e 94 76 3a 	call	0x74ec	; 0x74ec <__mulsf3>
    4614:	9b 01       	movw	r18, r22
    4616:	ac 01       	movw	r20, r24
    4618:	c8 01       	movw	r24, r16
    461a:	b7 01       	movw	r22, r14
    461c:	0e 94 bf 38 	call	0x717e	; 0x717e <__addsf3>
    4620:	26 2f       	mov	r18, r22
    4622:	37 2f       	mov	r19, r23
    4624:	48 2f       	mov	r20, r24
    4626:	59 2f       	mov	r21, r25
    4628:	20 93 2c 05 	sts	0x052C, r18
    462c:	30 93 2d 05 	sts	0x052D, r19
    4630:	40 93 2e 05 	sts	0x052E, r20
    4634:	50 93 2f 05 	sts	0x052F, r21
    4638:	0e 94 dd 3a 	call	0x75ba	; 0x75ba <sqrt>
    463c:	1f 91       	pop	r17
    463e:	0f 91       	pop	r16
    4640:	ff 90       	pop	r15
    4642:	ef 90       	pop	r14
    4644:	df 90       	pop	r13
    4646:	cf 90       	pop	r12
    4648:	bf 90       	pop	r11
    464a:	af 90       	pop	r10
    464c:	9f 90       	pop	r9
    464e:	8f 90       	pop	r8
    4650:	7f 90       	pop	r7
    4652:	6f 90       	pop	r6
    4654:	08 95       	ret

00004656 <vector3d_normalize>:
    4656:	ef 92       	push	r14
    4658:	ff 92       	push	r15
    465a:	0f 93       	push	r16
    465c:	1f 93       	push	r17
    465e:	cf 93       	push	r28
    4660:	df 93       	push	r29
    4662:	ec 01       	movw	r28, r24
    4664:	0e 94 d7 22 	call	0x45ae	; 0x45ae <vector3d_modulus>
    4668:	7b 01       	movw	r14, r22
    466a:	8c 01       	movw	r16, r24
    466c:	60 93 28 05 	sts	0x0528, r22
    4670:	70 93 29 05 	sts	0x0529, r23
    4674:	80 93 2a 05 	sts	0x052A, r24
    4678:	90 93 2b 05 	sts	0x052B, r25
    467c:	68 81       	ld	r22, Y
    467e:	79 81       	ldd	r23, Y+1	; 0x01
    4680:	8a 81       	ldd	r24, Y+2	; 0x02
    4682:	9b 81       	ldd	r25, Y+3	; 0x03
    4684:	a8 01       	movw	r20, r16
    4686:	97 01       	movw	r18, r14
    4688:	0e 94 27 39 	call	0x724e	; 0x724e <__divsf3>
    468c:	68 83       	st	Y, r22
    468e:	79 83       	std	Y+1, r23	; 0x01
    4690:	8a 83       	std	Y+2, r24	; 0x02
    4692:	9b 83       	std	Y+3, r25	; 0x03
    4694:	6c 81       	ldd	r22, Y+4	; 0x04
    4696:	7d 81       	ldd	r23, Y+5	; 0x05
    4698:	8e 81       	ldd	r24, Y+6	; 0x06
    469a:	9f 81       	ldd	r25, Y+7	; 0x07
    469c:	a8 01       	movw	r20, r16
    469e:	97 01       	movw	r18, r14
    46a0:	0e 94 27 39 	call	0x724e	; 0x724e <__divsf3>
    46a4:	6c 83       	std	Y+4, r22	; 0x04
    46a6:	7d 83       	std	Y+5, r23	; 0x05
    46a8:	8e 83       	std	Y+6, r24	; 0x06
    46aa:	9f 83       	std	Y+7, r25	; 0x07
    46ac:	68 85       	ldd	r22, Y+8	; 0x08
    46ae:	79 85       	ldd	r23, Y+9	; 0x09
    46b0:	8a 85       	ldd	r24, Y+10	; 0x0a
    46b2:	9b 85       	ldd	r25, Y+11	; 0x0b
    46b4:	a8 01       	movw	r20, r16
    46b6:	97 01       	movw	r18, r14
    46b8:	0e 94 27 39 	call	0x724e	; 0x724e <__divsf3>
    46bc:	68 87       	std	Y+8, r22	; 0x08
    46be:	79 87       	std	Y+9, r23	; 0x09
    46c0:	8a 87       	std	Y+10, r24	; 0x0a
    46c2:	9b 87       	std	Y+11, r25	; 0x0b
    46c4:	df 91       	pop	r29
    46c6:	cf 91       	pop	r28
    46c8:	1f 91       	pop	r17
    46ca:	0f 91       	pop	r16
    46cc:	ff 90       	pop	r15
    46ce:	ef 90       	pop	r14
    46d0:	08 95       	ret

000046d2 <vector3d_dot>:
    46d2:	cf 92       	push	r12
    46d4:	df 92       	push	r13
    46d6:	ef 92       	push	r14
    46d8:	ff 92       	push	r15
    46da:	0f 93       	push	r16
    46dc:	1f 93       	push	r17
    46de:	cf 93       	push	r28
    46e0:	df 93       	push	r29
    46e2:	ec 01       	movw	r28, r24
    46e4:	8b 01       	movw	r16, r22
    46e6:	68 81       	ld	r22, Y
    46e8:	79 81       	ldd	r23, Y+1	; 0x01
    46ea:	8a 81       	ldd	r24, Y+2	; 0x02
    46ec:	9b 81       	ldd	r25, Y+3	; 0x03
    46ee:	f8 01       	movw	r30, r16
    46f0:	20 81       	ld	r18, Z
    46f2:	31 81       	ldd	r19, Z+1	; 0x01
    46f4:	42 81       	ldd	r20, Z+2	; 0x02
    46f6:	53 81       	ldd	r21, Z+3	; 0x03
    46f8:	0e 94 76 3a 	call	0x74ec	; 0x74ec <__mulsf3>
    46fc:	6b 01       	movw	r12, r22
    46fe:	7c 01       	movw	r14, r24
    4700:	6c 81       	ldd	r22, Y+4	; 0x04
    4702:	7d 81       	ldd	r23, Y+5	; 0x05
    4704:	8e 81       	ldd	r24, Y+6	; 0x06
    4706:	9f 81       	ldd	r25, Y+7	; 0x07
    4708:	f8 01       	movw	r30, r16
    470a:	24 81       	ldd	r18, Z+4	; 0x04
    470c:	35 81       	ldd	r19, Z+5	; 0x05
    470e:	46 81       	ldd	r20, Z+6	; 0x06
    4710:	57 81       	ldd	r21, Z+7	; 0x07
    4712:	0e 94 76 3a 	call	0x74ec	; 0x74ec <__mulsf3>
    4716:	9b 01       	movw	r18, r22
    4718:	ac 01       	movw	r20, r24
    471a:	c7 01       	movw	r24, r14
    471c:	b6 01       	movw	r22, r12
    471e:	0e 94 bf 38 	call	0x717e	; 0x717e <__addsf3>
    4722:	6b 01       	movw	r12, r22
    4724:	7c 01       	movw	r14, r24
    4726:	68 85       	ldd	r22, Y+8	; 0x08
    4728:	79 85       	ldd	r23, Y+9	; 0x09
    472a:	8a 85       	ldd	r24, Y+10	; 0x0a
    472c:	9b 85       	ldd	r25, Y+11	; 0x0b
    472e:	f8 01       	movw	r30, r16
    4730:	20 85       	ldd	r18, Z+8	; 0x08
    4732:	31 85       	ldd	r19, Z+9	; 0x09
    4734:	42 85       	ldd	r20, Z+10	; 0x0a
    4736:	53 85       	ldd	r21, Z+11	; 0x0b
    4738:	0e 94 76 3a 	call	0x74ec	; 0x74ec <__mulsf3>
    473c:	9b 01       	movw	r18, r22
    473e:	ac 01       	movw	r20, r24
    4740:	c7 01       	movw	r24, r14
    4742:	b6 01       	movw	r22, r12
    4744:	0e 94 bf 38 	call	0x717e	; 0x717e <__addsf3>
    4748:	df 91       	pop	r29
    474a:	cf 91       	pop	r28
    474c:	1f 91       	pop	r17
    474e:	0f 91       	pop	r16
    4750:	ff 90       	pop	r15
    4752:	ef 90       	pop	r14
    4754:	df 90       	pop	r13
    4756:	cf 90       	pop	r12
    4758:	08 95       	ret

0000475a <vector3d_cross>:
    475a:	af 92       	push	r10
    475c:	bf 92       	push	r11
    475e:	cf 92       	push	r12
    4760:	df 92       	push	r13
    4762:	ef 92       	push	r14
    4764:	ff 92       	push	r15
    4766:	0f 93       	push	r16
    4768:	1f 93       	push	r17
    476a:	cf 93       	push	r28
    476c:	df 93       	push	r29
    476e:	ec 01       	movw	r28, r24
    4770:	8b 01       	movw	r16, r22
    4772:	7a 01       	movw	r14, r20
    4774:	6c 81       	ldd	r22, Y+4	; 0x04
    4776:	7d 81       	ldd	r23, Y+5	; 0x05
    4778:	8e 81       	ldd	r24, Y+6	; 0x06
    477a:	9f 81       	ldd	r25, Y+7	; 0x07
    477c:	f8 01       	movw	r30, r16
    477e:	20 85       	ldd	r18, Z+8	; 0x08
    4780:	31 85       	ldd	r19, Z+9	; 0x09
    4782:	42 85       	ldd	r20, Z+10	; 0x0a
    4784:	53 85       	ldd	r21, Z+11	; 0x0b
    4786:	0e 94 76 3a 	call	0x74ec	; 0x74ec <__mulsf3>
    478a:	5b 01       	movw	r10, r22
    478c:	6c 01       	movw	r12, r24
    478e:	68 85       	ldd	r22, Y+8	; 0x08
    4790:	79 85       	ldd	r23, Y+9	; 0x09
    4792:	8a 85       	ldd	r24, Y+10	; 0x0a
    4794:	9b 85       	ldd	r25, Y+11	; 0x0b
    4796:	f8 01       	movw	r30, r16
    4798:	24 81       	ldd	r18, Z+4	; 0x04
    479a:	35 81       	ldd	r19, Z+5	; 0x05
    479c:	46 81       	ldd	r20, Z+6	; 0x06
    479e:	57 81       	ldd	r21, Z+7	; 0x07
    47a0:	0e 94 76 3a 	call	0x74ec	; 0x74ec <__mulsf3>
    47a4:	9b 01       	movw	r18, r22
    47a6:	ac 01       	movw	r20, r24
    47a8:	c6 01       	movw	r24, r12
    47aa:	b5 01       	movw	r22, r10
    47ac:	0e 94 be 38 	call	0x717c	; 0x717c <__subsf3>
    47b0:	f7 01       	movw	r30, r14
    47b2:	60 83       	st	Z, r22
    47b4:	71 83       	std	Z+1, r23	; 0x01
    47b6:	82 83       	std	Z+2, r24	; 0x02
    47b8:	93 83       	std	Z+3, r25	; 0x03
    47ba:	68 85       	ldd	r22, Y+8	; 0x08
    47bc:	79 85       	ldd	r23, Y+9	; 0x09
    47be:	8a 85       	ldd	r24, Y+10	; 0x0a
    47c0:	9b 85       	ldd	r25, Y+11	; 0x0b
    47c2:	f8 01       	movw	r30, r16
    47c4:	20 81       	ld	r18, Z
    47c6:	31 81       	ldd	r19, Z+1	; 0x01
    47c8:	42 81       	ldd	r20, Z+2	; 0x02
    47ca:	53 81       	ldd	r21, Z+3	; 0x03
    47cc:	0e 94 76 3a 	call	0x74ec	; 0x74ec <__mulsf3>
    47d0:	5b 01       	movw	r10, r22
    47d2:	6c 01       	movw	r12, r24
    47d4:	68 81       	ld	r22, Y
    47d6:	79 81       	ldd	r23, Y+1	; 0x01
    47d8:	8a 81       	ldd	r24, Y+2	; 0x02
    47da:	9b 81       	ldd	r25, Y+3	; 0x03
    47dc:	f8 01       	movw	r30, r16
    47de:	20 85       	ldd	r18, Z+8	; 0x08
    47e0:	31 85       	ldd	r19, Z+9	; 0x09
    47e2:	42 85       	ldd	r20, Z+10	; 0x0a
    47e4:	53 85       	ldd	r21, Z+11	; 0x0b
    47e6:	0e 94 76 3a 	call	0x74ec	; 0x74ec <__mulsf3>
    47ea:	9b 01       	movw	r18, r22
    47ec:	ac 01       	movw	r20, r24
    47ee:	c6 01       	movw	r24, r12
    47f0:	b5 01       	movw	r22, r10
    47f2:	0e 94 be 38 	call	0x717c	; 0x717c <__subsf3>
    47f6:	f7 01       	movw	r30, r14
    47f8:	64 83       	std	Z+4, r22	; 0x04
    47fa:	75 83       	std	Z+5, r23	; 0x05
    47fc:	86 83       	std	Z+6, r24	; 0x06
    47fe:	97 83       	std	Z+7, r25	; 0x07
    4800:	68 81       	ld	r22, Y
    4802:	79 81       	ldd	r23, Y+1	; 0x01
    4804:	8a 81       	ldd	r24, Y+2	; 0x02
    4806:	9b 81       	ldd	r25, Y+3	; 0x03
    4808:	f8 01       	movw	r30, r16
    480a:	24 81       	ldd	r18, Z+4	; 0x04
    480c:	35 81       	ldd	r19, Z+5	; 0x05
    480e:	46 81       	ldd	r20, Z+6	; 0x06
    4810:	57 81       	ldd	r21, Z+7	; 0x07
    4812:	0e 94 76 3a 	call	0x74ec	; 0x74ec <__mulsf3>
    4816:	5b 01       	movw	r10, r22
    4818:	6c 01       	movw	r12, r24
    481a:	6c 81       	ldd	r22, Y+4	; 0x04
    481c:	7d 81       	ldd	r23, Y+5	; 0x05
    481e:	8e 81       	ldd	r24, Y+6	; 0x06
    4820:	9f 81       	ldd	r25, Y+7	; 0x07
    4822:	f8 01       	movw	r30, r16
    4824:	20 81       	ld	r18, Z
    4826:	31 81       	ldd	r19, Z+1	; 0x01
    4828:	42 81       	ldd	r20, Z+2	; 0x02
    482a:	53 81       	ldd	r21, Z+3	; 0x03
    482c:	0e 94 76 3a 	call	0x74ec	; 0x74ec <__mulsf3>
    4830:	9b 01       	movw	r18, r22
    4832:	ac 01       	movw	r20, r24
    4834:	c6 01       	movw	r24, r12
    4836:	b5 01       	movw	r22, r10
    4838:	0e 94 be 38 	call	0x717c	; 0x717c <__subsf3>
    483c:	f7 01       	movw	r30, r14
    483e:	60 87       	std	Z+8, r22	; 0x08
    4840:	71 87       	std	Z+9, r23	; 0x09
    4842:	82 87       	std	Z+10, r24	; 0x0a
    4844:	93 87       	std	Z+11, r25	; 0x0b
    4846:	df 91       	pop	r29
    4848:	cf 91       	pop	r28
    484a:	1f 91       	pop	r17
    484c:	0f 91       	pop	r16
    484e:	ff 90       	pop	r15
    4850:	ef 90       	pop	r14
    4852:	df 90       	pop	r13
    4854:	cf 90       	pop	r12
    4856:	bf 90       	pop	r11
    4858:	af 90       	pop	r10
    485a:	08 95       	ret

0000485c <vector3d_scale>:
    485c:	cf 92       	push	r12
    485e:	df 92       	push	r13
    4860:	ef 92       	push	r14
    4862:	ff 92       	push	r15
    4864:	0f 93       	push	r16
    4866:	1f 93       	push	r17
    4868:	cf 93       	push	r28
    486a:	df 93       	push	r29
    486c:	7b 01       	movw	r14, r22
    486e:	8c 01       	movw	r16, r24
    4870:	ea 01       	movw	r28, r20
    4872:	69 01       	movw	r12, r18
    4874:	28 81       	ld	r18, Y
    4876:	39 81       	ldd	r19, Y+1	; 0x01
    4878:	4a 81       	ldd	r20, Y+2	; 0x02
    487a:	5b 81       	ldd	r21, Y+3	; 0x03
    487c:	0e 94 76 3a 	call	0x74ec	; 0x74ec <__mulsf3>
    4880:	f6 01       	movw	r30, r12
    4882:	60 83       	st	Z, r22
    4884:	71 83       	std	Z+1, r23	; 0x01
    4886:	82 83       	std	Z+2, r24	; 0x02
    4888:	93 83       	std	Z+3, r25	; 0x03
    488a:	c8 01       	movw	r24, r16
    488c:	b7 01       	movw	r22, r14
    488e:	2c 81       	ldd	r18, Y+4	; 0x04
    4890:	3d 81       	ldd	r19, Y+5	; 0x05
    4892:	4e 81       	ldd	r20, Y+6	; 0x06
    4894:	5f 81       	ldd	r21, Y+7	; 0x07
    4896:	0e 94 76 3a 	call	0x74ec	; 0x74ec <__mulsf3>
    489a:	f6 01       	movw	r30, r12
    489c:	64 83       	std	Z+4, r22	; 0x04
    489e:	75 83       	std	Z+5, r23	; 0x05
    48a0:	86 83       	std	Z+6, r24	; 0x06
    48a2:	97 83       	std	Z+7, r25	; 0x07
    48a4:	c8 01       	movw	r24, r16
    48a6:	b7 01       	movw	r22, r14
    48a8:	28 85       	ldd	r18, Y+8	; 0x08
    48aa:	39 85       	ldd	r19, Y+9	; 0x09
    48ac:	4a 85       	ldd	r20, Y+10	; 0x0a
    48ae:	5b 85       	ldd	r21, Y+11	; 0x0b
    48b0:	0e 94 76 3a 	call	0x74ec	; 0x74ec <__mulsf3>
    48b4:	f6 01       	movw	r30, r12
    48b6:	60 87       	std	Z+8, r22	; 0x08
    48b8:	71 87       	std	Z+9, r23	; 0x09
    48ba:	82 87       	std	Z+10, r24	; 0x0a
    48bc:	93 87       	std	Z+11, r25	; 0x0b
    48be:	df 91       	pop	r29
    48c0:	cf 91       	pop	r28
    48c2:	1f 91       	pop	r17
    48c4:	0f 91       	pop	r16
    48c6:	ff 90       	pop	r15
    48c8:	ef 90       	pop	r14
    48ca:	df 90       	pop	r13
    48cc:	cf 90       	pop	r12
    48ce:	08 95       	ret

000048d0 <vector3d_add>:
    48d0:	ef 92       	push	r14
    48d2:	ff 92       	push	r15
    48d4:	0f 93       	push	r16
    48d6:	1f 93       	push	r17
    48d8:	cf 93       	push	r28
    48da:	df 93       	push	r29
    48dc:	ec 01       	movw	r28, r24
    48de:	8b 01       	movw	r16, r22
    48e0:	7a 01       	movw	r14, r20
    48e2:	68 81       	ld	r22, Y
    48e4:	79 81       	ldd	r23, Y+1	; 0x01
    48e6:	8a 81       	ldd	r24, Y+2	; 0x02
    48e8:	9b 81       	ldd	r25, Y+3	; 0x03
    48ea:	f8 01       	movw	r30, r16
    48ec:	20 81       	ld	r18, Z
    48ee:	31 81       	ldd	r19, Z+1	; 0x01
    48f0:	42 81       	ldd	r20, Z+2	; 0x02
    48f2:	53 81       	ldd	r21, Z+3	; 0x03
    48f4:	0e 94 bf 38 	call	0x717e	; 0x717e <__addsf3>
    48f8:	f7 01       	movw	r30, r14
    48fa:	60 83       	st	Z, r22
    48fc:	71 83       	std	Z+1, r23	; 0x01
    48fe:	82 83       	std	Z+2, r24	; 0x02
    4900:	93 83       	std	Z+3, r25	; 0x03
    4902:	6c 81       	ldd	r22, Y+4	; 0x04
    4904:	7d 81       	ldd	r23, Y+5	; 0x05
    4906:	8e 81       	ldd	r24, Y+6	; 0x06
    4908:	9f 81       	ldd	r25, Y+7	; 0x07
    490a:	f8 01       	movw	r30, r16
    490c:	24 81       	ldd	r18, Z+4	; 0x04
    490e:	35 81       	ldd	r19, Z+5	; 0x05
    4910:	46 81       	ldd	r20, Z+6	; 0x06
    4912:	57 81       	ldd	r21, Z+7	; 0x07
    4914:	0e 94 bf 38 	call	0x717e	; 0x717e <__addsf3>
    4918:	f7 01       	movw	r30, r14
    491a:	64 83       	std	Z+4, r22	; 0x04
    491c:	75 83       	std	Z+5, r23	; 0x05
    491e:	86 83       	std	Z+6, r24	; 0x06
    4920:	97 83       	std	Z+7, r25	; 0x07
    4922:	68 85       	ldd	r22, Y+8	; 0x08
    4924:	79 85       	ldd	r23, Y+9	; 0x09
    4926:	8a 85       	ldd	r24, Y+10	; 0x0a
    4928:	9b 85       	ldd	r25, Y+11	; 0x0b
    492a:	f8 01       	movw	r30, r16
    492c:	20 85       	ldd	r18, Z+8	; 0x08
    492e:	31 85       	ldd	r19, Z+9	; 0x09
    4930:	42 85       	ldd	r20, Z+10	; 0x0a
    4932:	53 85       	ldd	r21, Z+11	; 0x0b
    4934:	0e 94 bf 38 	call	0x717e	; 0x717e <__addsf3>
    4938:	f7 01       	movw	r30, r14
    493a:	60 87       	std	Z+8, r22	; 0x08
    493c:	71 87       	std	Z+9, r23	; 0x09
    493e:	82 87       	std	Z+10, r24	; 0x0a
    4940:	93 87       	std	Z+11, r25	; 0x0b
    4942:	df 91       	pop	r29
    4944:	cf 91       	pop	r28
    4946:	1f 91       	pop	r17
    4948:	0f 91       	pop	r16
    494a:	ff 90       	pop	r15
    494c:	ef 90       	pop	r14
    494e:	08 95       	ret

00004950 <vector3d_skew_plus_identity>:
    4950:	ef 92       	push	r14
    4952:	ff 92       	push	r15
    4954:	0f 93       	push	r16
    4956:	1f 93       	push	r17
    4958:	dc 01       	movw	r26, r24
    495a:	fb 01       	movw	r30, r22
    495c:	20 e0       	ldi	r18, 0x00	; 0
    495e:	30 e0       	ldi	r19, 0x00	; 0
    4960:	40 e8       	ldi	r20, 0x80	; 128
    4962:	5f e3       	ldi	r21, 0x3F	; 63
    4964:	20 83       	st	Z, r18
    4966:	31 83       	std	Z+1, r19	; 0x01
    4968:	42 83       	std	Z+2, r20	; 0x02
    496a:	53 83       	std	Z+3, r21	; 0x03
    496c:	18 96       	adiw	r26, 0x08	; 8
    496e:	6d 91       	ld	r22, X+
    4970:	7d 91       	ld	r23, X+
    4972:	8d 91       	ld	r24, X+
    4974:	9c 91       	ld	r25, X
    4976:	1b 97       	sbiw	r26, 0x0b	; 11
    4978:	90 58       	subi	r25, 0x80	; 128
    497a:	64 83       	std	Z+4, r22	; 0x04
    497c:	75 83       	std	Z+5, r23	; 0x05
    497e:	86 83       	std	Z+6, r24	; 0x06
    4980:	97 83       	std	Z+7, r25	; 0x07
    4982:	14 96       	adiw	r26, 0x04	; 4
    4984:	6d 91       	ld	r22, X+
    4986:	7d 91       	ld	r23, X+
    4988:	8d 91       	ld	r24, X+
    498a:	9c 91       	ld	r25, X
    498c:	17 97       	sbiw	r26, 0x07	; 7
    498e:	60 87       	std	Z+8, r22	; 0x08
    4990:	71 87       	std	Z+9, r23	; 0x09
    4992:	82 87       	std	Z+10, r24	; 0x0a
    4994:	93 87       	std	Z+11, r25	; 0x0b
    4996:	18 96       	adiw	r26, 0x08	; 8
    4998:	6d 91       	ld	r22, X+
    499a:	7d 91       	ld	r23, X+
    499c:	8d 91       	ld	r24, X+
    499e:	9c 91       	ld	r25, X
    49a0:	1b 97       	sbiw	r26, 0x0b	; 11
    49a2:	64 87       	std	Z+12, r22	; 0x0c
    49a4:	75 87       	std	Z+13, r23	; 0x0d
    49a6:	86 87       	std	Z+14, r24	; 0x0e
    49a8:	97 87       	std	Z+15, r25	; 0x0f
    49aa:	20 8b       	std	Z+16, r18	; 0x10
    49ac:	31 8b       	std	Z+17, r19	; 0x11
    49ae:	42 8b       	std	Z+18, r20	; 0x12
    49b0:	53 8b       	std	Z+19, r21	; 0x13
    49b2:	6d 91       	ld	r22, X+
    49b4:	7d 91       	ld	r23, X+
    49b6:	8d 91       	ld	r24, X+
    49b8:	9c 91       	ld	r25, X
    49ba:	13 97       	sbiw	r26, 0x03	; 3
    49bc:	90 58       	subi	r25, 0x80	; 128
    49be:	64 8b       	std	Z+20, r22	; 0x14
    49c0:	75 8b       	std	Z+21, r23	; 0x15
    49c2:	86 8b       	std	Z+22, r24	; 0x16
    49c4:	97 8b       	std	Z+23, r25	; 0x17
    49c6:	14 96       	adiw	r26, 0x04	; 4
    49c8:	ed 90       	ld	r14, X+
    49ca:	fd 90       	ld	r15, X+
    49cc:	0d 91       	ld	r16, X+
    49ce:	1c 91       	ld	r17, X
    49d0:	17 97       	sbiw	r26, 0x07	; 7
    49d2:	17 fb       	bst	r17, 7
    49d4:	10 95       	com	r17
    49d6:	17 f9       	bld	r17, 7
    49d8:	10 95       	com	r17
    49da:	e0 8e       	std	Z+24, r14	; 0x18
    49dc:	f1 8e       	std	Z+25, r15	; 0x19
    49de:	02 8f       	std	Z+26, r16	; 0x1a
    49e0:	13 8f       	std	Z+27, r17	; 0x1b
    49e2:	8d 91       	ld	r24, X+
    49e4:	9d 91       	ld	r25, X+
    49e6:	0d 90       	ld	r0, X+
    49e8:	bc 91       	ld	r27, X
    49ea:	a0 2d       	mov	r26, r0
    49ec:	84 8f       	std	Z+28, r24	; 0x1c
    49ee:	95 8f       	std	Z+29, r25	; 0x1d
    49f0:	a6 8f       	std	Z+30, r26	; 0x1e
    49f2:	b7 8f       	std	Z+31, r27	; 0x1f
    49f4:	20 a3       	std	Z+32, r18	; 0x20
    49f6:	31 a3       	std	Z+33, r19	; 0x21
    49f8:	42 a3       	std	Z+34, r20	; 0x22
    49fa:	53 a3       	std	Z+35, r21	; 0x23
    49fc:	1f 91       	pop	r17
    49fe:	0f 91       	pop	r16
    4a00:	ff 90       	pop	r15
    4a02:	ef 90       	pop	r14
    4a04:	08 95       	ret

00004a06 <Motor_GenerateOutputSignal>:
    4a06:	f8 94       	cli
    4a08:	80 91 bd 05 	lds	r24, 0x05BD
    4a0c:	90 91 be 05 	lds	r25, 0x05BE
    4a10:	90 93 ec 07 	sts	0x07EC, r25
    4a14:	80 93 eb 07 	sts	0x07EB, r24
    4a18:	78 94       	sei
    4a1a:	20 91 eb 07 	lds	r18, 0x07EB
    4a1e:	30 91 ec 07 	lds	r19, 0x07EC
    4a22:	80 91 de 07 	lds	r24, 0x07DE
    4a26:	90 91 df 07 	lds	r25, 0x07DF
    4a2a:	28 17       	cp	r18, r24
    4a2c:	39 07       	cpc	r19, r25
    4a2e:	38 f0       	brcs	.+14     	; 0x4a3e <Motor_GenerateOutputSignal+0x38>
    4a30:	28 1b       	sub	r18, r24
    4a32:	39 0b       	sbc	r19, r25
    4a34:	30 93 d9 07 	sts	0x07D9, r19
    4a38:	20 93 d8 07 	sts	0x07D8, r18
    4a3c:	08 c0       	rjmp	.+16     	; 0x4a4e <Motor_GenerateOutputSignal+0x48>
    4a3e:	80 95       	com	r24
    4a40:	90 95       	com	r25
    4a42:	82 0f       	add	r24, r18
    4a44:	93 1f       	adc	r25, r19
    4a46:	90 93 d9 07 	sts	0x07D9, r25
    4a4a:	80 93 d8 07 	sts	0x07D8, r24
    4a4e:	40 91 d8 07 	lds	r20, 0x07D8
    4a52:	50 91 d9 07 	lds	r21, 0x07D9
    4a56:	89 e9       	ldi	r24, 0x99	; 153
    4a58:	91 e0       	ldi	r25, 0x01	; 1
    4a5a:	48 9f       	mul	r20, r24
    4a5c:	90 01       	movw	r18, r0
    4a5e:	49 9f       	mul	r20, r25
    4a60:	30 0d       	add	r19, r0
    4a62:	58 9f       	mul	r21, r24
    4a64:	30 0d       	add	r19, r0
    4a66:	11 24       	eor	r1, r1
    4a68:	80 ea       	ldi	r24, 0xA0	; 160
    4a6a:	9f e0       	ldi	r25, 0x0F	; 15
    4a6c:	82 1b       	sub	r24, r18
    4a6e:	93 0b       	sbc	r25, r19
    4a70:	0d c0       	rjmp	.+26     	; 0x4a8c <Motor_GenerateOutputSignal+0x86>
    4a72:	10 92 b2 00 	sts	0x00B2, r1
    4a76:	85 36       	cpi	r24, 0x65	; 101
    4a78:	91 05       	cpc	r25, r1
    4a7a:	3c f0       	brlt	.+14     	; 0x4a8a <Motor_GenerateOutputSignal+0x84>
    4a7c:	20 91 b2 00 	lds	r18, 0x00B2
    4a80:	28 32       	cpi	r18, 0x28	; 40
    4a82:	e0 f3       	brcs	.-8      	; 0x4a7c <Motor_GenerateOutputSignal+0x76>
    4a84:	80 55       	subi	r24, 0x50	; 80
    4a86:	90 40       	sbci	r25, 0x00	; 0
    4a88:	01 c0       	rjmp	.+2      	; 0x4a8c <Motor_GenerateOutputSignal+0x86>
    4a8a:	01 97       	sbiw	r24, 0x01	; 1
    4a8c:	90 93 e4 07 	sts	0x07E4, r25
    4a90:	80 93 e3 07 	sts	0x07E3, r24
    4a94:	80 91 e3 07 	lds	r24, 0x07E3
    4a98:	90 91 e4 07 	lds	r25, 0x07E4
    4a9c:	18 16       	cp	r1, r24
    4a9e:	19 06       	cpc	r1, r25
    4aa0:	44 f3       	brlt	.-48     	; 0x4a72 <Motor_GenerateOutputSignal+0x6c>
    4aa2:	80 91 30 05 	lds	r24, 0x0530
    4aa6:	8f 5f       	subi	r24, 0xFF	; 255
    4aa8:	80 93 30 05 	sts	0x0530, r24
    4aac:	80 91 98 05 	lds	r24, 0x0598
    4ab0:	90 91 99 05 	lds	r25, 0x0599
    4ab4:	97 ff       	sbrs	r25, 7
    4ab6:	05 c0       	rjmp	.+10     	; 0x4ac2 <Motor_GenerateOutputSignal+0xbc>
    4ab8:	10 92 e6 07 	sts	0x07E6, r1
    4abc:	10 92 e5 07 	sts	0x07E5, r1
    4ac0:	0a c0       	rjmp	.+20     	; 0x4ad6 <Motor_GenerateOutputSignal+0xd0>
    4ac2:	24 e0       	ldi	r18, 0x04	; 4
    4ac4:	8f 37       	cpi	r24, 0x7F	; 127
    4ac6:	92 07       	cpc	r25, r18
    4ac8:	14 f0       	brlt	.+4      	; 0x4ace <Motor_GenerateOutputSignal+0xc8>
    4aca:	8e e7       	ldi	r24, 0x7E	; 126
    4acc:	94 e0       	ldi	r25, 0x04	; 4
    4ace:	90 93 e6 07 	sts	0x07E6, r25
    4ad2:	80 93 e5 07 	sts	0x07E5, r24
    4ad6:	80 91 9a 05 	lds	r24, 0x059A
    4ada:	90 91 9b 05 	lds	r25, 0x059B
    4ade:	97 ff       	sbrs	r25, 7
    4ae0:	05 c0       	rjmp	.+10     	; 0x4aec <Motor_GenerateOutputSignal+0xe6>
    4ae2:	10 92 dd 07 	sts	0x07DD, r1
    4ae6:	10 92 dc 07 	sts	0x07DC, r1
    4aea:	0a c0       	rjmp	.+20     	; 0x4b00 <Motor_GenerateOutputSignal+0xfa>
    4aec:	24 e0       	ldi	r18, 0x04	; 4
    4aee:	8f 37       	cpi	r24, 0x7F	; 127
    4af0:	92 07       	cpc	r25, r18
    4af2:	14 f0       	brlt	.+4      	; 0x4af8 <Motor_GenerateOutputSignal+0xf2>
    4af4:	8e e7       	ldi	r24, 0x7E	; 126
    4af6:	94 e0       	ldi	r25, 0x04	; 4
    4af8:	90 93 dd 07 	sts	0x07DD, r25
    4afc:	80 93 dc 07 	sts	0x07DC, r24
    4b00:	80 91 9c 05 	lds	r24, 0x059C
    4b04:	90 91 9d 05 	lds	r25, 0x059D
    4b08:	97 ff       	sbrs	r25, 7
    4b0a:	05 c0       	rjmp	.+10     	; 0x4b16 <Motor_GenerateOutputSignal+0x110>
    4b0c:	10 92 ea 07 	sts	0x07EA, r1
    4b10:	10 92 e9 07 	sts	0x07E9, r1
    4b14:	0a c0       	rjmp	.+20     	; 0x4b2a <Motor_GenerateOutputSignal+0x124>
    4b16:	24 e0       	ldi	r18, 0x04	; 4
    4b18:	8f 37       	cpi	r24, 0x7F	; 127
    4b1a:	92 07       	cpc	r25, r18
    4b1c:	14 f0       	brlt	.+4      	; 0x4b22 <Motor_GenerateOutputSignal+0x11c>
    4b1e:	8e e7       	ldi	r24, 0x7E	; 126
    4b20:	94 e0       	ldi	r25, 0x04	; 4
    4b22:	90 93 ea 07 	sts	0x07EA, r25
    4b26:	80 93 e9 07 	sts	0x07E9, r24
    4b2a:	80 91 9e 05 	lds	r24, 0x059E
    4b2e:	90 91 9f 05 	lds	r25, 0x059F
    4b32:	97 ff       	sbrs	r25, 7
    4b34:	05 c0       	rjmp	.+10     	; 0x4b40 <Motor_GenerateOutputSignal+0x13a>
    4b36:	10 92 db 07 	sts	0x07DB, r1
    4b3a:	10 92 da 07 	sts	0x07DA, r1
    4b3e:	0a c0       	rjmp	.+20     	; 0x4b54 <Motor_GenerateOutputSignal+0x14e>
    4b40:	24 e0       	ldi	r18, 0x04	; 4
    4b42:	8f 37       	cpi	r24, 0x7F	; 127
    4b44:	92 07       	cpc	r25, r18
    4b46:	14 f0       	brlt	.+4      	; 0x4b4c <Motor_GenerateOutputSignal+0x146>
    4b48:	8e e7       	ldi	r24, 0x7E	; 126
    4b4a:	94 e0       	ldi	r25, 0x04	; 4
    4b4c:	90 93 db 07 	sts	0x07DB, r25
    4b50:	80 93 da 07 	sts	0x07DA, r24
    4b54:	46 9a       	sbi	0x08, 6	; 8
    4b56:	44 9a       	sbi	0x08, 4	; 8
    4b58:	42 9a       	sbi	0x08, 2	; 8
    4b5a:	80 91 d8 06 	lds	r24, 0x06D8
    4b5e:	81 30       	cpi	r24, 0x01	; 1
    4b60:	11 f4       	brne	.+4      	; 0x4b66 <Motor_GenerateOutputSignal+0x160>
    4b62:	43 9a       	sbi	0x08, 3	; 8
    4b64:	09 c0       	rjmp	.+18     	; 0x4b78 <Motor_GenerateOutputSignal+0x172>
    4b66:	82 30       	cpi	r24, 0x02	; 2
    4b68:	39 f4       	brne	.+14     	; 0x4b78 <Motor_GenerateOutputSignal+0x172>
    4b6a:	80 91 30 05 	lds	r24, 0x0530
    4b6e:	85 30       	cpi	r24, 0x05	; 5
    4b70:	19 f4       	brne	.+6      	; 0x4b78 <Motor_GenerateOutputSignal+0x172>
    4b72:	43 9a       	sbi	0x08, 3	; 8
    4b74:	10 92 30 05 	sts	0x0530, r1
    4b78:	80 91 dc 06 	lds	r24, 0x06DC
    4b7c:	90 e0       	ldi	r25, 0x00	; 0
    4b7e:	80 5e       	subi	r24, 0xE0	; 224
    4b80:	9c 4f       	sbci	r25, 0xFC	; 252
    4b82:	0d c0       	rjmp	.+26     	; 0x4b9e <Motor_GenerateOutputSignal+0x198>
    4b84:	10 92 b2 00 	sts	0x00B2, r1
    4b88:	85 36       	cpi	r24, 0x65	; 101
    4b8a:	91 05       	cpc	r25, r1
    4b8c:	3c f0       	brlt	.+14     	; 0x4b9c <Motor_GenerateOutputSignal+0x196>
    4b8e:	20 91 b2 00 	lds	r18, 0x00B2
    4b92:	2d 32       	cpi	r18, 0x2D	; 45
    4b94:	e0 f3       	brcs	.-8      	; 0x4b8e <Motor_GenerateOutputSignal+0x188>
    4b96:	80 55       	subi	r24, 0x50	; 80
    4b98:	90 40       	sbci	r25, 0x00	; 0
    4b9a:	01 c0       	rjmp	.+2      	; 0x4b9e <Motor_GenerateOutputSignal+0x198>
    4b9c:	01 97       	sbiw	r24, 0x01	; 1
    4b9e:	90 93 e4 07 	sts	0x07E4, r25
    4ba2:	80 93 e3 07 	sts	0x07E3, r24
    4ba6:	80 91 e3 07 	lds	r24, 0x07E3
    4baa:	90 91 e4 07 	lds	r25, 0x07E4
    4bae:	18 16       	cp	r1, r24
    4bb0:	19 06       	cpc	r1, r25
    4bb2:	44 f3       	brlt	.-48     	; 0x4b84 <Motor_GenerateOutputSignal+0x17e>
    4bb4:	10 92 e2 07 	sts	0x07E2, r1
    4bb8:	10 92 e1 07 	sts	0x07E1, r1
    4bbc:	39 c0       	rjmp	.+114    	; 0x4c30 <Motor_GenerateOutputSignal+0x22a>
    4bbe:	20 91 e1 07 	lds	r18, 0x07E1
    4bc2:	30 91 e2 07 	lds	r19, 0x07E2
    4bc6:	80 91 e5 07 	lds	r24, 0x07E5
    4bca:	90 91 e6 07 	lds	r25, 0x07E6
    4bce:	28 17       	cp	r18, r24
    4bd0:	39 07       	cpc	r19, r25
    4bd2:	08 f0       	brcs	.+2      	; 0x4bd6 <Motor_GenerateOutputSignal+0x1d0>
    4bd4:	46 98       	cbi	0x08, 6	; 8
    4bd6:	20 91 e1 07 	lds	r18, 0x07E1
    4bda:	30 91 e2 07 	lds	r19, 0x07E2
    4bde:	80 91 dc 07 	lds	r24, 0x07DC
    4be2:	90 91 dd 07 	lds	r25, 0x07DD
    4be6:	28 17       	cp	r18, r24
    4be8:	39 07       	cpc	r19, r25
    4bea:	08 f0       	brcs	.+2      	; 0x4bee <Motor_GenerateOutputSignal+0x1e8>
    4bec:	44 98       	cbi	0x08, 4	; 8
    4bee:	20 91 e1 07 	lds	r18, 0x07E1
    4bf2:	30 91 e2 07 	lds	r19, 0x07E2
    4bf6:	80 91 e9 07 	lds	r24, 0x07E9
    4bfa:	90 91 ea 07 	lds	r25, 0x07EA
    4bfe:	28 17       	cp	r18, r24
    4c00:	39 07       	cpc	r19, r25
    4c02:	08 f0       	brcs	.+2      	; 0x4c06 <Motor_GenerateOutputSignal+0x200>
    4c04:	42 98       	cbi	0x08, 2	; 8
    4c06:	20 91 e1 07 	lds	r18, 0x07E1
    4c0a:	30 91 e2 07 	lds	r19, 0x07E2
    4c0e:	80 91 da 07 	lds	r24, 0x07DA
    4c12:	90 91 db 07 	lds	r25, 0x07DB
    4c16:	28 17       	cp	r18, r24
    4c18:	39 07       	cpc	r19, r25
    4c1a:	08 f0       	brcs	.+2      	; 0x4c1e <Motor_GenerateOutputSignal+0x218>
    4c1c:	43 98       	cbi	0x08, 3	; 8
    4c1e:	80 91 e1 07 	lds	r24, 0x07E1
    4c22:	90 91 e2 07 	lds	r25, 0x07E2
    4c26:	04 96       	adiw	r24, 0x04	; 4
    4c28:	90 93 e2 07 	sts	0x07E2, r25
    4c2c:	80 93 e1 07 	sts	0x07E1, r24
    4c30:	80 91 e1 07 	lds	r24, 0x07E1
    4c34:	90 91 e2 07 	lds	r25, 0x07E2
    4c38:	24 e0       	ldi	r18, 0x04	; 4
    4c3a:	82 38       	cpi	r24, 0x82	; 130
    4c3c:	92 07       	cpc	r25, r18
    4c3e:	08 f4       	brcc	.+2      	; 0x4c42 <Motor_GenerateOutputSignal+0x23c>
    4c40:	be cf       	rjmp	.-132    	; 0x4bbe <Motor_GenerateOutputSignal+0x1b8>
    4c42:	f8 94       	cli
    4c44:	80 91 bd 05 	lds	r24, 0x05BD
    4c48:	90 91 be 05 	lds	r25, 0x05BE
    4c4c:	90 93 df 07 	sts	0x07DF, r25
    4c50:	80 93 de 07 	sts	0x07DE, r24
    4c54:	78 94       	sei
    4c56:	08 95       	ret

00004c58 <CalculateSignalLength1>:
    4c58:	20 91 84 00 	lds	r18, 0x0084
    4c5c:	30 91 85 00 	lds	r19, 0x0085
    4c60:	90 e0       	ldi	r25, 0x00	; 0
    4c62:	88 0f       	add	r24, r24
    4c64:	99 1f       	adc	r25, r25
    4c66:	fc 01       	movw	r30, r24
    4c68:	e4 50       	subi	r30, 0x04	; 4
    4c6a:	f8 4f       	sbci	r31, 0xF8	; 248
    4c6c:	40 81       	ld	r20, Z
    4c6e:	51 81       	ldd	r21, Z+1	; 0x01
    4c70:	dc 01       	movw	r26, r24
    4c72:	a2 53       	subi	r26, 0x32	; 50
    4c74:	ba 4f       	sbci	r27, 0xFA	; 250
    4c76:	42 17       	cp	r20, r18
    4c78:	53 07       	cpc	r21, r19
    4c7a:	48 f4       	brcc	.+18     	; 0x4c8e <CalculateSignalLength1+0x36>
    4c7c:	20 91 84 00 	lds	r18, 0x0084
    4c80:	30 91 85 00 	lds	r19, 0x0085
    4c84:	80 81       	ld	r24, Z
    4c86:	91 81       	ldd	r25, Z+1	; 0x01
    4c88:	28 1b       	sub	r18, r24
    4c8a:	39 0b       	sbc	r19, r25
    4c8c:	0a c0       	rjmp	.+20     	; 0x4ca2 <CalculateSignalLength1+0x4a>
    4c8e:	20 81       	ld	r18, Z
    4c90:	31 81       	ldd	r19, Z+1	; 0x01
    4c92:	80 91 84 00 	lds	r24, 0x0084
    4c96:	90 91 85 00 	lds	r25, 0x0085
    4c9a:	20 95       	com	r18
    4c9c:	30 95       	com	r19
    4c9e:	28 0f       	add	r18, r24
    4ca0:	39 1f       	adc	r19, r25
    4ca2:	11 96       	adiw	r26, 0x01	; 1
    4ca4:	3c 93       	st	X, r19
    4ca6:	2e 93       	st	-X, r18
    4ca8:	08 95       	ret

00004caa <CalculateSignalLength2>:
    4caa:	20 91 84 00 	lds	r18, 0x0084
    4cae:	30 91 85 00 	lds	r19, 0x0085
    4cb2:	90 e0       	ldi	r25, 0x00	; 0
    4cb4:	05 96       	adiw	r24, 0x05	; 5
    4cb6:	88 0f       	add	r24, r24
    4cb8:	99 1f       	adc	r25, r25
    4cba:	fc 01       	movw	r30, r24
    4cbc:	e4 50       	subi	r30, 0x04	; 4
    4cbe:	f8 4f       	sbci	r31, 0xF8	; 248
    4cc0:	40 81       	ld	r20, Z
    4cc2:	51 81       	ldd	r21, Z+1	; 0x01
    4cc4:	dc 01       	movw	r26, r24
    4cc6:	a2 53       	subi	r26, 0x32	; 50
    4cc8:	ba 4f       	sbci	r27, 0xFA	; 250
    4cca:	42 17       	cp	r20, r18
    4ccc:	53 07       	cpc	r21, r19
    4cce:	40 f4       	brcc	.+16     	; 0x4ce0 <CalculateSignalLength2+0x36>
    4cd0:	80 81       	ld	r24, Z
    4cd2:	91 81       	ldd	r25, Z+1	; 0x01
    4cd4:	28 1b       	sub	r18, r24
    4cd6:	39 0b       	sbc	r19, r25
    4cd8:	11 96       	adiw	r26, 0x01	; 1
    4cda:	3c 93       	st	X, r19
    4cdc:	2e 93       	st	-X, r18
    4cde:	08 95       	ret
    4ce0:	40 81       	ld	r20, Z
    4ce2:	51 81       	ldd	r21, Z+1	; 0x01
    4ce4:	40 95       	com	r20
    4ce6:	50 95       	com	r21
    4ce8:	42 0f       	add	r20, r18
    4cea:	53 1f       	adc	r21, r19
    4cec:	11 96       	adiw	r26, 0x01	; 1
    4cee:	5c 93       	st	X, r21
    4cf0:	4e 93       	st	-X, r20
    4cf2:	08 95       	ret

00004cf4 <RX_Init>:
    4cf4:	20 98       	cbi	0x04, 0	; 4
    4cf6:	80 91 d3 06 	lds	r24, 0x06D3
    4cfa:	88 23       	and	r24, r24
    4cfc:	f1 f4       	brne	.+60     	; 0x4d3a <RX_Init+0x46>
    4cfe:	10 92 cc 05 	sts	0x05CC, r1
    4d02:	52 98       	cbi	0x0a, 2	; 10
    4d04:	50 98       	cbi	0x0a, 0	; 10
    4d06:	53 98       	cbi	0x0a, 3	; 10
    4d08:	22 98       	cbi	0x04, 2	; 4
    4d0a:	85 e1       	ldi	r24, 0x15	; 21
    4d0c:	80 93 69 00 	sts	0x0069, r24
    4d10:	87 e0       	ldi	r24, 0x07	; 7
    4d12:	8d bb       	out	0x1d, r24	; 29
    4d14:	8c bb       	out	0x1c, r24	; 28
    4d16:	80 91 68 00 	lds	r24, 0x0068
    4d1a:	8a 60       	ori	r24, 0x0A	; 10
    4d1c:	80 93 68 00 	sts	0x0068, r24
    4d20:	80 91 6c 00 	lds	r24, 0x006C
    4d24:	81 60       	ori	r24, 0x01	; 1
    4d26:	80 93 6c 00 	sts	0x006C, r24
    4d2a:	80 91 73 00 	lds	r24, 0x0073
    4d2e:	81 60       	ori	r24, 0x01	; 1
    4d30:	80 93 73 00 	sts	0x0073, r24
    4d34:	8b b3       	in	r24, 0x1b	; 27
    4d36:	8a 60       	ori	r24, 0x0A	; 10
    4d38:	8b bb       	out	0x1b, r24	; 27
    4d3a:	81 e0       	ldi	r24, 0x01	; 1
    4d3c:	80 93 cc 05 	sts	0x05CC, r24
    4d40:	3d 98       	cbi	0x07, 5	; 7
    4d42:	38 98       	cbi	0x07, 0	; 7
    4d44:	3f 98       	cbi	0x07, 7	; 7
    4d46:	39 98       	cbi	0x07, 1	; 7
    4d48:	80 91 68 00 	lds	r24, 0x0068
    4d4c:	86 60       	ori	r24, 0x06	; 6
    4d4e:	80 93 68 00 	sts	0x0068, r24
    4d52:	80 91 6c 00 	lds	r24, 0x006C
    4d56:	81 60       	ori	r24, 0x01	; 1
    4d58:	80 93 6c 00 	sts	0x006C, r24
    4d5c:	80 91 6d 00 	lds	r24, 0x006D
    4d60:	83 6a       	ori	r24, 0xA3	; 163
    4d62:	80 93 6d 00 	sts	0x006D, r24
    4d66:	8b b3       	in	r24, 0x1b	; 27
    4d68:	86 60       	ori	r24, 0x06	; 6
    4d6a:	8b bb       	out	0x1b, r24	; 27
    4d6c:	80 91 d5 07 	lds	r24, 0x07D5
    4d70:	81 60       	ori	r24, 0x01	; 1
    4d72:	80 93 d5 07 	sts	0x07D5, r24
    4d76:	80 91 d5 07 	lds	r24, 0x07D5
    4d7a:	80 61       	ori	r24, 0x10	; 16
    4d7c:	80 93 d5 07 	sts	0x07D5, r24
    4d80:	f8 94       	cli
    4d82:	80 91 5e 06 	lds	r24, 0x065E
    4d86:	90 91 5f 06 	lds	r25, 0x065F
    4d8a:	90 93 f4 07 	sts	0x07F4, r25
    4d8e:	80 93 f3 07 	sts	0x07F3, r24
    4d92:	80 91 5e 06 	lds	r24, 0x065E
    4d96:	90 91 5f 06 	lds	r25, 0x065F
    4d9a:	90 93 f6 07 	sts	0x07F6, r25
    4d9e:	80 93 f5 07 	sts	0x07F5, r24
    4da2:	78 94       	sei
    4da4:	80 91 f1 07 	lds	r24, 0x07F1
    4da8:	90 91 f2 07 	lds	r25, 0x07F2
    4dac:	90 93 f2 07 	sts	0x07F2, r25
    4db0:	80 93 f1 07 	sts	0x07F1, r24
    4db4:	80 91 ed 07 	lds	r24, 0x07ED
    4db8:	90 91 ee 07 	lds	r25, 0x07EE
    4dbc:	90 93 ee 07 	sts	0x07EE, r25
    4dc0:	80 93 ed 07 	sts	0x07ED, r24
    4dc4:	08 95       	ret

00004dc6 <RX_raw_GetReceiverValues>:
    4dc6:	f8 94       	cli
    4dc8:	90 e0       	ldi	r25, 0x00	; 0
    4dca:	fc 01       	movw	r30, r24
    4dcc:	ee 0f       	add	r30, r30
    4dce:	ff 1f       	adc	r31, r31
    4dd0:	ee 0f       	add	r30, r30
    4dd2:	ff 1f       	adc	r31, r31
    4dd4:	e8 0f       	add	r30, r24
    4dd6:	f9 1f       	adc	r31, r25
    4dd8:	e6 0f       	add	r30, r22
    4dda:	f1 1d       	adc	r31, r1
    4ddc:	ee 0f       	add	r30, r30
    4dde:	ff 1f       	adc	r31, r31
    4de0:	e2 53       	subi	r30, 0x32	; 50
    4de2:	fa 4f       	sbci	r31, 0xFA	; 250
    4de4:	20 81       	ld	r18, Z
    4de6:	31 81       	ldd	r19, Z+1	; 0x01
    4de8:	78 94       	sei
    4dea:	c9 01       	movw	r24, r18
    4dec:	08 95       	ret

00004dee <RX_GetReceiverValues>:
    4dee:	f8 94       	cli
    4df0:	90 e0       	ldi	r25, 0x00	; 0
    4df2:	70 e0       	ldi	r23, 0x00	; 0
    4df4:	9c 01       	movw	r18, r24
    4df6:	22 0f       	add	r18, r18
    4df8:	33 1f       	adc	r19, r19
    4dfa:	22 0f       	add	r18, r18
    4dfc:	33 1f       	adc	r19, r19
    4dfe:	28 0f       	add	r18, r24
    4e00:	39 1f       	adc	r19, r25
    4e02:	a9 01       	movw	r20, r18
    4e04:	46 0f       	add	r20, r22
    4e06:	57 1f       	adc	r21, r23
    4e08:	44 0f       	add	r20, r20
    4e0a:	55 1f       	adc	r21, r21
    4e0c:	fa 01       	movw	r30, r20
    4e0e:	e2 53       	subi	r30, 0x32	; 50
    4e10:	fa 4f       	sbci	r31, 0xFA	; 250
    4e12:	80 81       	ld	r24, Z
    4e14:	91 81       	ldd	r25, Z+1	; 0x01
    4e16:	78 94       	sei
    4e18:	4c 5b       	subi	r20, 0xBC	; 188
    4e1a:	58 4f       	sbci	r21, 0xF8	; 248
    4e1c:	fa 01       	movw	r30, r20
    4e1e:	40 81       	ld	r20, Z
    4e20:	51 81       	ldd	r21, Z+1	; 0x01
    4e22:	84 1b       	sub	r24, r20
    4e24:	95 0b       	sbc	r25, r21
    4e26:	26 0f       	add	r18, r22
    4e28:	37 1f       	adc	r19, r23
    4e2a:	22 58       	subi	r18, 0x82	; 130
    4e2c:	38 4f       	sbci	r19, 0xF8	; 248
    4e2e:	f9 01       	movw	r30, r18
    4e30:	60 81       	ld	r22, Z
    4e32:	77 27       	eor	r23, r23
    4e34:	67 fd       	sbrc	r22, 7
    4e36:	70 95       	com	r23
    4e38:	0e 94 44 3b 	call	0x7688	; 0x7688 <__divmodhi4>
    4e3c:	cb 01       	movw	r24, r22
    4e3e:	08 95       	ret

00004e40 <RX_GetReceiverThrottleValue>:
    4e40:	f8 94       	cli
    4e42:	88 23       	and	r24, r24
    4e44:	11 f5       	brne	.+68     	; 0x4e8a <RX_GetReceiverThrottleValue+0x4a>
    4e46:	40 91 5e 06 	lds	r20, 0x065E
    4e4a:	50 91 5f 06 	lds	r21, 0x065F
    4e4e:	60 91 f3 07 	lds	r22, 0x07F3
    4e52:	70 91 f4 07 	lds	r23, 0x07F4
    4e56:	46 1b       	sub	r20, r22
    4e58:	57 0b       	sbc	r21, r23
    4e5a:	45 31       	cpi	r20, 0x15	; 21
    4e5c:	51 05       	cpc	r21, r1
    4e5e:	20 f0       	brcs	.+8      	; 0x4e68 <RX_GetReceiverThrottleValue+0x28>
    4e60:	80 91 d5 07 	lds	r24, 0x07D5
    4e64:	81 60       	ori	r24, 0x01	; 1
    4e66:	34 c0       	rjmp	.+104    	; 0x4ed0 <RX_GetReceiverThrottleValue+0x90>
    4e68:	40 91 5e 06 	lds	r20, 0x065E
    4e6c:	50 91 5f 06 	lds	r21, 0x065F
    4e70:	60 91 f5 07 	lds	r22, 0x07F5
    4e74:	70 91 f6 07 	lds	r23, 0x07F6
    4e78:	46 1b       	sub	r20, r22
    4e7a:	57 0b       	sbc	r21, r23
    4e7c:	45 31       	cpi	r20, 0x15	; 21
    4e7e:	51 05       	cpc	r21, r1
    4e80:	68 f1       	brcs	.+90     	; 0x4edc <RX_GetReceiverThrottleValue+0x9c>
    4e82:	80 91 d5 07 	lds	r24, 0x07D5
    4e86:	82 60       	ori	r24, 0x02	; 2
    4e88:	23 c0       	rjmp	.+70     	; 0x4ed0 <RX_GetReceiverThrottleValue+0x90>
    4e8a:	81 30       	cpi	r24, 0x01	; 1
    4e8c:	39 f5       	brne	.+78     	; 0x4edc <RX_GetReceiverThrottleValue+0x9c>
    4e8e:	40 91 5e 06 	lds	r20, 0x065E
    4e92:	50 91 5f 06 	lds	r21, 0x065F
    4e96:	60 91 f1 07 	lds	r22, 0x07F1
    4e9a:	70 91 f2 07 	lds	r23, 0x07F2
    4e9e:	46 1b       	sub	r20, r22
    4ea0:	57 0b       	sbc	r21, r23
    4ea2:	45 31       	cpi	r20, 0x15	; 21
    4ea4:	51 05       	cpc	r21, r1
    4ea6:	20 f0       	brcs	.+8      	; 0x4eb0 <RX_GetReceiverThrottleValue+0x70>
    4ea8:	80 91 d5 07 	lds	r24, 0x07D5
    4eac:	80 61       	ori	r24, 0x10	; 16
    4eae:	10 c0       	rjmp	.+32     	; 0x4ed0 <RX_GetReceiverThrottleValue+0x90>
    4eb0:	40 91 5e 06 	lds	r20, 0x065E
    4eb4:	50 91 5f 06 	lds	r21, 0x065F
    4eb8:	60 91 ed 07 	lds	r22, 0x07ED
    4ebc:	70 91 ee 07 	lds	r23, 0x07EE
    4ec0:	46 1b       	sub	r20, r22
    4ec2:	57 0b       	sbc	r21, r23
    4ec4:	45 31       	cpi	r20, 0x15	; 21
    4ec6:	51 05       	cpc	r21, r1
    4ec8:	48 f0       	brcs	.+18     	; 0x4edc <RX_GetReceiverThrottleValue+0x9c>
    4eca:	80 91 d5 07 	lds	r24, 0x07D5
    4ece:	80 62       	ori	r24, 0x20	; 32
    4ed0:	80 93 d5 07 	sts	0x07D5, r24
    4ed4:	78 94       	sei
    4ed6:	20 e0       	ldi	r18, 0x00	; 0
    4ed8:	30 e0       	ldi	r19, 0x00	; 0
    4eda:	41 c0       	rjmp	.+130    	; 0x4f5e <RX_GetReceiverThrottleValue+0x11e>
    4edc:	28 2f       	mov	r18, r24
    4ede:	30 e0       	ldi	r19, 0x00	; 0
    4ee0:	c9 01       	movw	r24, r18
    4ee2:	88 0f       	add	r24, r24
    4ee4:	99 1f       	adc	r25, r25
    4ee6:	a9 01       	movw	r20, r18
    4ee8:	b3 e0       	ldi	r27, 0x03	; 3
    4eea:	44 0f       	add	r20, r20
    4eec:	55 1f       	adc	r21, r21
    4eee:	ba 95       	dec	r27
    4ef0:	e1 f7       	brne	.-8      	; 0x4eea <RX_GetReceiverThrottleValue+0xaa>
    4ef2:	84 0f       	add	r24, r20
    4ef4:	95 1f       	adc	r25, r21
    4ef6:	fc 01       	movw	r30, r24
    4ef8:	e2 53       	subi	r30, 0x32	; 50
    4efa:	fa 4f       	sbci	r31, 0xFA	; 250
    4efc:	46 81       	ldd	r20, Z+6	; 0x06
    4efe:	57 81       	ldd	r21, Z+7	; 0x07
    4f00:	50 93 f8 07 	sts	0x07F8, r21
    4f04:	40 93 f7 07 	sts	0x07F7, r20
    4f08:	78 94       	sei
    4f0a:	40 91 f7 07 	lds	r20, 0x07F7
    4f0e:	50 91 f8 07 	lds	r21, 0x07F8
    4f12:	82 5a       	subi	r24, 0xA2	; 162
    4f14:	98 4f       	sbci	r25, 0xF8	; 248
    4f16:	fc 01       	movw	r30, r24
    4f18:	80 81       	ld	r24, Z
    4f1a:	91 81       	ldd	r25, Z+1	; 0x01
    4f1c:	48 1b       	sub	r20, r24
    4f1e:	59 0b       	sbc	r21, r25
    4f20:	50 93 f8 07 	sts	0x07F8, r21
    4f24:	40 93 f7 07 	sts	0x07F7, r20
    4f28:	80 91 f7 07 	lds	r24, 0x07F7
    4f2c:	90 91 f8 07 	lds	r25, 0x07F8
    4f30:	f9 01       	movw	r30, r18
    4f32:	ee 0f       	add	r30, r30
    4f34:	ff 1f       	adc	r31, r31
    4f36:	ee 0f       	add	r30, r30
    4f38:	ff 1f       	adc	r31, r31
    4f3a:	e2 0f       	add	r30, r18
    4f3c:	f3 1f       	adc	r31, r19
    4f3e:	ef 57       	subi	r30, 0x7F	; 127
    4f40:	f8 4f       	sbci	r31, 0xF8	; 248
    4f42:	60 81       	ld	r22, Z
    4f44:	77 27       	eor	r23, r23
    4f46:	67 fd       	sbrc	r22, 7
    4f48:	70 95       	com	r23
    4f4a:	0e 94 44 3b 	call	0x7688	; 0x7688 <__divmodhi4>
    4f4e:	70 93 f8 07 	sts	0x07F8, r23
    4f52:	60 93 f7 07 	sts	0x07F7, r22
    4f56:	20 91 f7 07 	lds	r18, 0x07F7
    4f5a:	30 91 f8 07 	lds	r19, 0x07F8
    4f5e:	c9 01       	movw	r24, r18
    4f60:	08 95       	ret

00004f62 <RX_CopyLatestReceiverValues>:
    4f62:	cf 92       	push	r12
    4f64:	df 92       	push	r13
    4f66:	ef 92       	push	r14
    4f68:	ff 92       	push	r15
    4f6a:	0f 93       	push	r16
    4f6c:	1f 93       	push	r17
    4f6e:	cf 93       	push	r28
    4f70:	df 93       	push	r29
    4f72:	c0 e0       	ldi	r28, 0x00	; 0
    4f74:	d0 e0       	ldi	r29, 0x00	; 0
    4f76:	2d c0       	rjmp	.+90     	; 0x4fd2 <RX_CopyLatestReceiverValues+0x70>
    4f78:	03 30       	cpi	r16, 0x03	; 3
    4f7a:	11 05       	cpc	r17, r1
    4f7c:	39 f4       	brne	.+14     	; 0x4f8c <RX_CopyLatestReceiverValues+0x2a>
    4f7e:	8c 2f       	mov	r24, r28
    4f80:	0e 94 20 27 	call	0x4e40	; 0x4e40 <RX_GetReceiverThrottleValue>
    4f84:	f7 01       	movw	r30, r14
    4f86:	91 83       	std	Z+1, r25	; 0x01
    4f88:	80 83       	st	Z, r24
    4f8a:	1a c0       	rjmp	.+52     	; 0x4fc0 <RX_CopyLatestReceiverValues+0x5e>
    4f8c:	8c 2f       	mov	r24, r28
    4f8e:	60 2f       	mov	r22, r16
    4f90:	0e 94 f7 26 	call	0x4dee	; 0x4dee <RX_GetReceiverValues>
    4f94:	f6 01       	movw	r30, r12
    4f96:	e0 0f       	add	r30, r16
    4f98:	f1 1f       	adc	r31, r17
    4f9a:	ee 0f       	add	r30, r30
    4f9c:	ff 1f       	adc	r31, r31
    4f9e:	ec 5f       	subi	r30, 0xFC	; 252
    4fa0:	f9 4f       	sbci	r31, 0xF9	; 249
    4fa2:	91 83       	std	Z+1, r25	; 0x01
    4fa4:	80 83       	st	Z, r24
    4fa6:	80 81       	ld	r24, Z
    4fa8:	91 81       	ldd	r25, Z+1	; 0x01
    4faa:	8f 30       	cpi	r24, 0x0F	; 15
    4fac:	91 05       	cpc	r25, r1
    4fae:	44 f4       	brge	.+16     	; 0x4fc0 <RX_CopyLatestReceiverValues+0x5e>
    4fb0:	80 81       	ld	r24, Z
    4fb2:	91 81       	ldd	r25, Z+1	; 0x01
    4fb4:	3f ef       	ldi	r19, 0xFF	; 255
    4fb6:	82 3f       	cpi	r24, 0xF2	; 242
    4fb8:	93 07       	cpc	r25, r19
    4fba:	14 f0       	brlt	.+4      	; 0x4fc0 <RX_CopyLatestReceiverValues+0x5e>
    4fbc:	11 82       	std	Z+1, r1	; 0x01
    4fbe:	10 82       	st	Z, r1
    4fc0:	0f 5f       	subi	r16, 0xFF	; 255
    4fc2:	1f 4f       	sbci	r17, 0xFF	; 255
    4fc4:	05 30       	cpi	r16, 0x05	; 5
    4fc6:	11 05       	cpc	r17, r1
    4fc8:	b9 f6       	brne	.-82     	; 0x4f78 <RX_CopyLatestReceiverValues+0x16>
    4fca:	21 96       	adiw	r28, 0x01	; 1
    4fcc:	c2 30       	cpi	r28, 0x02	; 2
    4fce:	d1 05       	cpc	r29, r1
    4fd0:	c9 f0       	breq	.+50     	; 0x5004 <RX_CopyLatestReceiverValues+0xa2>
    4fd2:	00 e0       	ldi	r16, 0x00	; 0
    4fd4:	10 e0       	ldi	r17, 0x00	; 0
    4fd6:	6e 01       	movw	r12, r28
    4fd8:	cc 0c       	add	r12, r12
    4fda:	dd 1c       	adc	r13, r13
    4fdc:	cc 0c       	add	r12, r12
    4fde:	dd 1c       	adc	r13, r13
    4fe0:	cc 0e       	add	r12, r28
    4fe2:	dd 1e       	adc	r13, r29
    4fe4:	7e 01       	movw	r14, r28
    4fe6:	ee 0c       	add	r14, r14
    4fe8:	ff 1c       	adc	r15, r15
    4fea:	ce 01       	movw	r24, r28
    4fec:	53 e0       	ldi	r21, 0x03	; 3
    4fee:	88 0f       	add	r24, r24
    4ff0:	99 1f       	adc	r25, r25
    4ff2:	5a 95       	dec	r21
    4ff4:	e1 f7       	brne	.-8      	; 0x4fee <RX_CopyLatestReceiverValues+0x8c>
    4ff6:	e8 0e       	add	r14, r24
    4ff8:	f9 1e       	adc	r15, r25
    4ffa:	8a e0       	ldi	r24, 0x0A	; 10
    4ffc:	96 e0       	ldi	r25, 0x06	; 6
    4ffe:	e8 0e       	add	r14, r24
    5000:	f9 1e       	adc	r15, r25
    5002:	ba cf       	rjmp	.-140    	; 0x4f78 <RX_CopyLatestReceiverValues+0x16>
    5004:	df 91       	pop	r29
    5006:	cf 91       	pop	r28
    5008:	1f 91       	pop	r17
    500a:	0f 91       	pop	r16
    500c:	ff 90       	pop	r15
    500e:	ef 90       	pop	r14
    5010:	df 90       	pop	r13
    5012:	cf 90       	pop	r12
    5014:	08 95       	ret

00005016 <RX_StickCenterCalibrationInit>:
    5016:	63 e2       	ldi	r22, 0x23	; 35
    5018:	76 e0       	ldi	r23, 0x06	; 6
    501a:	28 2f       	mov	r18, r24
    501c:	30 e0       	ldi	r19, 0x00	; 0
    501e:	f9 01       	movw	r30, r18
    5020:	ee 0f       	add	r30, r30
    5022:	ff 1f       	adc	r31, r31
    5024:	93 e0       	ldi	r25, 0x03	; 3
    5026:	22 0f       	add	r18, r18
    5028:	33 1f       	adc	r19, r19
    502a:	9a 95       	dec	r25
    502c:	e1 f7       	brne	.-8      	; 0x5026 <RX_StickCenterCalibrationInit+0x10>
    502e:	e2 0f       	add	r30, r18
    5030:	f3 1f       	adc	r31, r19
    5032:	e6 0f       	add	r30, r22
    5034:	f7 1f       	adc	r31, r23
    5036:	11 82       	std	Z+1, r1	; 0x01
    5038:	10 82       	st	Z, r1
    503a:	40 eb       	ldi	r20, 0xB0	; 176
    503c:	56 e0       	ldi	r21, 0x06	; 6
    503e:	28 2f       	mov	r18, r24
    5040:	30 e0       	ldi	r19, 0x00	; 0
    5042:	f9 01       	movw	r30, r18
    5044:	ee 0f       	add	r30, r30
    5046:	ff 1f       	adc	r31, r31
    5048:	a3 e0       	ldi	r26, 0x03	; 3
    504a:	22 0f       	add	r18, r18
    504c:	33 1f       	adc	r19, r19
    504e:	aa 95       	dec	r26
    5050:	e1 f7       	brne	.-8      	; 0x504a <RX_StickCenterCalibrationInit+0x34>
    5052:	e2 0f       	add	r30, r18
    5054:	f3 1f       	adc	r31, r19
    5056:	e4 0f       	add	r30, r20
    5058:	f5 1f       	adc	r31, r21
    505a:	2e ef       	ldi	r18, 0xFE	; 254
    505c:	3f ef       	ldi	r19, 0xFF	; 255
    505e:	31 83       	std	Z+1, r19	; 0x01
    5060:	20 83       	st	Z, r18
    5062:	a8 2f       	mov	r26, r24
    5064:	b0 e0       	ldi	r27, 0x00	; 0
    5066:	fd 01       	movw	r30, r26
    5068:	ee 0f       	add	r30, r30
    506a:	ff 1f       	adc	r31, r31
    506c:	93 e0       	ldi	r25, 0x03	; 3
    506e:	aa 0f       	add	r26, r26
    5070:	bb 1f       	adc	r27, r27
    5072:	9a 95       	dec	r25
    5074:	e1 f7       	brne	.-8      	; 0x506e <RX_StickCenterCalibrationInit+0x58>
    5076:	ea 0f       	add	r30, r26
    5078:	fb 1f       	adc	r31, r27
    507a:	e6 0f       	add	r30, r22
    507c:	f7 1f       	adc	r31, r23
    507e:	13 82       	std	Z+3, r1	; 0x03
    5080:	12 82       	std	Z+2, r1	; 0x02
    5082:	a8 2f       	mov	r26, r24
    5084:	b0 e0       	ldi	r27, 0x00	; 0
    5086:	fd 01       	movw	r30, r26
    5088:	ee 0f       	add	r30, r30
    508a:	ff 1f       	adc	r31, r31
    508c:	93 e0       	ldi	r25, 0x03	; 3
    508e:	aa 0f       	add	r26, r26
    5090:	bb 1f       	adc	r27, r27
    5092:	9a 95       	dec	r25
    5094:	e1 f7       	brne	.-8      	; 0x508e <RX_StickCenterCalibrationInit+0x78>
    5096:	ea 0f       	add	r30, r26
    5098:	fb 1f       	adc	r31, r27
    509a:	e4 0f       	add	r30, r20
    509c:	f5 1f       	adc	r31, r21
    509e:	33 83       	std	Z+3, r19	; 0x03
    50a0:	22 83       	std	Z+2, r18	; 0x02
    50a2:	a8 2f       	mov	r26, r24
    50a4:	b0 e0       	ldi	r27, 0x00	; 0
    50a6:	fd 01       	movw	r30, r26
    50a8:	ee 0f       	add	r30, r30
    50aa:	ff 1f       	adc	r31, r31
    50ac:	93 e0       	ldi	r25, 0x03	; 3
    50ae:	aa 0f       	add	r26, r26
    50b0:	bb 1f       	adc	r27, r27
    50b2:	9a 95       	dec	r25
    50b4:	e1 f7       	brne	.-8      	; 0x50ae <RX_StickCenterCalibrationInit+0x98>
    50b6:	ea 0f       	add	r30, r26
    50b8:	fb 1f       	adc	r31, r27
    50ba:	e6 0f       	add	r30, r22
    50bc:	f7 1f       	adc	r31, r23
    50be:	15 82       	std	Z+5, r1	; 0x05
    50c0:	14 82       	std	Z+4, r1	; 0x04
    50c2:	a8 2f       	mov	r26, r24
    50c4:	b0 e0       	ldi	r27, 0x00	; 0
    50c6:	fd 01       	movw	r30, r26
    50c8:	ee 0f       	add	r30, r30
    50ca:	ff 1f       	adc	r31, r31
    50cc:	93 e0       	ldi	r25, 0x03	; 3
    50ce:	aa 0f       	add	r26, r26
    50d0:	bb 1f       	adc	r27, r27
    50d2:	9a 95       	dec	r25
    50d4:	e1 f7       	brne	.-8      	; 0x50ce <RX_StickCenterCalibrationInit+0xb8>
    50d6:	ea 0f       	add	r30, r26
    50d8:	fb 1f       	adc	r31, r27
    50da:	e4 0f       	add	r30, r20
    50dc:	f5 1f       	adc	r31, r21
    50de:	35 83       	std	Z+5, r19	; 0x05
    50e0:	24 83       	std	Z+4, r18	; 0x04
    50e2:	a8 2f       	mov	r26, r24
    50e4:	b0 e0       	ldi	r27, 0x00	; 0
    50e6:	fd 01       	movw	r30, r26
    50e8:	ee 0f       	add	r30, r30
    50ea:	ff 1f       	adc	r31, r31
    50ec:	93 e0       	ldi	r25, 0x03	; 3
    50ee:	aa 0f       	add	r26, r26
    50f0:	bb 1f       	adc	r27, r27
    50f2:	9a 95       	dec	r25
    50f4:	e1 f7       	brne	.-8      	; 0x50ee <RX_StickCenterCalibrationInit+0xd8>
    50f6:	ea 0f       	add	r30, r26
    50f8:	fb 1f       	adc	r31, r27
    50fa:	e6 0f       	add	r30, r22
    50fc:	f7 1f       	adc	r31, r23
    50fe:	17 82       	std	Z+7, r1	; 0x07
    5100:	16 82       	std	Z+6, r1	; 0x06
    5102:	a8 2f       	mov	r26, r24
    5104:	b0 e0       	ldi	r27, 0x00	; 0
    5106:	fd 01       	movw	r30, r26
    5108:	ee 0f       	add	r30, r30
    510a:	ff 1f       	adc	r31, r31
    510c:	93 e0       	ldi	r25, 0x03	; 3
    510e:	aa 0f       	add	r26, r26
    5110:	bb 1f       	adc	r27, r27
    5112:	9a 95       	dec	r25
    5114:	e1 f7       	brne	.-8      	; 0x510e <RX_StickCenterCalibrationInit+0xf8>
    5116:	ea 0f       	add	r30, r26
    5118:	fb 1f       	adc	r31, r27
    511a:	e4 0f       	add	r30, r20
    511c:	f5 1f       	adc	r31, r21
    511e:	37 83       	std	Z+7, r19	; 0x07
    5120:	26 83       	std	Z+6, r18	; 0x06
    5122:	a8 2f       	mov	r26, r24
    5124:	b0 e0       	ldi	r27, 0x00	; 0
    5126:	fd 01       	movw	r30, r26
    5128:	ee 0f       	add	r30, r30
    512a:	ff 1f       	adc	r31, r31
    512c:	93 e0       	ldi	r25, 0x03	; 3
    512e:	aa 0f       	add	r26, r26
    5130:	bb 1f       	adc	r27, r27
    5132:	9a 95       	dec	r25
    5134:	e1 f7       	brne	.-8      	; 0x512e <RX_StickCenterCalibrationInit+0x118>
    5136:	ea 0f       	add	r30, r26
    5138:	fb 1f       	adc	r31, r27
    513a:	e6 0f       	add	r30, r22
    513c:	f7 1f       	adc	r31, r23
    513e:	11 86       	std	Z+9, r1	; 0x09
    5140:	10 86       	std	Z+8, r1	; 0x08
    5142:	68 2f       	mov	r22, r24
    5144:	70 e0       	ldi	r23, 0x00	; 0
    5146:	fb 01       	movw	r30, r22
    5148:	ee 0f       	add	r30, r30
    514a:	ff 1f       	adc	r31, r31
    514c:	b3 e0       	ldi	r27, 0x03	; 3
    514e:	66 0f       	add	r22, r22
    5150:	77 1f       	adc	r23, r23
    5152:	ba 95       	dec	r27
    5154:	e1 f7       	brne	.-8      	; 0x514e <RX_StickCenterCalibrationInit+0x138>
    5156:	e6 0f       	add	r30, r22
    5158:	f7 1f       	adc	r31, r23
    515a:	e4 0f       	add	r30, r20
    515c:	f5 1f       	adc	r31, r21
    515e:	31 87       	std	Z+9, r19	; 0x09
    5160:	20 87       	std	Z+8, r18	; 0x08
    5162:	08 95       	ret

00005164 <RX_StickCenterCalibration>:
    5164:	df 92       	push	r13
    5166:	ef 92       	push	r14
    5168:	ff 92       	push	r15
    516a:	0f 93       	push	r16
    516c:	1f 93       	push	r17
    516e:	cf 93       	push	r28
    5170:	df 93       	push	r29
    5172:	d8 2e       	mov	r13, r24
    5174:	28 2f       	mov	r18, r24
    5176:	30 e0       	ldi	r19, 0x00	; 0
    5178:	89 01       	movw	r16, r18
    517a:	00 0f       	add	r16, r16
    517c:	11 1f       	adc	r17, r17
    517e:	73 e0       	ldi	r23, 0x03	; 3
    5180:	22 0f       	add	r18, r18
    5182:	33 1f       	adc	r19, r19
    5184:	7a 95       	dec	r23
    5186:	e1 f7       	brne	.-8      	; 0x5180 <RX_StickCenterCalibration+0x1c>
    5188:	02 0f       	add	r16, r18
    518a:	13 1f       	adc	r17, r19
    518c:	0d 5d       	subi	r16, 0xDD	; 221
    518e:	19 4f       	sbci	r17, 0xF9	; 249
    5190:	28 2f       	mov	r18, r24
    5192:	30 e0       	ldi	r19, 0x00	; 0
    5194:	e9 01       	movw	r28, r18
    5196:	cc 0f       	add	r28, r28
    5198:	dd 1f       	adc	r29, r29
    519a:	53 e0       	ldi	r21, 0x03	; 3
    519c:	22 0f       	add	r18, r18
    519e:	33 1f       	adc	r19, r19
    51a0:	5a 95       	dec	r21
    51a2:	e1 f7       	brne	.-8      	; 0x519c <RX_StickCenterCalibration+0x38>
    51a4:	c2 0f       	add	r28, r18
    51a6:	d3 1f       	adc	r29, r19
    51a8:	c0 55       	subi	r28, 0x50	; 80
    51aa:	d9 4f       	sbci	r29, 0xF9	; 249
    51ac:	ee 24       	eor	r14, r14
    51ae:	ff 24       	eor	r15, r15
    51b0:	8d 2d       	mov	r24, r13
    51b2:	6e 2d       	mov	r22, r14
    51b4:	0e 94 e3 26 	call	0x4dc6	; 0x4dc6 <RX_raw_GetReceiverValues>
    51b8:	9c 01       	movw	r18, r24
    51ba:	00 97       	sbiw	r24, 0x00	; 0
    51bc:	81 f0       	breq	.+32     	; 0x51de <RX_StickCenterCalibration+0x7a>
    51be:	f8 01       	movw	r30, r16
    51c0:	80 81       	ld	r24, Z
    51c2:	91 81       	ldd	r25, Z+1	; 0x01
    51c4:	82 17       	cp	r24, r18
    51c6:	93 07       	cpc	r25, r19
    51c8:	18 f4       	brcc	.+6      	; 0x51d0 <RX_StickCenterCalibration+0x6c>
    51ca:	31 83       	std	Z+1, r19	; 0x01
    51cc:	20 83       	st	Z, r18
    51ce:	07 c0       	rjmp	.+14     	; 0x51de <RX_StickCenterCalibration+0x7a>
    51d0:	88 81       	ld	r24, Y
    51d2:	99 81       	ldd	r25, Y+1	; 0x01
    51d4:	28 17       	cp	r18, r24
    51d6:	39 07       	cpc	r19, r25
    51d8:	10 f4       	brcc	.+4      	; 0x51de <RX_StickCenterCalibration+0x7a>
    51da:	39 83       	std	Y+1, r19	; 0x01
    51dc:	28 83       	st	Y, r18
    51de:	08 94       	sec
    51e0:	e1 1c       	adc	r14, r1
    51e2:	f1 1c       	adc	r15, r1
    51e4:	0e 5f       	subi	r16, 0xFE	; 254
    51e6:	1f 4f       	sbci	r17, 0xFF	; 255
    51e8:	22 96       	adiw	r28, 0x02	; 2
    51ea:	f5 e0       	ldi	r31, 0x05	; 5
    51ec:	ef 16       	cp	r14, r31
    51ee:	f1 04       	cpc	r15, r1
    51f0:	f9 f6       	brne	.-66     	; 0x51b0 <RX_StickCenterCalibration+0x4c>
    51f2:	df 91       	pop	r29
    51f4:	cf 91       	pop	r28
    51f6:	1f 91       	pop	r17
    51f8:	0f 91       	pop	r16
    51fa:	ff 90       	pop	r15
    51fc:	ef 90       	pop	r14
    51fe:	df 90       	pop	r13
    5200:	08 95       	ret

00005202 <Sensors_Init>:
    5202:	15 98       	cbi	0x02, 5	; 2
    5204:	16 98       	cbi	0x02, 6	; 2
    5206:	17 98       	cbi	0x02, 7	; 2
    5208:	11 98       	cbi	0x02, 1	; 2
    520a:	14 98       	cbi	0x02, 4	; 2
    520c:	12 98       	cbi	0x02, 2	; 2
    520e:	08 95       	ret

00005210 <Sensors_Test>:
    5210:	ef 92       	push	r14
    5212:	ff 92       	push	r15
    5214:	0f 93       	push	r16
    5216:	1f 93       	push	r17
    5218:	cf 93       	push	r28
    521a:	df 93       	push	r29
    521c:	8b 01       	movw	r16, r22
    521e:	7a 01       	movw	r14, r20
    5220:	c8 2f       	mov	r28, r24
    5222:	d0 e0       	ldi	r29, 0x00	; 0
    5224:	0e 94 de 2a 	call	0x55bc	; 0x55bc <ADCPort_Get>
    5228:	cc 0f       	add	r28, r28
    522a:	dd 1f       	adc	r29, r29
    522c:	c0 56       	subi	r28, 0x60	; 96
    522e:	da 4f       	sbci	r29, 0xFA	; 250
    5230:	99 83       	std	Y+1, r25	; 0x01
    5232:	88 83       	st	Y, r24
    5234:	88 81       	ld	r24, Y
    5236:	99 81       	ldd	r25, Y+1	; 0x01
    5238:	60 eb       	ldi	r22, 0xB0	; 176
    523a:	75 e0       	ldi	r23, 0x05	; 5
    523c:	4a e0       	ldi	r20, 0x0A	; 10
    523e:	50 e0       	ldi	r21, 0x00	; 0
    5240:	0e 94 de 3b 	call	0x77bc	; 0x77bc <utoa>
    5244:	88 81       	ld	r24, Y
    5246:	99 81       	ldd	r25, Y+1	; 0x01
    5248:	80 17       	cp	r24, r16
    524a:	91 07       	cpc	r25, r17
    524c:	50 f0       	brcs	.+20     	; 0x5262 <Sensors_Test+0x52>
    524e:	88 81       	ld	r24, Y
    5250:	99 81       	ldd	r25, Y+1	; 0x01
    5252:	e8 16       	cp	r14, r24
    5254:	f9 06       	cpc	r15, r25
    5256:	28 f0       	brcs	.+10     	; 0x5262 <Sensors_Test+0x52>
    5258:	80 eb       	ldi	r24, 0xB0	; 176
    525a:	95 e0       	ldi	r25, 0x05	; 5
    525c:	68 e0       	ldi	r22, 0x08	; 8
    525e:	71 e0       	ldi	r23, 0x01	; 1
    5260:	04 c0       	rjmp	.+8      	; 0x526a <Sensors_Test+0x5a>
    5262:	80 eb       	ldi	r24, 0xB0	; 176
    5264:	95 e0       	ldi	r25, 0x05	; 5
    5266:	6b e0       	ldi	r22, 0x0B	; 11
    5268:	71 e0       	ldi	r23, 0x01	; 1
    526a:	0e 94 b2 3b 	call	0x7764	; 0x7764 <strcat>
    526e:	80 eb       	ldi	r24, 0xB0	; 176
    5270:	95 e0       	ldi	r25, 0x05	; 5
    5272:	df 91       	pop	r29
    5274:	cf 91       	pop	r28
    5276:	1f 91       	pop	r17
    5278:	0f 91       	pop	r16
    527a:	ff 90       	pop	r15
    527c:	ef 90       	pop	r14
    527e:	08 95       	ret

00005280 <Sensors_Calibrate>:
    5280:	ef 92       	push	r14
    5282:	ff 92       	push	r15
    5284:	0f 93       	push	r16
    5286:	1f 93       	push	r17
    5288:	df 93       	push	r29
    528a:	cf 93       	push	r28
    528c:	0f 92       	push	r0
    528e:	cd b7       	in	r28, 0x3d	; 61
    5290:	de b7       	in	r29, 0x3e	; 62
    5292:	25 b1       	in	r18, 0x05	; 5
    5294:	26 95       	lsr	r18
    5296:	26 95       	lsr	r18
    5298:	26 95       	lsr	r18
    529a:	21 70       	andi	r18, 0x01	; 1
    529c:	10 92 a1 05 	sts	0x05A1, r1
    52a0:	10 92 a0 05 	sts	0x05A0, r1
    52a4:	10 92 a3 05 	sts	0x05A3, r1
    52a8:	10 92 a2 05 	sts	0x05A2, r1
    52ac:	10 92 a5 05 	sts	0x05A5, r1
    52b0:	10 92 a4 05 	sts	0x05A4, r1
    52b4:	10 92 a7 05 	sts	0x05A7, r1
    52b8:	10 92 a6 05 	sts	0x05A6, r1
    52bc:	10 92 a9 05 	sts	0x05A9, r1
    52c0:	10 92 a8 05 	sts	0x05A8, r1
    52c4:	10 92 ab 05 	sts	0x05AB, r1
    52c8:	10 92 aa 05 	sts	0x05AA, r1
    52cc:	59 e1       	ldi	r21, 0x19	; 25
    52ce:	e5 2e       	mov	r14, r21
    52d0:	f1 2c       	mov	r15, r1
    52d2:	00 91 a6 05 	lds	r16, 0x05A6
    52d6:	10 91 a7 05 	lds	r17, 0x05A7
    52da:	85 e0       	ldi	r24, 0x05	; 5
    52dc:	29 83       	std	Y+1, r18	; 0x01
    52de:	0e 94 de 2a 	call	0x55bc	; 0x55bc <ADCPort_Get>
    52e2:	08 0f       	add	r16, r24
    52e4:	19 1f       	adc	r17, r25
    52e6:	10 93 a7 05 	sts	0x05A7, r17
    52ea:	00 93 a6 05 	sts	0x05A6, r16
    52ee:	00 91 a8 05 	lds	r16, 0x05A8
    52f2:	10 91 a9 05 	lds	r17, 0x05A9
    52f6:	86 e0       	ldi	r24, 0x06	; 6
    52f8:	0e 94 de 2a 	call	0x55bc	; 0x55bc <ADCPort_Get>
    52fc:	08 0f       	add	r16, r24
    52fe:	19 1f       	adc	r17, r25
    5300:	10 93 a9 05 	sts	0x05A9, r17
    5304:	00 93 a8 05 	sts	0x05A8, r16
    5308:	00 91 aa 05 	lds	r16, 0x05AA
    530c:	10 91 ab 05 	lds	r17, 0x05AB
    5310:	87 e0       	ldi	r24, 0x07	; 7
    5312:	0e 94 de 2a 	call	0x55bc	; 0x55bc <ADCPort_Get>
    5316:	08 0f       	add	r16, r24
    5318:	19 1f       	adc	r17, r25
    531a:	10 93 ab 05 	sts	0x05AB, r17
    531e:	00 93 aa 05 	sts	0x05AA, r16
    5322:	00 91 a0 05 	lds	r16, 0x05A0
    5326:	10 91 a1 05 	lds	r17, 0x05A1
    532a:	81 e0       	ldi	r24, 0x01	; 1
    532c:	0e 94 de 2a 	call	0x55bc	; 0x55bc <ADCPort_Get>
    5330:	08 0f       	add	r16, r24
    5332:	19 1f       	adc	r17, r25
    5334:	10 93 a1 05 	sts	0x05A1, r17
    5338:	00 93 a0 05 	sts	0x05A0, r16
    533c:	00 91 a2 05 	lds	r16, 0x05A2
    5340:	10 91 a3 05 	lds	r17, 0x05A3
    5344:	84 e0       	ldi	r24, 0x04	; 4
    5346:	0e 94 de 2a 	call	0x55bc	; 0x55bc <ADCPort_Get>
    534a:	08 0f       	add	r16, r24
    534c:	19 1f       	adc	r17, r25
    534e:	10 93 a3 05 	sts	0x05A3, r17
    5352:	00 93 a2 05 	sts	0x05A2, r16
    5356:	00 91 a4 05 	lds	r16, 0x05A4
    535a:	10 91 a5 05 	lds	r17, 0x05A5
    535e:	82 e0       	ldi	r24, 0x02	; 2
    5360:	0e 94 de 2a 	call	0x55bc	; 0x55bc <ADCPort_Get>
    5364:	08 0f       	add	r16, r24
    5366:	19 1f       	adc	r17, r25
    5368:	10 93 a5 05 	sts	0x05A5, r17
    536c:	00 93 a4 05 	sts	0x05A4, r16
    5370:	8f e0       	ldi	r24, 0x0F	; 15
    5372:	97 e2       	ldi	r25, 0x27	; 39
    5374:	01 97       	sbiw	r24, 0x01	; 1
    5376:	f1 f7       	brne	.-4      	; 0x5374 <Sensors_Calibrate+0xf4>
    5378:	00 c0       	rjmp	.+0      	; 0x537a <Sensors_Calibrate+0xfa>
    537a:	00 00       	nop
    537c:	85 b1       	in	r24, 0x05	; 5
    537e:	86 95       	lsr	r24
    5380:	86 95       	lsr	r24
    5382:	86 95       	lsr	r24
    5384:	80 95       	com	r24
    5386:	81 70       	andi	r24, 0x01	; 1
    5388:	88 0f       	add	r24, r24
    538a:	88 0f       	add	r24, r24
    538c:	88 0f       	add	r24, r24
    538e:	95 b1       	in	r25, 0x05	; 5
    5390:	97 7f       	andi	r25, 0xF7	; 247
    5392:	98 2b       	or	r25, r24
    5394:	95 b9       	out	0x05, r25	; 5
    5396:	08 94       	sec
    5398:	e1 08       	sbc	r14, r1
    539a:	f1 08       	sbc	r15, r1
    539c:	29 81       	ldd	r18, Y+1	; 0x01
    539e:	e1 14       	cp	r14, r1
    53a0:	f1 04       	cpc	r15, r1
    53a2:	09 f0       	breq	.+2      	; 0x53a6 <Sensors_Calibrate+0x126>
    53a4:	96 cf       	rjmp	.-212    	; 0x52d2 <Sensors_Calibrate+0x52>
    53a6:	21 70       	andi	r18, 0x01	; 1
    53a8:	22 0f       	add	r18, r18
    53aa:	22 0f       	add	r18, r18
    53ac:	22 0f       	add	r18, r18
    53ae:	85 b1       	in	r24, 0x05	; 5
    53b0:	87 7f       	andi	r24, 0xF7	; 247
    53b2:	82 2b       	or	r24, r18
    53b4:	85 b9       	out	0x05, r24	; 5
    53b6:	20 e0       	ldi	r18, 0x00	; 0
    53b8:	30 e0       	ldi	r19, 0x00	; 0
    53ba:	09 e1       	ldi	r16, 0x19	; 25
    53bc:	10 e0       	ldi	r17, 0x00	; 0
    53be:	f9 01       	movw	r30, r18
    53c0:	ee 0f       	add	r30, r30
    53c2:	ff 1f       	adc	r31, r31
    53c4:	e0 56       	subi	r30, 0x60	; 96
    53c6:	fa 4f       	sbci	r31, 0xFA	; 250
    53c8:	80 81       	ld	r24, Z
    53ca:	91 81       	ldd	r25, Z+1	; 0x01
    53cc:	b8 01       	movw	r22, r16
    53ce:	0e 94 30 3b 	call	0x7660	; 0x7660 <__udivmodhi4>
    53d2:	71 83       	std	Z+1, r23	; 0x01
    53d4:	60 83       	st	Z, r22
    53d6:	2f 5f       	subi	r18, 0xFF	; 255
    53d8:	3f 4f       	sbci	r19, 0xFF	; 255
    53da:	26 30       	cpi	r18, 0x06	; 6
    53dc:	31 05       	cpc	r19, r1
    53de:	79 f7       	brne	.-34     	; 0x53be <Sensors_Calibrate+0x13e>
    53e0:	80 91 d2 06 	lds	r24, 0x06D2
    53e4:	84 60       	ori	r24, 0x04	; 4
    53e6:	80 93 d2 06 	sts	0x06D2, r24
    53ea:	a0 e7       	ldi	r26, 0x70	; 112
    53ec:	b7 e0       	ldi	r27, 0x07	; 7
    53ee:	80 e0       	ldi	r24, 0x00	; 0
    53f0:	90 e0       	ldi	r25, 0x00	; 0
    53f2:	fc 01       	movw	r30, r24
    53f4:	ee 0f       	add	r30, r30
    53f6:	ff 1f       	adc	r31, r31
    53f8:	e0 56       	subi	r30, 0x60	; 96
    53fa:	fa 4f       	sbci	r31, 0xFA	; 250
    53fc:	20 81       	ld	r18, Z
    53fe:	31 81       	ldd	r19, Z+1	; 0x01
    5400:	2d 93       	st	X+, r18
    5402:	3d 93       	st	X+, r19
    5404:	01 96       	adiw	r24, 0x01	; 1
    5406:	86 30       	cpi	r24, 0x06	; 6
    5408:	91 05       	cpc	r25, r1
    540a:	99 f7       	brne	.-26     	; 0x53f2 <Sensors_Calibrate+0x172>
    540c:	0f 90       	pop	r0
    540e:	cf 91       	pop	r28
    5410:	df 91       	pop	r29
    5412:	1f 91       	pop	r17
    5414:	0f 91       	pop	r16
    5416:	ff 90       	pop	r15
    5418:	ef 90       	pop	r14
    541a:	08 95       	ret

0000541c <Sensor_GetBattery>:
    541c:	83 e0       	ldi	r24, 0x03	; 3
    541e:	0e 94 de 2a 	call	0x55bc	; 0x55bc <ADCPort_Get>
    5422:	24 e6       	ldi	r18, 0x64	; 100
    5424:	30 e0       	ldi	r19, 0x00	; 0
    5426:	ac 01       	movw	r20, r24
    5428:	42 9f       	mul	r20, r18
    542a:	c0 01       	movw	r24, r0
    542c:	43 9f       	mul	r20, r19
    542e:	90 0d       	add	r25, r0
    5430:	52 9f       	mul	r21, r18
    5432:	90 0d       	add	r25, r0
    5434:	11 24       	eor	r1, r1
    5436:	64 e7       	ldi	r22, 0x74	; 116
    5438:	71 e0       	ldi	r23, 0x01	; 1
    543a:	0e 94 30 3b 	call	0x7660	; 0x7660 <__udivmodhi4>
    543e:	cb 01       	movw	r24, r22
    5440:	08 95       	ret

00005442 <Sensors_ReadAll>:
    5442:	85 e0       	ldi	r24, 0x05	; 5
    5444:	0e 94 de 2a 	call	0x55bc	; 0x55bc <ADCPort_Get>
    5448:	20 91 76 07 	lds	r18, 0x0776
    544c:	30 91 77 07 	lds	r19, 0x0777
    5450:	82 1b       	sub	r24, r18
    5452:	93 0b       	sbc	r25, r19
    5454:	90 93 44 06 	sts	0x0644, r25
    5458:	80 93 43 06 	sts	0x0643, r24
    545c:	86 e0       	ldi	r24, 0x06	; 6
    545e:	0e 94 de 2a 	call	0x55bc	; 0x55bc <ADCPort_Get>
    5462:	20 91 78 07 	lds	r18, 0x0778
    5466:	30 91 79 07 	lds	r19, 0x0779
    546a:	82 1b       	sub	r24, r18
    546c:	93 0b       	sbc	r25, r19
    546e:	90 93 46 06 	sts	0x0646, r25
    5472:	80 93 45 06 	sts	0x0645, r24
    5476:	87 e0       	ldi	r24, 0x07	; 7
    5478:	0e 94 de 2a 	call	0x55bc	; 0x55bc <ADCPort_Get>
    547c:	20 91 7a 07 	lds	r18, 0x077A
    5480:	30 91 7b 07 	lds	r19, 0x077B
    5484:	82 1b       	sub	r24, r18
    5486:	93 0b       	sbc	r25, r19
    5488:	90 93 48 06 	sts	0x0648, r25
    548c:	80 93 47 06 	sts	0x0647, r24
    5490:	81 e0       	ldi	r24, 0x01	; 1
    5492:	0e 94 de 2a 	call	0x55bc	; 0x55bc <ADCPort_Get>
    5496:	20 91 70 07 	lds	r18, 0x0770
    549a:	30 91 71 07 	lds	r19, 0x0771
    549e:	82 1b       	sub	r24, r18
    54a0:	93 0b       	sbc	r25, r19
    54a2:	90 93 3e 06 	sts	0x063E, r25
    54a6:	80 93 3d 06 	sts	0x063D, r24
    54aa:	80 91 3d 06 	lds	r24, 0x063D
    54ae:	90 91 3e 06 	lds	r25, 0x063E
    54b2:	97 ff       	sbrs	r25, 7
    54b4:	03 c0       	rjmp	.+6      	; 0x54bc <Sensors_ReadAll+0x7a>
    54b6:	90 95       	com	r25
    54b8:	81 95       	neg	r24
    54ba:	9f 4f       	sbci	r25, 0xFF	; 255
    54bc:	82 30       	cpi	r24, 0x02	; 2
    54be:	91 05       	cpc	r25, r1
    54c0:	24 f4       	brge	.+8      	; 0x54ca <Sensors_ReadAll+0x88>
    54c2:	10 92 3e 06 	sts	0x063E, r1
    54c6:	10 92 3d 06 	sts	0x063D, r1
    54ca:	84 e0       	ldi	r24, 0x04	; 4
    54cc:	0e 94 de 2a 	call	0x55bc	; 0x55bc <ADCPort_Get>
    54d0:	20 91 72 07 	lds	r18, 0x0772
    54d4:	30 91 73 07 	lds	r19, 0x0773
    54d8:	82 1b       	sub	r24, r18
    54da:	93 0b       	sbc	r25, r19
    54dc:	90 93 40 06 	sts	0x0640, r25
    54e0:	80 93 3f 06 	sts	0x063F, r24
    54e4:	80 91 3f 06 	lds	r24, 0x063F
    54e8:	90 91 40 06 	lds	r25, 0x0640
    54ec:	97 ff       	sbrs	r25, 7
    54ee:	03 c0       	rjmp	.+6      	; 0x54f6 <Sensors_ReadAll+0xb4>
    54f0:	90 95       	com	r25
    54f2:	81 95       	neg	r24
    54f4:	9f 4f       	sbci	r25, 0xFF	; 255
    54f6:	82 30       	cpi	r24, 0x02	; 2
    54f8:	91 05       	cpc	r25, r1
    54fa:	24 f4       	brge	.+8      	; 0x5504 <Sensors_ReadAll+0xc2>
    54fc:	10 92 40 06 	sts	0x0640, r1
    5500:	10 92 3f 06 	sts	0x063F, r1
    5504:	82 e0       	ldi	r24, 0x02	; 2
    5506:	0e 94 de 2a 	call	0x55bc	; 0x55bc <ADCPort_Get>
    550a:	20 91 74 07 	lds	r18, 0x0774
    550e:	30 91 75 07 	lds	r19, 0x0775
    5512:	82 1b       	sub	r24, r18
    5514:	93 0b       	sbc	r25, r19
    5516:	90 93 42 06 	sts	0x0642, r25
    551a:	80 93 41 06 	sts	0x0641, r24
    551e:	80 91 41 06 	lds	r24, 0x0641
    5522:	90 91 42 06 	lds	r25, 0x0642
    5526:	97 ff       	sbrs	r25, 7
    5528:	03 c0       	rjmp	.+6      	; 0x5530 <Sensors_ReadAll+0xee>
    552a:	90 95       	com	r25
    552c:	81 95       	neg	r24
    552e:	9f 4f       	sbci	r25, 0xFF	; 255
    5530:	82 30       	cpi	r24, 0x02	; 2
    5532:	91 05       	cpc	r25, r1
    5534:	24 f4       	brge	.+8      	; 0x553e <Sensors_ReadAll+0xfc>
    5536:	10 92 42 06 	sts	0x0642, r1
    553a:	10 92 41 06 	sts	0x0641, r1
    553e:	0e 94 0e 2a 	call	0x541c	; 0x541c <Sensor_GetBattery>
    5542:	90 93 4a 06 	sts	0x064A, r25
    5546:	80 93 49 06 	sts	0x0649, r24
    554a:	08 95       	ret

0000554c <__vector_24>:
    554c:	78 94       	sei
    554e:	1f 92       	push	r1
    5550:	0f 92       	push	r0
    5552:	0f b6       	in	r0, 0x3f	; 63
    5554:	0f 92       	push	r0
    5556:	11 24       	eor	r1, r1
    5558:	2f 93       	push	r18
    555a:	8f 93       	push	r24
    555c:	9f 93       	push	r25
    555e:	ef 93       	push	r30
    5560:	ff 93       	push	r31
    5562:	20 91 31 05 	lds	r18, 0x0531
    5566:	e2 2f       	mov	r30, r18
    5568:	f0 e0       	ldi	r31, 0x00	; 0
    556a:	80 91 78 00 	lds	r24, 0x0078
    556e:	90 91 79 00 	lds	r25, 0x0079
    5572:	ee 0f       	add	r30, r30
    5574:	ff 1f       	adc	r31, r31
    5576:	e0 5f       	subi	r30, 0xF0	; 240
    5578:	f7 4f       	sbci	r31, 0xF7	; 247
    557a:	91 83       	std	Z+1, r25	; 0x01
    557c:	80 83       	st	Z, r24
    557e:	82 2f       	mov	r24, r18
    5580:	8f 5f       	subi	r24, 0xFF	; 255
    5582:	87 70       	andi	r24, 0x07	; 7
    5584:	80 93 31 05 	sts	0x0531, r24
    5588:	80 93 7c 00 	sts	0x007C, r24
    558c:	ea e7       	ldi	r30, 0x7A	; 122
    558e:	f0 e0       	ldi	r31, 0x00	; 0
    5590:	80 81       	ld	r24, Z
    5592:	80 64       	ori	r24, 0x40	; 64
    5594:	80 83       	st	Z, r24
    5596:	ff 91       	pop	r31
    5598:	ef 91       	pop	r30
    559a:	9f 91       	pop	r25
    559c:	8f 91       	pop	r24
    559e:	2f 91       	pop	r18
    55a0:	0f 90       	pop	r0
    55a2:	0f be       	out	0x3f, r0	; 63
    55a4:	0f 90       	pop	r0
    55a6:	1f 90       	pop	r1
    55a8:	18 95       	reti

000055aa <ADCPort_Init>:
    55aa:	8f ef       	ldi	r24, 0xFF	; 255
    55ac:	80 93 7e 00 	sts	0x007E, r24
    55b0:	10 92 7c 00 	sts	0x007C, r1
    55b4:	8f ed       	ldi	r24, 0xDF	; 223
    55b6:	80 93 7a 00 	sts	0x007A, r24
    55ba:	08 95       	ret

000055bc <ADCPort_Get>:
    55bc:	f8 94       	cli
    55be:	e8 2f       	mov	r30, r24
    55c0:	f0 e0       	ldi	r31, 0x00	; 0
    55c2:	ee 0f       	add	r30, r30
    55c4:	ff 1f       	adc	r31, r31
    55c6:	e0 5f       	subi	r30, 0xF0	; 240
    55c8:	f7 4f       	sbci	r31, 0xF7	; 247
    55ca:	20 81       	ld	r18, Z
    55cc:	31 81       	ldd	r19, Z+1	; 0x01
    55ce:	78 94       	sei
    55d0:	c9 01       	movw	r24, r18
    55d2:	08 95       	ret

000055d4 <_hHomeRestart>:
    55d4:	80 91 bc 05 	lds	r24, 0x05BC
    55d8:	88 23       	and	r24, r24
    55da:	11 f0       	breq	.+4      	; 0x55e0 <_hHomeRestart+0xc>
    55dc:	84 fd       	sbrc	r24, 4
    55de:	ff cf       	rjmp	.-2      	; 0x55de <_hHomeRestart+0xa>
    55e0:	08 95       	ret

000055e2 <tsmMain>:
    55e2:	90 e0       	ldi	r25, 0x00	; 0
    55e4:	88 0f       	add	r24, r24
    55e6:	99 1f       	adc	r25, r25
    55e8:	8b 52       	subi	r24, 0x2B	; 43
    55ea:	94 4f       	sbci	r25, 0xF4	; 244
    55ec:	fc 01       	movw	r30, r24
    55ee:	25 91       	lpm	r18, Z+
    55f0:	34 91       	lpm	r19, Z+
    55f2:	c9 01       	movw	r24, r18
    55f4:	08 95       	ret

000055f6 <writeSoftkeys>:
    55f6:	cf 93       	push	r28
    55f8:	df 93       	push	r29
    55fa:	ec 01       	movw	r28, r24
    55fc:	00 97       	sbiw	r24, 0x00	; 0
    55fe:	31 f4       	brne	.+12     	; 0x560c <writeSoftkeys+0x16>
    5600:	c0 91 44 05 	lds	r28, 0x0544
    5604:	d0 91 45 05 	lds	r29, 0x0545
    5608:	20 97       	sbiw	r28, 0x00	; 0
    560a:	39 f0       	breq	.+14     	; 0x561a <writeSoftkeys+0x24>
    560c:	87 e0       	ldi	r24, 0x07	; 7
    560e:	60 e0       	ldi	r22, 0x00	; 0
    5610:	0e 94 07 0c 	call	0x180e	; 0x180e <LCD_SetPos>
    5614:	ce 01       	movw	r24, r28
    5616:	0e 94 04 0d 	call	0x1a08	; 0x1a08 <LCD_WriteString_P>
    561a:	df 91       	pop	r29
    561c:	cf 91       	pop	r28
    561e:	08 95       	ret

00005620 <_hDebug>:
    5620:	cf 92       	push	r12
    5622:	df 92       	push	r13
    5624:	ef 92       	push	r14
    5626:	ff 92       	push	r15
    5628:	0f 93       	push	r16
    562a:	1f 93       	push	r17
    562c:	cf 93       	push	r28
    562e:	df 93       	push	r29
    5630:	80 91 bc 05 	lds	r24, 0x05BC
    5634:	80 fd       	sbrc	r24, 0
    5636:	9b c0       	rjmp	.+310    	; 0x576e <_hDebug+0x14e>
    5638:	85 ff       	sbrs	r24, 5
    563a:	2b c0       	rjmp	.+86     	; 0x5692 <_hDebug+0x72>
    563c:	80 e0       	ldi	r24, 0x00	; 0
    563e:	90 e0       	ldi	r25, 0x00	; 0
    5640:	dc 01       	movw	r26, r24
    5642:	80 93 18 06 	sts	0x0618, r24
    5646:	90 93 19 06 	sts	0x0619, r25
    564a:	a0 93 1a 06 	sts	0x061A, r26
    564e:	b0 93 1b 06 	sts	0x061B, r27
    5652:	80 93 ca 06 	sts	0x06CA, r24
    5656:	90 93 cb 06 	sts	0x06CB, r25
    565a:	a0 93 cc 06 	sts	0x06CC, r26
    565e:	b0 93 cd 06 	sts	0x06CD, r27
    5662:	80 93 38 05 	sts	0x0538, r24
    5666:	90 93 39 05 	sts	0x0539, r25
    566a:	a0 93 3a 05 	sts	0x053A, r26
    566e:	b0 93 3b 05 	sts	0x053B, r27
    5672:	80 93 3c 05 	sts	0x053C, r24
    5676:	90 93 3d 05 	sts	0x053D, r25
    567a:	a0 93 3e 05 	sts	0x053E, r26
    567e:	b0 93 3f 05 	sts	0x053F, r27
    5682:	80 93 40 05 	sts	0x0540, r24
    5686:	90 93 41 05 	sts	0x0541, r25
    568a:	a0 93 42 05 	sts	0x0542, r26
    568e:	b0 93 43 05 	sts	0x0543, r27
    5692:	20 91 cc 05 	lds	r18, 0x05CC
    5696:	82 2f       	mov	r24, r18
    5698:	90 e0       	ldi	r25, 0x00	; 0
    569a:	fc 01       	movw	r30, r24
    569c:	ee 0f       	add	r30, r30
    569e:	ff 1f       	adc	r31, r31
    56a0:	43 e0       	ldi	r20, 0x03	; 3
    56a2:	88 0f       	add	r24, r24
    56a4:	99 1f       	adc	r25, r25
    56a6:	4a 95       	dec	r20
    56a8:	e1 f7       	brne	.-8      	; 0x56a2 <_hDebug+0x82>
    56aa:	e8 0f       	add	r30, r24
    56ac:	f9 1f       	adc	r31, r25
    56ae:	ec 5f       	subi	r30, 0xFC	; 252
    56b0:	f9 4f       	sbci	r31, 0xF9	; 249
    56b2:	24 81       	ldd	r18, Z+4	; 0x04
    56b4:	35 81       	ldd	r19, Z+5	; 0x05
    56b6:	40 91 dd 06 	lds	r20, 0x06DD
    56ba:	50 e0       	ldi	r21, 0x00	; 0
    56bc:	42 9f       	mul	r20, r18
    56be:	c0 01       	movw	r24, r0
    56c0:	43 9f       	mul	r20, r19
    56c2:	90 0d       	add	r25, r0
    56c4:	52 9f       	mul	r21, r18
    56c6:	90 0d       	add	r25, r0
    56c8:	11 24       	eor	r1, r1
    56ca:	64 e1       	ldi	r22, 0x14	; 20
    56cc:	70 e0       	ldi	r23, 0x00	; 0
    56ce:	0e 94 44 3b 	call	0x7688	; 0x7688 <__divmodhi4>
    56d2:	8b 01       	movw	r16, r22
    56d4:	70 93 c5 05 	sts	0x05C5, r23
    56d8:	60 93 c4 05 	sts	0x05C4, r22
    56dc:	c0 91 cf 06 	lds	r28, 0x06CF
    56e0:	d0 91 d0 06 	lds	r29, 0x06D0
    56e4:	cc 0f       	add	r28, r28
    56e6:	dd 1f       	adc	r29, r29
    56e8:	cc 0f       	add	r28, r28
    56ea:	dd 1f       	adc	r29, r29
    56ec:	d0 93 d0 06 	sts	0x06D0, r29
    56f0:	c0 93 cf 06 	sts	0x06CF, r28
    56f4:	be 01       	movw	r22, r28
    56f6:	6a 5d       	subi	r22, 0xDA	; 218
    56f8:	7d 4f       	sbci	r23, 0xFD	; 253
    56fa:	88 27       	eor	r24, r24
    56fc:	77 fd       	sbrc	r23, 7
    56fe:	80 95       	com	r24
    5700:	98 2f       	mov	r25, r24
    5702:	0e 94 c2 39 	call	0x7384	; 0x7384 <__floatsisf>
    5706:	6b 01       	movw	r12, r22
    5708:	7c 01       	movw	r14, r24
    570a:	b8 01       	movw	r22, r16
    570c:	88 27       	eor	r24, r24
    570e:	77 fd       	sbrc	r23, 7
    5710:	80 95       	com	r24
    5712:	98 2f       	mov	r25, r24
    5714:	0e 94 c2 39 	call	0x7384	; 0x7384 <__floatsisf>
    5718:	20 e0       	ldi	r18, 0x00	; 0
    571a:	30 e0       	ldi	r19, 0x00	; 0
    571c:	40 e0       	ldi	r20, 0x00	; 0
    571e:	5f e3       	ldi	r21, 0x3F	; 63
    5720:	0e 94 76 3a 	call	0x74ec	; 0x74ec <__mulsf3>
    5724:	9b 01       	movw	r18, r22
    5726:	ac 01       	movw	r20, r24
    5728:	c7 01       	movw	r24, r14
    572a:	b6 01       	movw	r22, r12
    572c:	0e 94 be 38 	call	0x717c	; 0x717c <__subsf3>
    5730:	0e 94 8f 39 	call	0x731e	; 0x731e <__fixsfsi>
    5734:	70 93 9f 05 	sts	0x059F, r23
    5738:	60 93 9e 05 	sts	0x059E, r22
    573c:	81 e0       	ldi	r24, 0x01	; 1
    573e:	60 e3       	ldi	r22, 0x30	; 48
    5740:	ae 01       	movw	r20, r28
    5742:	29 e0       	ldi	r18, 0x09	; 9
    5744:	00 e0       	ldi	r16, 0x00	; 0
    5746:	0e 94 fa 0d 	call	0x1bf4	; 0x1bf4 <LCD_WriteValue>
    574a:	40 91 c4 05 	lds	r20, 0x05C4
    574e:	50 91 c5 05 	lds	r21, 0x05C5
    5752:	82 e0       	ldi	r24, 0x02	; 2
    5754:	60 e3       	ldi	r22, 0x30	; 48
    5756:	29 e0       	ldi	r18, 0x09	; 9
    5758:	0e 94 fa 0d 	call	0x1bf4	; 0x1bf4 <LCD_WriteValue>
    575c:	40 91 9e 05 	lds	r20, 0x059E
    5760:	50 91 9f 05 	lds	r21, 0x059F
    5764:	84 e0       	ldi	r24, 0x04	; 4
    5766:	60 e3       	ldi	r22, 0x30	; 48
    5768:	29 e0       	ldi	r18, 0x09	; 9
    576a:	0e 94 fa 0d 	call	0x1bf4	; 0x1bf4 <LCD_WriteValue>
    576e:	df 91       	pop	r29
    5770:	cf 91       	pop	r28
    5772:	1f 91       	pop	r17
    5774:	0f 91       	pop	r16
    5776:	ff 90       	pop	r15
    5778:	ef 90       	pop	r14
    577a:	df 90       	pop	r13
    577c:	cf 90       	pop	r12
    577e:	08 95       	ret

00005780 <_hSensorCalibration>:
    5780:	0f 93       	push	r16
    5782:	1f 93       	push	r17
    5784:	cf 93       	push	r28
    5786:	df 93       	push	r29
    5788:	80 91 bc 05 	lds	r24, 0x05BC
    578c:	88 23       	and	r24, r24
    578e:	69 f1       	breq	.+90     	; 0x57ea <_hSensorCalibration+0x6a>
    5790:	84 ff       	sbrs	r24, 4
    5792:	19 c0       	rjmp	.+50     	; 0x57c6 <_hSensorCalibration+0x46>
    5794:	15 e0       	ldi	r17, 0x05	; 5
    5796:	88 ec       	ldi	r24, 0xC8	; 200
    5798:	90 e0       	ldi	r25, 0x00	; 0
    579a:	62 e0       	ldi	r22, 0x02	; 2
    579c:	0e 94 92 0e 	call	0x1d24	; 0x1d24 <LED_FlashOrangeLED>
    57a0:	86 e4       	ldi	r24, 0x46	; 70
    57a2:	90 e0       	ldi	r25, 0x00	; 0
    57a4:	61 e0       	ldi	r22, 0x01	; 1
    57a6:	0e 94 90 0b 	call	0x1720	; 0x1720 <Beeper_Beep>
    57aa:	11 50       	subi	r17, 0x01	; 1
    57ac:	a1 f7       	brne	.-24     	; 0x5796 <_hSensorCalibration+0x16>
    57ae:	0e 94 40 29 	call	0x5280	; 0x5280 <Sensors_Calibrate>
    57b2:	0e 94 c7 0f 	call	0x1f8e	; 0x1f8e <Save_Config_to_EEPROM>
    57b6:	85 ee       	ldi	r24, 0xE5	; 229
    57b8:	9c e0       	ldi	r25, 0x0C	; 12
    57ba:	90 93 45 05 	sts	0x0545, r25
    57be:	80 93 44 05 	sts	0x0544, r24
    57c2:	0e 94 fb 2a 	call	0x55f6	; 0x55f6 <writeSoftkeys>
    57c6:	c0 e7       	ldi	r28, 0x70	; 112
    57c8:	d7 e0       	ldi	r29, 0x07	; 7
    57ca:	10 e0       	ldi	r17, 0x00	; 0
    57cc:	81 2f       	mov	r24, r17
    57ce:	60 e3       	ldi	r22, 0x30	; 48
    57d0:	0e 94 07 0c 	call	0x180e	; 0x180e <LCD_SetPos>
    57d4:	49 91       	ld	r20, Y+
    57d6:	59 91       	ld	r21, Y+
    57d8:	81 2f       	mov	r24, r17
    57da:	60 e3       	ldi	r22, 0x30	; 48
    57dc:	25 e0       	ldi	r18, 0x05	; 5
    57de:	00 e0       	ldi	r16, 0x00	; 0
    57e0:	0e 94 fa 0d 	call	0x1bf4	; 0x1bf4 <LCD_WriteValue>
    57e4:	1f 5f       	subi	r17, 0xFF	; 255
    57e6:	16 30       	cpi	r17, 0x06	; 6
    57e8:	89 f7       	brne	.-30     	; 0x57cc <_hSensorCalibration+0x4c>
    57ea:	df 91       	pop	r29
    57ec:	cf 91       	pop	r28
    57ee:	1f 91       	pop	r17
    57f0:	0f 91       	pop	r16
    57f2:	08 95       	ret

000057f4 <_hSensorTest>:
    57f4:	0f 93       	push	r16
    57f6:	80 e0       	ldi	r24, 0x00	; 0
    57f8:	60 e3       	ldi	r22, 0x30	; 48
    57fa:	0e 94 07 0c 	call	0x180e	; 0x180e <LCD_SetPos>
    57fe:	81 e0       	ldi	r24, 0x01	; 1
    5800:	64 ef       	ldi	r22, 0xF4	; 244
    5802:	71 e0       	ldi	r23, 0x01	; 1
    5804:	46 e7       	ldi	r20, 0x76	; 118
    5806:	52 e0       	ldi	r21, 0x02	; 2
    5808:	0e 94 08 29 	call	0x5210	; 0x5210 <Sensors_Test>
    580c:	0e 94 f0 0c 	call	0x19e0	; 0x19e0 <LCD_WriteString>
    5810:	81 e0       	ldi	r24, 0x01	; 1
    5812:	60 e3       	ldi	r22, 0x30	; 48
    5814:	0e 94 07 0c 	call	0x180e	; 0x180e <LCD_SetPos>
    5818:	84 e0       	ldi	r24, 0x04	; 4
    581a:	64 ef       	ldi	r22, 0xF4	; 244
    581c:	71 e0       	ldi	r23, 0x01	; 1
    581e:	46 e7       	ldi	r20, 0x76	; 118
    5820:	52 e0       	ldi	r21, 0x02	; 2
    5822:	0e 94 08 29 	call	0x5210	; 0x5210 <Sensors_Test>
    5826:	0e 94 f0 0c 	call	0x19e0	; 0x19e0 <LCD_WriteString>
    582a:	82 e0       	ldi	r24, 0x02	; 2
    582c:	60 e3       	ldi	r22, 0x30	; 48
    582e:	0e 94 07 0c 	call	0x180e	; 0x180e <LCD_SetPos>
    5832:	82 e0       	ldi	r24, 0x02	; 2
    5834:	64 ef       	ldi	r22, 0xF4	; 244
    5836:	71 e0       	ldi	r23, 0x01	; 1
    5838:	46 e7       	ldi	r20, 0x76	; 118
    583a:	52 e0       	ldi	r21, 0x02	; 2
    583c:	0e 94 08 29 	call	0x5210	; 0x5210 <Sensors_Test>
    5840:	0e 94 f0 0c 	call	0x19e0	; 0x19e0 <LCD_WriteString>
    5844:	83 e0       	ldi	r24, 0x03	; 3
    5846:	60 e3       	ldi	r22, 0x30	; 48
    5848:	0e 94 07 0c 	call	0x180e	; 0x180e <LCD_SetPos>
    584c:	85 e0       	ldi	r24, 0x05	; 5
    584e:	62 ec       	ldi	r22, 0xC2	; 194
    5850:	71 e0       	ldi	r23, 0x01	; 1
    5852:	42 e5       	ldi	r20, 0x52	; 82
    5854:	53 e0       	ldi	r21, 0x03	; 3
    5856:	0e 94 08 29 	call	0x5210	; 0x5210 <Sensors_Test>
    585a:	0e 94 f0 0c 	call	0x19e0	; 0x19e0 <LCD_WriteString>
    585e:	84 e0       	ldi	r24, 0x04	; 4
    5860:	60 e3       	ldi	r22, 0x30	; 48
    5862:	0e 94 07 0c 	call	0x180e	; 0x180e <LCD_SetPos>
    5866:	86 e0       	ldi	r24, 0x06	; 6
    5868:	62 ec       	ldi	r22, 0xC2	; 194
    586a:	71 e0       	ldi	r23, 0x01	; 1
    586c:	42 e5       	ldi	r20, 0x52	; 82
    586e:	53 e0       	ldi	r21, 0x03	; 3
    5870:	0e 94 08 29 	call	0x5210	; 0x5210 <Sensors_Test>
    5874:	0e 94 f0 0c 	call	0x19e0	; 0x19e0 <LCD_WriteString>
    5878:	85 e0       	ldi	r24, 0x05	; 5
    587a:	60 e3       	ldi	r22, 0x30	; 48
    587c:	0e 94 07 0c 	call	0x180e	; 0x180e <LCD_SetPos>
    5880:	87 e0       	ldi	r24, 0x07	; 7
    5882:	62 ec       	ldi	r22, 0xC2	; 194
    5884:	71 e0       	ldi	r23, 0x01	; 1
    5886:	42 e5       	ldi	r20, 0x52	; 82
    5888:	53 e0       	ldi	r21, 0x03	; 3
    588a:	0e 94 08 29 	call	0x5210	; 0x5210 <Sensors_Test>
    588e:	0e 94 f0 0c 	call	0x19e0	; 0x19e0 <LCD_WriteString>
    5892:	86 e0       	ldi	r24, 0x06	; 6
    5894:	60 e3       	ldi	r22, 0x30	; 48
    5896:	0e 94 07 0c 	call	0x180e	; 0x180e <LCD_SetPos>
    589a:	0e 94 0e 2a 	call	0x541c	; 0x541c <Sensor_GetBattery>
    589e:	9c 01       	movw	r18, r24
    58a0:	b9 01       	movw	r22, r18
    58a2:	88 27       	eor	r24, r24
    58a4:	77 fd       	sbrc	r23, 7
    58a6:	80 95       	com	r24
    58a8:	98 2f       	mov	r25, r24
    58aa:	0e 94 c2 39 	call	0x7384	; 0x7384 <__floatsisf>
    58ae:	9b 01       	movw	r18, r22
    58b0:	ac 01       	movw	r20, r24
    58b2:	86 e0       	ldi	r24, 0x06	; 6
    58b4:	60 e3       	ldi	r22, 0x30	; 48
    58b6:	00 e0       	ldi	r16, 0x00	; 0
    58b8:	0e 94 f1 0d 	call	0x1be2	; 0x1be2 <LCD_WriteValue_double>
    58bc:	0f 91       	pop	r16
    58be:	08 95       	ret

000058c0 <_hHomeArmedESC>:
    58c0:	80 91 bc 05 	lds	r24, 0x05BC
    58c4:	80 ff       	sbrs	r24, 0
    58c6:	10 c0       	rjmp	.+32     	; 0x58e8 <_hHomeArmedESC+0x28>
    58c8:	89 e4       	ldi	r24, 0x49	; 73
    58ca:	91 e0       	ldi	r25, 0x01	; 1
    58cc:	0e 94 5b 0e 	call	0x1cb6	; 0x1cb6 <LCD_SelectFont>
    58d0:	80 e0       	ldi	r24, 0x00	; 0
    58d2:	60 e0       	ldi	r22, 0x00	; 0
    58d4:	0e 94 07 0c 	call	0x180e	; 0x180e <LCD_SetPos>
    58d8:	89 e0       	ldi	r24, 0x09	; 9
    58da:	9d e0       	ldi	r25, 0x0D	; 13
    58dc:	0e 94 04 0d 	call	0x1a08	; 0x1a08 <LCD_WriteString_P>
    58e0:	80 e0       	ldi	r24, 0x00	; 0
    58e2:	90 e0       	ldi	r25, 0x00	; 0
    58e4:	0e 94 5b 0e 	call	0x1cb6	; 0x1cb6 <LCD_SelectFont>
    58e8:	80 91 bc 05 	lds	r24, 0x05BC
    58ec:	84 ff       	sbrs	r24, 4
    58ee:	04 c0       	rjmp	.+8      	; 0x58f8 <_hHomeArmedESC+0x38>
    58f0:	10 92 d7 06 	sts	0x06D7, r1
    58f4:	0e 94 c7 0f 	call	0x1f8e	; 0x1f8e <Save_Config_to_EEPROM>
    58f8:	83 e0       	ldi	r24, 0x03	; 3
    58fa:	62 e1       	ldi	r22, 0x12	; 18
    58fc:	0e 94 07 0c 	call	0x180e	; 0x180e <LCD_SetPos>
    5900:	80 91 98 05 	lds	r24, 0x0598
    5904:	90 91 99 05 	lds	r25, 0x0599
    5908:	6c ee       	ldi	r22, 0xEC	; 236
    590a:	75 e0       	ldi	r23, 0x05	; 5
    590c:	4a e0       	ldi	r20, 0x0A	; 10
    590e:	50 e0       	ldi	r21, 0x00	; 0
    5910:	0e 94 bd 3b 	call	0x777a	; 0x777a <itoa>
    5914:	8c ee       	ldi	r24, 0xEC	; 236
    5916:	95 e0       	ldi	r25, 0x05	; 5
    5918:	65 e0       	ldi	r22, 0x05	; 5
    591a:	0e 94 56 0d 	call	0x1aac	; 0x1aac <LCD_WritePadded>
    591e:	83 e0       	ldi	r24, 0x03	; 3
    5920:	6e e4       	ldi	r22, 0x4E	; 78
    5922:	0e 94 07 0c 	call	0x180e	; 0x180e <LCD_SetPos>
    5926:	80 91 9e 05 	lds	r24, 0x059E
    592a:	90 91 9f 05 	lds	r25, 0x059F
    592e:	6c ee       	ldi	r22, 0xEC	; 236
    5930:	75 e0       	ldi	r23, 0x05	; 5
    5932:	4a e0       	ldi	r20, 0x0A	; 10
    5934:	50 e0       	ldi	r21, 0x00	; 0
    5936:	0e 94 bd 3b 	call	0x777a	; 0x777a <itoa>
    593a:	8c ee       	ldi	r24, 0xEC	; 236
    593c:	95 e0       	ldi	r25, 0x05	; 5
    593e:	65 e0       	ldi	r22, 0x05	; 5
    5940:	0e 94 56 0d 	call	0x1aac	; 0x1aac <LCD_WritePadded>
    5944:	84 e0       	ldi	r24, 0x04	; 4
    5946:	62 e1       	ldi	r22, 0x12	; 18
    5948:	0e 94 07 0c 	call	0x180e	; 0x180e <LCD_SetPos>
    594c:	80 91 9a 05 	lds	r24, 0x059A
    5950:	90 91 9b 05 	lds	r25, 0x059B
    5954:	6c ee       	ldi	r22, 0xEC	; 236
    5956:	75 e0       	ldi	r23, 0x05	; 5
    5958:	4a e0       	ldi	r20, 0x0A	; 10
    595a:	50 e0       	ldi	r21, 0x00	; 0
    595c:	0e 94 bd 3b 	call	0x777a	; 0x777a <itoa>
    5960:	8c ee       	ldi	r24, 0xEC	; 236
    5962:	95 e0       	ldi	r25, 0x05	; 5
    5964:	65 e0       	ldi	r22, 0x05	; 5
    5966:	0e 94 56 0d 	call	0x1aac	; 0x1aac <LCD_WritePadded>
    596a:	84 e0       	ldi	r24, 0x04	; 4
    596c:	6e e4       	ldi	r22, 0x4E	; 78
    596e:	0e 94 07 0c 	call	0x180e	; 0x180e <LCD_SetPos>
    5972:	80 91 9c 05 	lds	r24, 0x059C
    5976:	90 91 9d 05 	lds	r25, 0x059D
    597a:	6c ee       	ldi	r22, 0xEC	; 236
    597c:	75 e0       	ldi	r23, 0x05	; 5
    597e:	4a e0       	ldi	r20, 0x0A	; 10
    5980:	50 e0       	ldi	r21, 0x00	; 0
    5982:	0e 94 bd 3b 	call	0x777a	; 0x777a <itoa>
    5986:	8c ee       	ldi	r24, 0xEC	; 236
    5988:	95 e0       	ldi	r25, 0x05	; 5
    598a:	65 e0       	ldi	r22, 0x05	; 5
    598c:	0e 94 56 0d 	call	0x1aac	; 0x1aac <LCD_WritePadded>
    5990:	08 95       	ret

00005992 <_helper_DisplayPitchRollYaw>:
    5992:	81 30       	cpi	r24, 0x01	; 1
    5994:	99 f0       	breq	.+38     	; 0x59bc <_helper_DisplayPitchRollYaw+0x2a>
    5996:	81 30       	cpi	r24, 0x01	; 1
    5998:	18 f0       	brcs	.+6      	; 0x59a0 <_helper_DisplayPitchRollYaw+0xe>
    599a:	82 30       	cpi	r24, 0x02	; 2
    599c:	e1 f4       	brne	.+56     	; 0x59d6 <_helper_DisplayPitchRollYaw+0x44>
    599e:	15 c0       	rjmp	.+42     	; 0x59ca <_helper_DisplayPitchRollYaw+0x38>
    59a0:	80 91 89 07 	lds	r24, 0x0789
    59a4:	88 23       	and	r24, r24
    59a6:	29 f4       	brne	.+10     	; 0x59b2 <_helper_DisplayPitchRollYaw+0x20>
    59a8:	8c ee       	ldi	r24, 0xEC	; 236
    59aa:	95 e0       	ldi	r25, 0x05	; 5
    59ac:	6b ee       	ldi	r22, 0xEB	; 235
    59ae:	7d e0       	ldi	r23, 0x0D	; 13
    59b0:	09 c0       	rjmp	.+18     	; 0x59c4 <_helper_DisplayPitchRollYaw+0x32>
    59b2:	8c ee       	ldi	r24, 0xEC	; 236
    59b4:	95 e0       	ldi	r25, 0x05	; 5
    59b6:	6e ed       	ldi	r22, 0xDE	; 222
    59b8:	7d e0       	ldi	r23, 0x0D	; 13
    59ba:	04 c0       	rjmp	.+8      	; 0x59c4 <_helper_DisplayPitchRollYaw+0x32>
    59bc:	8c ee       	ldi	r24, 0xEC	; 236
    59be:	95 e0       	ldi	r25, 0x05	; 5
    59c0:	61 ed       	ldi	r22, 0xD1	; 209
    59c2:	7d e0       	ldi	r23, 0x0D	; 13
    59c4:	0e 94 8b 3b 	call	0x7716	; 0x7716 <strcpy_P>
    59c8:	08 95       	ret
    59ca:	8c ee       	ldi	r24, 0xEC	; 236
    59cc:	95 e0       	ldi	r25, 0x05	; 5
    59ce:	6a ec       	ldi	r22, 0xCA	; 202
    59d0:	7d e0       	ldi	r23, 0x0D	; 13
    59d2:	0e 94 8b 3b 	call	0x7716	; 0x7716 <strcpy_P>
    59d6:	08 95       	ret

000059d8 <_helper_SwitchPitchRollYaw>:
    59d8:	fc 01       	movw	r30, r24
    59da:	80 81       	ld	r24, Z
    59dc:	81 30       	cpi	r24, 0x01	; 1
    59de:	49 f0       	breq	.+18     	; 0x59f2 <_helper_SwitchPitchRollYaw+0x1a>
    59e0:	81 30       	cpi	r24, 0x01	; 1
    59e2:	18 f0       	brcs	.+6      	; 0x59ea <_helper_SwitchPitchRollYaw+0x12>
    59e4:	82 30       	cpi	r24, 0x02	; 2
    59e6:	49 f4       	brne	.+18     	; 0x59fa <_helper_SwitchPitchRollYaw+0x22>
    59e8:	07 c0       	rjmp	.+14     	; 0x59f8 <_helper_SwitchPitchRollYaw+0x20>
    59ea:	80 91 89 07 	lds	r24, 0x0789
    59ee:	81 30       	cpi	r24, 0x01	; 1
    59f0:	09 f0       	breq	.+2      	; 0x59f4 <_helper_SwitchPitchRollYaw+0x1c>
    59f2:	82 e0       	ldi	r24, 0x02	; 2
    59f4:	80 83       	st	Z, r24
    59f6:	08 95       	ret
    59f8:	10 82       	st	Z, r1
    59fa:	08 95       	ret

000059fc <_helper_DisplayBiStateText>:
    59fc:	af 92       	push	r10
    59fe:	bf 92       	push	r11
    5a00:	cf 92       	push	r12
    5a02:	df 92       	push	r13
    5a04:	ef 92       	push	r14
    5a06:	0f 93       	push	r16
    5a08:	1f 93       	push	r17
    5a0a:	df 93       	push	r29
    5a0c:	cf 93       	push	r28
    5a0e:	0f 92       	push	r0
    5a10:	cd b7       	in	r28, 0x3d	; 61
    5a12:	de b7       	in	r29, 0x3e	; 62
    5a14:	18 2f       	mov	r17, r24
    5a16:	6a 01       	movw	r12, r20
    5a18:	59 01       	movw	r10, r18
    5a1a:	8e 2d       	mov	r24, r14
    5a1c:	69 83       	std	Y+1, r22	; 0x01
    5a1e:	0e 94 12 0d 	call	0x1a24	; 0x1a24 <lcdReverse>
    5a22:	81 2f       	mov	r24, r17
    5a24:	69 81       	ldd	r22, Y+1	; 0x01
    5a26:	0e 94 07 0c 	call	0x180e	; 0x180e <LCD_SetPos>
    5a2a:	00 23       	and	r16, r16
    5a2c:	11 f0       	breq	.+4      	; 0x5a32 <_helper_DisplayBiStateText+0x36>
    5a2e:	c6 01       	movw	r24, r12
    5a30:	01 c0       	rjmp	.+2      	; 0x5a34 <_helper_DisplayBiStateText+0x38>
    5a32:	c5 01       	movw	r24, r10
    5a34:	0e 94 04 0d 	call	0x1a08	; 0x1a08 <LCD_WriteString_P>
    5a38:	80 e0       	ldi	r24, 0x00	; 0
    5a3a:	0e 94 12 0d 	call	0x1a24	; 0x1a24 <lcdReverse>
    5a3e:	0f 90       	pop	r0
    5a40:	cf 91       	pop	r28
    5a42:	df 91       	pop	r29
    5a44:	1f 91       	pop	r17
    5a46:	0f 91       	pop	r16
    5a48:	ef 90       	pop	r14
    5a4a:	df 90       	pop	r13
    5a4c:	cf 90       	pop	r12
    5a4e:	bf 90       	pop	r11
    5a50:	af 90       	pop	r10
    5a52:	08 95       	ret

00005a54 <_helper_SaveinEEPROM_ifChanged>:
    5a54:	80 91 32 05 	lds	r24, 0x0532
    5a58:	81 30       	cpi	r24, 0x01	; 1
    5a5a:	21 f4       	brne	.+8      	; 0x5a64 <_helper_SaveinEEPROM_ifChanged+0x10>
    5a5c:	0e 94 c7 0f 	call	0x1f8e	; 0x1f8e <Save_Config_to_EEPROM>
    5a60:	10 92 32 05 	sts	0x0532, r1
    5a64:	08 95       	ret

00005a66 <_helper_DisplayRXStatus>:
    5a66:	ef 92       	push	r14
    5a68:	0f 93       	push	r16
    5a6a:	1f 93       	push	r17
    5a6c:	18 2f       	mov	r17, r24
    5a6e:	20 91 d5 07 	lds	r18, 0x07D5
    5a72:	80 91 cc 05 	lds	r24, 0x05CC
    5a76:	30 e0       	ldi	r19, 0x00	; 0
    5a78:	2f 70       	andi	r18, 0x0F	; 15
    5a7a:	30 70       	andi	r19, 0x00	; 0
    5a7c:	01 e0       	ldi	r16, 0x01	; 1
    5a7e:	21 15       	cp	r18, r1
    5a80:	31 05       	cpc	r19, r1
    5a82:	09 f0       	breq	.+2      	; 0x5a86 <_helper_DisplayRXStatus+0x20>
    5a84:	00 e0       	ldi	r16, 0x00	; 0
    5a86:	91 e0       	ldi	r25, 0x01	; 1
    5a88:	81 30       	cpi	r24, 0x01	; 1
    5a8a:	09 f4       	brne	.+2      	; 0x5a8e <_helper_DisplayRXStatus+0x28>
    5a8c:	90 e0       	ldi	r25, 0x00	; 0
    5a8e:	81 2f       	mov	r24, r17
    5a90:	62 e1       	ldi	r22, 0x12	; 18
    5a92:	47 e2       	ldi	r20, 0x27	; 39
    5a94:	5d e0       	ldi	r21, 0x0D	; 13
    5a96:	29 e2       	ldi	r18, 0x29	; 41
    5a98:	3d e0       	ldi	r19, 0x0D	; 13
    5a9a:	e9 2e       	mov	r14, r25
    5a9c:	0e 94 fe 2c 	call	0x59fc	; 0x59fc <_helper_DisplayBiStateText>
    5aa0:	80 91 d5 07 	lds	r24, 0x07D5
    5aa4:	20 91 cc 05 	lds	r18, 0x05CC
    5aa8:	80 7f       	andi	r24, 0xF0	; 240
    5aaa:	01 e0       	ldi	r16, 0x01	; 1
    5aac:	09 f0       	breq	.+2      	; 0x5ab0 <_helper_DisplayRXStatus+0x4a>
    5aae:	00 e0       	ldi	r16, 0x00	; 0
    5ab0:	91 e0       	ldi	r25, 0x01	; 1
    5ab2:	22 23       	and	r18, r18
    5ab4:	09 f4       	brne	.+2      	; 0x5ab8 <_helper_DisplayRXStatus+0x52>
    5ab6:	90 e0       	ldi	r25, 0x00	; 0
    5ab8:	81 2f       	mov	r24, r17
    5aba:	6e e1       	ldi	r22, 0x1E	; 30
    5abc:	4b e2       	ldi	r20, 0x2B	; 43
    5abe:	5d e0       	ldi	r21, 0x0D	; 13
    5ac0:	29 e2       	ldi	r18, 0x29	; 41
    5ac2:	3d e0       	ldi	r19, 0x0D	; 13
    5ac4:	e9 2e       	mov	r14, r25
    5ac6:	0e 94 fe 2c 	call	0x59fc	; 0x59fc <_helper_DisplayBiStateText>
    5aca:	80 e0       	ldi	r24, 0x00	; 0
    5acc:	0e 94 12 0d 	call	0x1a24	; 0x1a24 <lcdReverse>
    5ad0:	1f 91       	pop	r17
    5ad2:	0f 91       	pop	r16
    5ad4:	ef 90       	pop	r14
    5ad6:	08 95       	ret

00005ad8 <_hStickCentering>:
    5ad8:	0f 93       	push	r16
    5ada:	1f 93       	push	r17
    5adc:	cf 93       	push	r28
    5ade:	df 93       	push	r29
    5ae0:	10 92 e7 05 	sts	0x05E7, r1
    5ae4:	80 91 bc 05 	lds	r24, 0x05BC
    5ae8:	80 ff       	sbrs	r24, 0
    5aea:	0c c0       	rjmp	.+24     	; 0x5b04 <_hStickCentering+0x2c>
    5aec:	80 91 cc 05 	lds	r24, 0x05CC
    5af0:	0e 94 0b 28 	call	0x5016	; 0x5016 <RX_StickCenterCalibrationInit>
    5af4:	80 e0       	ldi	r24, 0x00	; 0
    5af6:	60 e0       	ldi	r22, 0x00	; 0
    5af8:	4b ef       	ldi	r20, 0xFB	; 251
    5afa:	5c e0       	ldi	r21, 0x0C	; 12
    5afc:	22 e1       	ldi	r18, 0x12	; 18
    5afe:	00 e0       	ldi	r16, 0x00	; 0
    5b00:	0e 94 8c 0d 	call	0x1b18	; 0x1b18 <LCD_WriteString_Pex>
    5b04:	80 91 bc 05 	lds	r24, 0x05BC
    5b08:	84 ff       	sbrs	r24, 4
    5b0a:	bf c0       	rjmp	.+382    	; 0x5c8a <_hStickCentering+0x1b2>
    5b0c:	80 91 20 08 	lds	r24, 0x0820
    5b10:	88 23       	and	r24, r24
    5b12:	09 f0       	breq	.+2      	; 0x5b16 <_hStickCentering+0x3e>
    5b14:	b5 c0       	rjmp	.+362    	; 0x5c80 <_hStickCentering+0x1a8>
    5b16:	20 e0       	ldi	r18, 0x00	; 0
    5b18:	30 e0       	ldi	r19, 0x00	; 0
    5b1a:	08 ee       	ldi	r16, 0xE8	; 232
    5b1c:	13 e0       	ldi	r17, 0x03	; 3
    5b1e:	80 91 cc 05 	lds	r24, 0x05CC
    5b22:	40 91 cc 05 	lds	r20, 0x05CC
    5b26:	60 91 cc 05 	lds	r22, 0x05CC
    5b2a:	90 e0       	ldi	r25, 0x00	; 0
    5b2c:	fc 01       	movw	r30, r24
    5b2e:	ee 0f       	add	r30, r30
    5b30:	ff 1f       	adc	r31, r31
    5b32:	ee 0f       	add	r30, r30
    5b34:	ff 1f       	adc	r31, r31
    5b36:	e8 0f       	add	r30, r24
    5b38:	f9 1f       	adc	r31, r25
    5b3a:	e2 0f       	add	r30, r18
    5b3c:	f3 1f       	adc	r31, r19
    5b3e:	ee 0f       	add	r30, r30
    5b40:	ff 1f       	adc	r31, r31
    5b42:	ec 5b       	subi	r30, 0xBC	; 188
    5b44:	f8 4f       	sbci	r31, 0xF8	; 248
    5b46:	70 e0       	ldi	r23, 0x00	; 0
    5b48:	cb 01       	movw	r24, r22
    5b4a:	88 0f       	add	r24, r24
    5b4c:	99 1f       	adc	r25, r25
    5b4e:	88 0f       	add	r24, r24
    5b50:	99 1f       	adc	r25, r25
    5b52:	86 0f       	add	r24, r22
    5b54:	97 1f       	adc	r25, r23
    5b56:	82 0f       	add	r24, r18
    5b58:	93 1f       	adc	r25, r19
    5b5a:	88 0f       	add	r24, r24
    5b5c:	99 1f       	adc	r25, r25
    5b5e:	80 55       	subi	r24, 0x50	; 80
    5b60:	99 4f       	sbci	r25, 0xF9	; 249
    5b62:	50 e0       	ldi	r21, 0x00	; 0
    5b64:	da 01       	movw	r26, r20
    5b66:	aa 0f       	add	r26, r26
    5b68:	bb 1f       	adc	r27, r27
    5b6a:	aa 0f       	add	r26, r26
    5b6c:	bb 1f       	adc	r27, r27
    5b6e:	a4 0f       	add	r26, r20
    5b70:	b5 1f       	adc	r27, r21
    5b72:	a2 0f       	add	r26, r18
    5b74:	b3 1f       	adc	r27, r19
    5b76:	aa 0f       	add	r26, r26
    5b78:	bb 1f       	adc	r27, r27
    5b7a:	ad 5d       	subi	r26, 0xDD	; 221
    5b7c:	b9 4f       	sbci	r27, 0xF9	; 249
    5b7e:	ec 01       	movw	r28, r24
    5b80:	88 81       	ld	r24, Y
    5b82:	99 81       	ldd	r25, Y+1	; 0x01
    5b84:	4d 91       	ld	r20, X+
    5b86:	5c 91       	ld	r21, X
    5b88:	84 0f       	add	r24, r20
    5b8a:	95 1f       	adc	r25, r21
    5b8c:	96 95       	lsr	r25
    5b8e:	87 95       	ror	r24
    5b90:	91 83       	std	Z+1, r25	; 0x01
    5b92:	80 83       	st	Z, r24
    5b94:	40 91 cc 05 	lds	r20, 0x05CC
    5b98:	80 91 cc 05 	lds	r24, 0x05CC
    5b9c:	50 e0       	ldi	r21, 0x00	; 0
    5b9e:	fa 01       	movw	r30, r20
    5ba0:	ee 0f       	add	r30, r30
    5ba2:	ff 1f       	adc	r31, r31
    5ba4:	ee 0f       	add	r30, r30
    5ba6:	ff 1f       	adc	r31, r31
    5ba8:	e4 0f       	add	r30, r20
    5baa:	f5 1f       	adc	r31, r21
    5bac:	e2 0f       	add	r30, r18
    5bae:	f3 1f       	adc	r31, r19
    5bb0:	ee 0f       	add	r30, r30
    5bb2:	ff 1f       	adc	r31, r31
    5bb4:	e8 5a       	subi	r30, 0xA8	; 168
    5bb6:	f8 4f       	sbci	r31, 0xF8	; 248
    5bb8:	90 e0       	ldi	r25, 0x00	; 0
    5bba:	dc 01       	movw	r26, r24
    5bbc:	aa 0f       	add	r26, r26
    5bbe:	bb 1f       	adc	r27, r27
    5bc0:	aa 0f       	add	r26, r26
    5bc2:	bb 1f       	adc	r27, r27
    5bc4:	a8 0f       	add	r26, r24
    5bc6:	b9 1f       	adc	r27, r25
    5bc8:	a2 0f       	add	r26, r18
    5bca:	b3 1f       	adc	r27, r19
    5bcc:	aa 0f       	add	r26, r26
    5bce:	bb 1f       	adc	r27, r27
    5bd0:	a0 55       	subi	r26, 0x50	; 80
    5bd2:	b9 4f       	sbci	r27, 0xF9	; 249
    5bd4:	8d 91       	ld	r24, X+
    5bd6:	9c 91       	ld	r25, X
    5bd8:	91 83       	std	Z+1, r25	; 0x01
    5bda:	80 83       	st	Z, r24
    5bdc:	80 91 cc 05 	lds	r24, 0x05CC
    5be0:	60 91 cc 05 	lds	r22, 0x05CC
    5be4:	40 91 cc 05 	lds	r20, 0x05CC
    5be8:	90 e0       	ldi	r25, 0x00	; 0
    5bea:	fc 01       	movw	r30, r24
    5bec:	ee 0f       	add	r30, r30
    5bee:	ff 1f       	adc	r31, r31
    5bf0:	ee 0f       	add	r30, r30
    5bf2:	ff 1f       	adc	r31, r31
    5bf4:	e8 0f       	add	r30, r24
    5bf6:	f9 1f       	adc	r31, r25
    5bf8:	e2 0f       	add	r30, r18
    5bfa:	f3 1f       	adc	r31, r19
    5bfc:	e2 58       	subi	r30, 0x82	; 130
    5bfe:	f8 4f       	sbci	r31, 0xF8	; 248
    5c00:	70 e0       	ldi	r23, 0x00	; 0
    5c02:	cb 01       	movw	r24, r22
    5c04:	88 0f       	add	r24, r24
    5c06:	99 1f       	adc	r25, r25
    5c08:	88 0f       	add	r24, r24
    5c0a:	99 1f       	adc	r25, r25
    5c0c:	86 0f       	add	r24, r22
    5c0e:	97 1f       	adc	r25, r23
    5c10:	82 0f       	add	r24, r18
    5c12:	93 1f       	adc	r25, r19
    5c14:	88 0f       	add	r24, r24
    5c16:	99 1f       	adc	r25, r25
    5c18:	8d 5d       	subi	r24, 0xDD	; 221
    5c1a:	99 4f       	sbci	r25, 0xF9	; 249
    5c1c:	50 e0       	ldi	r21, 0x00	; 0
    5c1e:	da 01       	movw	r26, r20
    5c20:	aa 0f       	add	r26, r26
    5c22:	bb 1f       	adc	r27, r27
    5c24:	aa 0f       	add	r26, r26
    5c26:	bb 1f       	adc	r27, r27
    5c28:	a4 0f       	add	r26, r20
    5c2a:	b5 1f       	adc	r27, r21
    5c2c:	a2 0f       	add	r26, r18
    5c2e:	b3 1f       	adc	r27, r19
    5c30:	aa 0f       	add	r26, r26
    5c32:	bb 1f       	adc	r27, r27
    5c34:	a0 55       	subi	r26, 0x50	; 80
    5c36:	b9 4f       	sbci	r27, 0xF9	; 249
    5c38:	ec 01       	movw	r28, r24
    5c3a:	88 81       	ld	r24, Y
    5c3c:	99 81       	ldd	r25, Y+1	; 0x01
    5c3e:	4d 91       	ld	r20, X+
    5c40:	5c 91       	ld	r21, X
    5c42:	11 97       	sbiw	r26, 0x01	; 1
    5c44:	84 1b       	sub	r24, r20
    5c46:	95 0b       	sbc	r25, r21
    5c48:	b8 01       	movw	r22, r16
    5c4a:	0e 94 30 3b 	call	0x7660	; 0x7660 <__udivmodhi4>
    5c4e:	60 83       	st	Z, r22
    5c50:	2f 5f       	subi	r18, 0xFF	; 255
    5c52:	3f 4f       	sbci	r19, 0xFF	; 255
    5c54:	25 30       	cpi	r18, 0x05	; 5
    5c56:	31 05       	cpc	r19, r1
    5c58:	09 f0       	breq	.+2      	; 0x5c5c <_hStickCentering+0x184>
    5c5a:	61 cf       	rjmp	.-318    	; 0x5b1e <_hStickCentering+0x46>
    5c5c:	20 91 cc 05 	lds	r18, 0x05CC
    5c60:	81 e0       	ldi	r24, 0x01	; 1
    5c62:	90 e0       	ldi	r25, 0x00	; 0
    5c64:	02 c0       	rjmp	.+4      	; 0x5c6a <_hStickCentering+0x192>
    5c66:	88 0f       	add	r24, r24
    5c68:	99 1f       	adc	r25, r25
    5c6a:	2a 95       	dec	r18
    5c6c:	e2 f7       	brpl	.-8      	; 0x5c66 <_hStickCentering+0x18e>
    5c6e:	20 91 d2 06 	lds	r18, 0x06D2
    5c72:	28 2b       	or	r18, r24
    5c74:	e1 ed       	ldi	r30, 0xD1	; 209
    5c76:	f6 e0       	ldi	r31, 0x06	; 6
    5c78:	21 83       	std	Z+1, r18	; 0x01
    5c7a:	0e 94 c7 0f 	call	0x1f8e	; 0x1f8e <Save_Config_to_EEPROM>
    5c7e:	05 c0       	rjmp	.+10     	; 0x5c8a <_hStickCentering+0x1b2>
    5c80:	88 ec       	ldi	r24, 0xC8	; 200
    5c82:	90 e0       	ldi	r25, 0x00	; 0
    5c84:	63 e0       	ldi	r22, 0x03	; 3
    5c86:	0e 94 90 0b 	call	0x1720	; 0x1720 <Beeper_Beep>
    5c8a:	80 91 bc 05 	lds	r24, 0x05BC
    5c8e:	86 ff       	sbrs	r24, 6
    5c90:	04 c0       	rjmp	.+8      	; 0x5c9a <_hStickCentering+0x1c2>
    5c92:	80 91 cc 05 	lds	r24, 0x05CC
    5c96:	0e 94 0b 28 	call	0x5016	; 0x5016 <RX_StickCenterCalibrationInit>
    5c9a:	10 92 20 08 	sts	0x0820, r1
    5c9e:	80 91 cc 05 	lds	r24, 0x05CC
    5ca2:	0e 94 b2 28 	call	0x5164	; 0x5164 <RX_StickCenterCalibration>
    5ca6:	c0 e0       	ldi	r28, 0x00	; 0
    5ca8:	d0 e0       	ldi	r29, 0x00	; 0
    5caa:	11 e0       	ldi	r17, 0x01	; 1
    5cac:	ce 01       	movw	r24, r28
    5cae:	8f 5f       	subi	r24, 0xFF	; 255
    5cb0:	6e e1       	ldi	r22, 0x1E	; 30
    5cb2:	0e 94 07 0c 	call	0x180e	; 0x180e <LCD_SetPos>
    5cb6:	80 91 cc 05 	lds	r24, 0x05CC
    5cba:	90 e0       	ldi	r25, 0x00	; 0
    5cbc:	fc 01       	movw	r30, r24
    5cbe:	ee 0f       	add	r30, r30
    5cc0:	ff 1f       	adc	r31, r31
    5cc2:	ee 0f       	add	r30, r30
    5cc4:	ff 1f       	adc	r31, r31
    5cc6:	e8 0f       	add	r30, r24
    5cc8:	f9 1f       	adc	r31, r25
    5cca:	ec 0f       	add	r30, r28
    5ccc:	fd 1f       	adc	r31, r29
    5cce:	ee 0f       	add	r30, r30
    5cd0:	ff 1f       	adc	r31, r31
    5cd2:	ed 5d       	subi	r30, 0xDD	; 221
    5cd4:	f9 4f       	sbci	r31, 0xF9	; 249
    5cd6:	80 81       	ld	r24, Z
    5cd8:	91 81       	ldd	r25, Z+1	; 0x01
    5cda:	6c ee       	ldi	r22, 0xEC	; 236
    5cdc:	75 e0       	ldi	r23, 0x05	; 5
    5cde:	4a e0       	ldi	r20, 0x0A	; 10
    5ce0:	50 e0       	ldi	r21, 0x00	; 0
    5ce2:	0e 94 de 3b 	call	0x77bc	; 0x77bc <utoa>
    5ce6:	8c ee       	ldi	r24, 0xEC	; 236
    5ce8:	95 e0       	ldi	r25, 0x05	; 5
    5cea:	0e 94 f0 0c 	call	0x19e0	; 0x19e0 <LCD_WriteString>
    5cee:	8b ef       	ldi	r24, 0xFB	; 251
    5cf0:	9c e0       	ldi	r25, 0x0C	; 12
    5cf2:	0e 94 04 0d 	call	0x1a08	; 0x1a08 <LCD_WriteString_P>
    5cf6:	80 91 cc 05 	lds	r24, 0x05CC
    5cfa:	90 e0       	ldi	r25, 0x00	; 0
    5cfc:	fc 01       	movw	r30, r24
    5cfe:	ee 0f       	add	r30, r30
    5d00:	ff 1f       	adc	r31, r31
    5d02:	ee 0f       	add	r30, r30
    5d04:	ff 1f       	adc	r31, r31
    5d06:	e8 0f       	add	r30, r24
    5d08:	f9 1f       	adc	r31, r25
    5d0a:	ec 0f       	add	r30, r28
    5d0c:	fd 1f       	adc	r31, r29
    5d0e:	ee 0f       	add	r30, r30
    5d10:	ff 1f       	adc	r31, r31
    5d12:	e0 55       	subi	r30, 0x50	; 80
    5d14:	f9 4f       	sbci	r31, 0xF9	; 249
    5d16:	80 81       	ld	r24, Z
    5d18:	91 81       	ldd	r25, Z+1	; 0x01
    5d1a:	6c ee       	ldi	r22, 0xEC	; 236
    5d1c:	75 e0       	ldi	r23, 0x05	; 5
    5d1e:	4a e0       	ldi	r20, 0x0A	; 10
    5d20:	50 e0       	ldi	r21, 0x00	; 0
    5d22:	0e 94 de 3b 	call	0x77bc	; 0x77bc <utoa>
    5d26:	8c ee       	ldi	r24, 0xEC	; 236
    5d28:	95 e0       	ldi	r25, 0x05	; 5
    5d2a:	0e 94 f0 0c 	call	0x19e0	; 0x19e0 <LCD_WriteString>
    5d2e:	80 91 cc 05 	lds	r24, 0x05CC
    5d32:	88 23       	and	r24, r24
    5d34:	29 f4       	brne	.+10     	; 0x5d40 <_hStickCentering+0x268>
    5d36:	c4 30       	cpi	r28, 0x04	; 4
    5d38:	19 f4       	brne	.+6      	; 0x5d40 <_hStickCentering+0x268>
    5d3a:	86 e0       	ldi	r24, 0x06	; 6
    5d3c:	9d e0       	ldi	r25, 0x0D	; 13
    5d3e:	45 c0       	rjmp	.+138    	; 0x5dca <_hStickCentering+0x2f2>
    5d40:	20 91 cc 05 	lds	r18, 0x05CC
    5d44:	80 91 cc 05 	lds	r24, 0x05CC
    5d48:	30 e0       	ldi	r19, 0x00	; 0
    5d4a:	d9 01       	movw	r26, r18
    5d4c:	aa 0f       	add	r26, r26
    5d4e:	bb 1f       	adc	r27, r27
    5d50:	aa 0f       	add	r26, r26
    5d52:	bb 1f       	adc	r27, r27
    5d54:	a2 0f       	add	r26, r18
    5d56:	b3 1f       	adc	r27, r19
    5d58:	ac 0f       	add	r26, r28
    5d5a:	bd 1f       	adc	r27, r29
    5d5c:	aa 0f       	add	r26, r26
    5d5e:	bb 1f       	adc	r27, r27
    5d60:	ad 5d       	subi	r26, 0xDD	; 221
    5d62:	b9 4f       	sbci	r27, 0xF9	; 249
    5d64:	90 e0       	ldi	r25, 0x00	; 0
    5d66:	fc 01       	movw	r30, r24
    5d68:	ee 0f       	add	r30, r30
    5d6a:	ff 1f       	adc	r31, r31
    5d6c:	ee 0f       	add	r30, r30
    5d6e:	ff 1f       	adc	r31, r31
    5d70:	e8 0f       	add	r30, r24
    5d72:	f9 1f       	adc	r31, r25
    5d74:	ec 0f       	add	r30, r28
    5d76:	fd 1f       	adc	r31, r29
    5d78:	ee 0f       	add	r30, r30
    5d7a:	ff 1f       	adc	r31, r31
    5d7c:	e0 55       	subi	r30, 0x50	; 80
    5d7e:	f9 4f       	sbci	r31, 0xF9	; 249
    5d80:	2d 91       	ld	r18, X+
    5d82:	3c 91       	ld	r19, X
    5d84:	11 97       	sbiw	r26, 0x01	; 1
    5d86:	80 81       	ld	r24, Z
    5d88:	91 81       	ldd	r25, Z+1	; 0x01
    5d8a:	28 17       	cp	r18, r24
    5d8c:	39 07       	cpc	r19, r25
    5d8e:	a0 f0       	brcs	.+40     	; 0x5db8 <_hStickCentering+0x2e0>
    5d90:	80 91 cc 05 	lds	r24, 0x05CC
    5d94:	90 e0       	ldi	r25, 0x00	; 0
    5d96:	fc 01       	movw	r30, r24
    5d98:	ee 0f       	add	r30, r30
    5d9a:	ff 1f       	adc	r31, r31
    5d9c:	ee 0f       	add	r30, r30
    5d9e:	ff 1f       	adc	r31, r31
    5da0:	e8 0f       	add	r30, r24
    5da2:	f9 1f       	adc	r31, r25
    5da4:	ec 0f       	add	r30, r28
    5da6:	fd 1f       	adc	r31, r29
    5da8:	ee 0f       	add	r30, r30
    5daa:	ff 1f       	adc	r31, r31
    5dac:	e0 55       	subi	r30, 0x50	; 80
    5dae:	f9 4f       	sbci	r31, 0xF9	; 249
    5db0:	80 81       	ld	r24, Z
    5db2:	91 81       	ldd	r25, Z+1	; 0x01
    5db4:	00 97       	sbiw	r24, 0x00	; 0
    5db6:	39 f4       	brne	.+14     	; 0x5dc6 <_hStickCentering+0x2ee>
    5db8:	8d ef       	ldi	r24, 0xFD	; 253
    5dba:	9c e0       	ldi	r25, 0x0C	; 12
    5dbc:	0e 94 04 0d 	call	0x1a08	; 0x1a08 <LCD_WriteString_P>
    5dc0:	10 93 20 08 	sts	0x0820, r17
    5dc4:	04 c0       	rjmp	.+8      	; 0x5dce <_hStickCentering+0x2f6>
    5dc6:	81 e0       	ldi	r24, 0x01	; 1
    5dc8:	9d e0       	ldi	r25, 0x0D	; 13
    5dca:	0e 94 04 0d 	call	0x1a08	; 0x1a08 <LCD_WriteString_P>
    5dce:	21 96       	adiw	r28, 0x01	; 1
    5dd0:	c5 30       	cpi	r28, 0x05	; 5
    5dd2:	d1 05       	cpc	r29, r1
    5dd4:	09 f0       	breq	.+2      	; 0x5dd8 <_hStickCentering+0x300>
    5dd6:	6a cf       	rjmp	.-300    	; 0x5cac <_hStickCentering+0x1d4>
    5dd8:	86 e0       	ldi	r24, 0x06	; 6
    5dda:	0e 94 33 2d 	call	0x5a66	; 0x5a66 <_helper_DisplayRXStatus>
    5dde:	df 91       	pop	r29
    5de0:	cf 91       	pop	r28
    5de2:	1f 91       	pop	r17
    5de4:	0f 91       	pop	r16
    5de6:	08 95       	ret

00005de8 <_hReceiverTest>:
    5de8:	0f 93       	push	r16
    5dea:	1f 93       	push	r17
    5dec:	cf 93       	push	r28
    5dee:	df 93       	push	r29
    5df0:	10 92 e7 05 	sts	0x05E7, r1
    5df4:	0e 94 b1 27 	call	0x4f62	; 0x4f62 <RX_CopyLatestReceiverValues>
    5df8:	c0 e0       	ldi	r28, 0x00	; 0
    5dfa:	d0 e0       	ldi	r29, 0x00	; 0
    5dfc:	ce 01       	movw	r24, r28
    5dfe:	8f 5f       	subi	r24, 0xFF	; 255
    5e00:	18 2f       	mov	r17, r24
    5e02:	68 e1       	ldi	r22, 0x18	; 24
    5e04:	0e 94 07 0c 	call	0x180e	; 0x180e <LCD_SetPos>
    5e08:	fe 01       	movw	r30, r28
    5e0a:	ee 0f       	add	r30, r30
    5e0c:	ff 1f       	adc	r31, r31
    5e0e:	ec 5f       	subi	r30, 0xFC	; 252
    5e10:	f9 4f       	sbci	r31, 0xF9	; 249
    5e12:	40 81       	ld	r20, Z
    5e14:	51 81       	ldd	r21, Z+1	; 0x01
    5e16:	80 91 d5 07 	lds	r24, 0x07D5
    5e1a:	90 e0       	ldi	r25, 0x00	; 0
    5e1c:	8f 70       	andi	r24, 0x0F	; 15
    5e1e:	90 70       	andi	r25, 0x00	; 0
    5e20:	01 e0       	ldi	r16, 0x01	; 1
    5e22:	00 97       	sbiw	r24, 0x00	; 0
    5e24:	09 f4       	brne	.+2      	; 0x5e28 <_hReceiverTest+0x40>
    5e26:	00 e0       	ldi	r16, 0x00	; 0
    5e28:	81 2f       	mov	r24, r17
    5e2a:	64 e2       	ldi	r22, 0x24	; 36
    5e2c:	25 e0       	ldi	r18, 0x05	; 5
    5e2e:	0e 94 fa 0d 	call	0x1bf4	; 0x1bf4 <LCD_WriteValue>
    5e32:	fe 01       	movw	r30, r28
    5e34:	ee 0f       	add	r30, r30
    5e36:	ff 1f       	adc	r31, r31
    5e38:	e2 5f       	subi	r30, 0xF2	; 242
    5e3a:	f9 4f       	sbci	r31, 0xF9	; 249
    5e3c:	40 81       	ld	r20, Z
    5e3e:	51 81       	ldd	r21, Z+1	; 0x01
    5e40:	80 91 d5 07 	lds	r24, 0x07D5
    5e44:	80 7f       	andi	r24, 0xF0	; 240
    5e46:	01 e0       	ldi	r16, 0x01	; 1
    5e48:	09 f4       	brne	.+2      	; 0x5e4c <_hReceiverTest+0x64>
    5e4a:	00 e0       	ldi	r16, 0x00	; 0
    5e4c:	81 2f       	mov	r24, r17
    5e4e:	64 e5       	ldi	r22, 0x54	; 84
    5e50:	25 e0       	ldi	r18, 0x05	; 5
    5e52:	0e 94 fa 0d 	call	0x1bf4	; 0x1bf4 <LCD_WriteValue>
    5e56:	21 96       	adiw	r28, 0x01	; 1
    5e58:	c5 30       	cpi	r28, 0x05	; 5
    5e5a:	d1 05       	cpc	r29, r1
    5e5c:	79 f6       	brne	.-98     	; 0x5dfc <_hReceiverTest+0x14>
    5e5e:	86 e0       	ldi	r24, 0x06	; 6
    5e60:	0e 94 33 2d 	call	0x5a66	; 0x5a66 <_helper_DisplayRXStatus>
    5e64:	df 91       	pop	r29
    5e66:	cf 91       	pop	r28
    5e68:	1f 91       	pop	r17
    5e6a:	0f 91       	pop	r16
    5e6c:	08 95       	ret

00005e6e <_helper_Words>:
    5e6e:	cf 92       	push	r12
    5e70:	ef 92       	push	r14
    5e72:	ff 92       	push	r15
    5e74:	0f 93       	push	r16
    5e76:	1f 93       	push	r17
    5e78:	94 2f       	mov	r25, r20
    5e7a:	32 2f       	mov	r19, r18
    5e7c:	2c 2d       	mov	r18, r12
    5e7e:	33 23       	and	r19, r19
    5e80:	11 f0       	breq	.+4      	; 0x5e86 <_helper_Words+0x18>
    5e82:	a8 01       	movw	r20, r16
    5e84:	01 c0       	rjmp	.+2      	; 0x5e88 <_helper_Words+0x1a>
    5e86:	a7 01       	movw	r20, r14
    5e88:	09 2f       	mov	r16, r25
    5e8a:	0e 94 8c 0d 	call	0x1b18	; 0x1b18 <LCD_WriteString_Pex>
    5e8e:	1f 91       	pop	r17
    5e90:	0f 91       	pop	r16
    5e92:	ff 90       	pop	r15
    5e94:	ef 90       	pop	r14
    5e96:	cf 90       	pop	r12
    5e98:	08 95       	ret

00005e9a <Menu_LoadPage>:
    5e9a:	1f 93       	push	r17
    5e9c:	18 2f       	mov	r17, r24
    5e9e:	66 e0       	ldi	r22, 0x06	; 6
    5ea0:	86 9f       	mul	r24, r22
    5ea2:	b0 01       	movw	r22, r0
    5ea4:	11 24       	eor	r1, r1
    5ea6:	6c 59       	subi	r22, 0x9C	; 156
    5ea8:	72 4f       	sbci	r23, 0xF2	; 242
    5eaa:	84 e4       	ldi	r24, 0x44	; 68
    5eac:	95 e0       	ldi	r25, 0x05	; 5
    5eae:	46 e0       	ldi	r20, 0x06	; 6
    5eb0:	50 e0       	ldi	r21, 0x00	; 0
    5eb2:	0e 94 82 3b 	call	0x7704	; 0x7704 <memcpy_P>
    5eb6:	10 93 35 05 	sts	0x0535, r17
    5eba:	1f 91       	pop	r17
    5ebc:	08 95       	ret

00005ebe <_hFactoryReset>:
    5ebe:	80 91 bc 05 	lds	r24, 0x05BC
    5ec2:	80 ff       	sbrs	r24, 0
    5ec4:	09 c0       	rjmp	.+18     	; 0x5ed8 <_hFactoryReset+0x1a>
    5ec6:	83 e0       	ldi	r24, 0x03	; 3
    5ec8:	62 e1       	ldi	r22, 0x12	; 18
    5eca:	0e 94 07 0c 	call	0x180e	; 0x180e <LCD_SetPos>
    5ece:	8d ee       	ldi	r24, 0xED	; 237
    5ed0:	9b e0       	ldi	r25, 0x0B	; 11
    5ed2:	0e 94 04 0d 	call	0x1a08	; 0x1a08 <LCD_WriteString_P>
    5ed6:	08 95       	ret
    5ed8:	84 ff       	sbrs	r24, 4
    5eda:	05 c0       	rjmp	.+10     	; 0x5ee6 <_hFactoryReset+0x28>
    5edc:	0e 94 d7 0f 	call	0x1fae	; 0x1fae <Save_Default_Config_to_EEPROM>
    5ee0:	84 e0       	ldi	r24, 0x04	; 4
    5ee2:	0e 94 4d 2f 	call	0x5e9a	; 0x5e9a <Menu_LoadPage>
    5ee6:	08 95       	ret

00005ee8 <_hESCCalibration>:
    5ee8:	80 91 bc 05 	lds	r24, 0x05BC
    5eec:	88 23       	and	r24, r24
    5eee:	c1 f0       	breq	.+48     	; 0x5f20 <_hESCCalibration+0x38>
    5ef0:	84 ff       	sbrs	r24, 4
    5ef2:	16 c0       	rjmp	.+44     	; 0x5f20 <_hESCCalibration+0x38>
    5ef4:	80 91 d2 06 	lds	r24, 0x06D2
    5ef8:	86 70       	andi	r24, 0x06	; 6
    5efa:	86 30       	cpi	r24, 0x06	; 6
    5efc:	61 f4       	brne	.+24     	; 0x5f16 <_hESCCalibration+0x2e>
    5efe:	82 e0       	ldi	r24, 0x02	; 2
    5f00:	80 93 4f 05 	sts	0x054F, r24
    5f04:	81 e0       	ldi	r24, 0x01	; 1
    5f06:	80 93 d7 06 	sts	0x06D7, r24
    5f0a:	0e 94 c7 0f 	call	0x1f8e	; 0x1f8e <Save_Config_to_EEPROM>
    5f0e:	84 e0       	ldi	r24, 0x04	; 4
    5f10:	0e 94 4d 2f 	call	0x5e9a	; 0x5e9a <Menu_LoadPage>
    5f14:	08 95       	ret
    5f16:	8e e1       	ldi	r24, 0x1E	; 30
    5f18:	90 e0       	ldi	r25, 0x00	; 0
    5f1a:	62 e0       	ldi	r22, 0x02	; 2
    5f1c:	0e 94 92 0e 	call	0x1d24	; 0x1d24 <LED_FlashOrangeLED>
    5f20:	08 95       	ret

00005f22 <_hHomeArmed>:
    5f22:	80 91 bc 05 	lds	r24, 0x05BC
    5f26:	80 ff       	sbrs	r24, 0
    5f28:	10 c0       	rjmp	.+32     	; 0x5f4a <_hHomeArmed+0x28>
    5f2a:	89 e4       	ldi	r24, 0x49	; 73
    5f2c:	91 e0       	ldi	r25, 0x01	; 1
    5f2e:	0e 94 5b 0e 	call	0x1cb6	; 0x1cb6 <LCD_SelectFont>
    5f32:	80 e0       	ldi	r24, 0x00	; 0
    5f34:	60 e0       	ldi	r22, 0x00	; 0
    5f36:	0e 94 07 0c 	call	0x180e	; 0x180e <LCD_SetPos>
    5f3a:	89 e0       	ldi	r24, 0x09	; 9
    5f3c:	9d e0       	ldi	r25, 0x0D	; 13
    5f3e:	0e 94 04 0d 	call	0x1a08	; 0x1a08 <LCD_WriteString_P>
    5f42:	80 e0       	ldi	r24, 0x00	; 0
    5f44:	90 e0       	ldi	r25, 0x00	; 0
    5f46:	0e 94 5b 0e 	call	0x1cb6	; 0x1cb6 <LCD_SelectFont>
    5f4a:	80 91 bc 05 	lds	r24, 0x05BC
    5f4e:	84 ff       	sbrs	r24, 4
    5f50:	03 c0       	rjmp	.+6      	; 0x5f58 <_hHomeArmed+0x36>
    5f52:	81 e0       	ldi	r24, 0x01	; 1
    5f54:	0e 94 4d 2f 	call	0x5e9a	; 0x5e9a <Menu_LoadPage>
    5f58:	08 95       	ret

00005f5a <_hHomePage>:
    5f5a:	cf 92       	push	r12
    5f5c:	ef 92       	push	r14
    5f5e:	ff 92       	push	r15
    5f60:	0f 93       	push	r16
    5f62:	1f 93       	push	r17
    5f64:	80 91 bc 05 	lds	r24, 0x05BC
    5f68:	80 ff       	sbrs	r24, 0
    5f6a:	31 c0       	rjmp	.+98     	; 0x5fce <_hHomePage+0x74>
    5f6c:	80 e0       	ldi	r24, 0x00	; 0
    5f6e:	60 e0       	ldi	r22, 0x00	; 0
    5f70:	0e 94 07 0c 	call	0x180e	; 0x180e <LCD_SetPos>
    5f74:	8f e0       	ldi	r24, 0x0F	; 15
    5f76:	9d e0       	ldi	r25, 0x0D	; 13
    5f78:	0e 94 04 0d 	call	0x1a08	; 0x1a08 <LCD_WriteString_P>
    5f7c:	80 91 d2 06 	lds	r24, 0x06D2
    5f80:	01 e0       	ldi	r16, 0x01	; 1
    5f82:	82 ff       	sbrs	r24, 2
    5f84:	00 e0       	ldi	r16, 0x00	; 0
    5f86:	85 e0       	ldi	r24, 0x05	; 5
    5f88:	6c e3       	ldi	r22, 0x3C	; 60
    5f8a:	43 e2       	ldi	r20, 0x23	; 35
    5f8c:	5d e0       	ldi	r21, 0x0D	; 13
    5f8e:	2d ef       	ldi	r18, 0xFD	; 253
    5f90:	3c e0       	ldi	r19, 0x0C	; 12
    5f92:	ee 24       	eor	r14, r14
    5f94:	0e 94 fe 2c 	call	0x59fc	; 0x59fc <_helper_DisplayBiStateText>
    5f98:	00 91 d2 06 	lds	r16, 0x06D2
    5f9c:	10 e0       	ldi	r17, 0x00	; 0
    5f9e:	01 70       	andi	r16, 0x01	; 1
    5fa0:	10 70       	andi	r17, 0x00	; 0
    5fa2:	85 e0       	ldi	r24, 0x05	; 5
    5fa4:	66 e6       	ldi	r22, 0x66	; 102
    5fa6:	47 e2       	ldi	r20, 0x27	; 39
    5fa8:	5d e0       	ldi	r21, 0x0D	; 13
    5faa:	29 e2       	ldi	r18, 0x29	; 41
    5fac:	3d e0       	ldi	r19, 0x0D	; 13
    5fae:	0e 94 fe 2c 	call	0x59fc	; 0x59fc <_helper_DisplayBiStateText>
    5fb2:	80 91 d2 06 	lds	r24, 0x06D2
    5fb6:	01 e0       	ldi	r16, 0x01	; 1
    5fb8:	81 ff       	sbrs	r24, 1
    5fba:	00 e0       	ldi	r16, 0x00	; 0
    5fbc:	85 e0       	ldi	r24, 0x05	; 5
    5fbe:	62 e7       	ldi	r22, 0x72	; 114
    5fc0:	4b e2       	ldi	r20, 0x2B	; 43
    5fc2:	5d e0       	ldi	r21, 0x0D	; 13
    5fc4:	29 e2       	ldi	r18, 0x29	; 41
    5fc6:	3d e0       	ldi	r19, 0x0D	; 13
    5fc8:	ee 24       	eor	r14, r14
    5fca:	0e 94 fe 2c 	call	0x59fc	; 0x59fc <_helper_DisplayBiStateText>
    5fce:	80 91 bc 05 	lds	r24, 0x05BC
    5fd2:	84 ff       	sbrs	r24, 4
    5fd4:	04 c0       	rjmp	.+8      	; 0x5fde <_hHomePage+0x84>
    5fd6:	81 e0       	ldi	r24, 0x01	; 1
    5fd8:	0e 94 4d 2f 	call	0x5e9a	; 0x5e9a <Menu_LoadPage>
    5fdc:	94 c0       	rjmp	.+296    	; 0x6106 <_hHomePage+0x1ac>
    5fde:	0e 94 0e 2a 	call	0x541c	; 0x541c <Sensor_GetBattery>
    5fe2:	9c 01       	movw	r18, r24
    5fe4:	b9 01       	movw	r22, r18
    5fe6:	88 27       	eor	r24, r24
    5fe8:	77 fd       	sbrc	r23, 7
    5fea:	80 95       	com	r24
    5fec:	98 2f       	mov	r25, r24
    5fee:	0e 94 c2 39 	call	0x7384	; 0x7384 <__floatsisf>
    5ff2:	20 e0       	ldi	r18, 0x00	; 0
    5ff4:	30 e0       	ldi	r19, 0x00	; 0
    5ff6:	40 e2       	ldi	r20, 0x20	; 32
    5ff8:	51 e4       	ldi	r21, 0x41	; 65
    5ffa:	0e 94 27 39 	call	0x724e	; 0x724e <__divsf3>
    5ffe:	9b 01       	movw	r18, r22
    6000:	ac 01       	movw	r20, r24
    6002:	90 91 c5 06 	lds	r25, 0x06C5
    6006:	92 70       	andi	r25, 0x02	; 2
    6008:	82 e0       	ldi	r24, 0x02	; 2
    600a:	64 e2       	ldi	r22, 0x24	; 36
    600c:	08 e0       	ldi	r16, 0x08	; 8
    600e:	e9 2e       	mov	r14, r25
    6010:	0e 94 b1 0d 	call	0x1b62	; 0x1b62 <LCD_WriteValue_double_ex>
    6014:	83 e0       	ldi	r24, 0x03	; 3
    6016:	66 e0       	ldi	r22, 0x06	; 6
    6018:	0e 94 07 0c 	call	0x180e	; 0x180e <LCD_SetPos>
    601c:	80 91 1c 06 	lds	r24, 0x061C
    6020:	81 30       	cpi	r24, 0x01	; 1
    6022:	19 f4       	brne	.+6      	; 0x602a <_hHomePage+0xd0>
    6024:	8d e5       	ldi	r24, 0x5D	; 93
    6026:	9d e0       	ldi	r25, 0x0D	; 13
    6028:	09 c0       	rjmp	.+18     	; 0x603c <_hHomePage+0xe2>
    602a:	82 30       	cpi	r24, 0x02	; 2
    602c:	19 f4       	brne	.+6      	; 0x6034 <_hHomePage+0xda>
    602e:	86 e5       	ldi	r24, 0x56	; 86
    6030:	9d e0       	ldi	r25, 0x0D	; 13
    6032:	04 c0       	rjmp	.+8      	; 0x603c <_hHomePage+0xe2>
    6034:	84 30       	cpi	r24, 0x04	; 4
    6036:	21 f4       	brne	.+8      	; 0x6040 <_hHomePage+0xe6>
    6038:	8f e4       	ldi	r24, 0x4F	; 79
    603a:	9d e0       	ldi	r25, 0x0D	; 13
    603c:	0e 94 04 0d 	call	0x1a08	; 0x1a08 <LCD_WriteString_P>
    6040:	21 e0       	ldi	r18, 0x01	; 1
    6042:	80 91 d8 06 	lds	r24, 0x06D8
    6046:	81 30       	cpi	r24, 0x01	; 1
    6048:	09 f0       	breq	.+2      	; 0x604c <_hHomePage+0xf2>
    604a:	20 e0       	ldi	r18, 0x00	; 0
    604c:	83 e0       	ldi	r24, 0x03	; 3
    604e:	60 e3       	ldi	r22, 0x30	; 48
    6050:	40 e0       	ldi	r20, 0x00	; 0
    6052:	0a e4       	ldi	r16, 0x4A	; 74
    6054:	1d e0       	ldi	r17, 0x0D	; 13
    6056:	b5 e4       	ldi	r27, 0x45	; 69
    6058:	eb 2e       	mov	r14, r27
    605a:	bd e0       	ldi	r27, 0x0D	; 13
    605c:	fb 2e       	mov	r15, r27
    605e:	a5 e0       	ldi	r26, 0x05	; 5
    6060:	ca 2e       	mov	r12, r26
    6062:	0e 94 37 2f 	call	0x5e6e	; 0x5e6e <_helper_Words>
    6066:	21 e0       	ldi	r18, 0x01	; 1
    6068:	80 91 d3 06 	lds	r24, 0x06D3
    606c:	81 11       	cpse	r24, r1
    606e:	20 e0       	ldi	r18, 0x00	; 0
    6070:	83 e0       	ldi	r24, 0x03	; 3
    6072:	64 e5       	ldi	r22, 0x54	; 84
    6074:	40 e0       	ldi	r20, 0x00	; 0
    6076:	0f e3       	ldi	r16, 0x3F	; 63
    6078:	1d e0       	ldi	r17, 0x0D	; 13
    607a:	f9 e3       	ldi	r31, 0x39	; 57
    607c:	ef 2e       	mov	r14, r31
    607e:	fd e0       	ldi	r31, 0x0D	; 13
    6080:	ff 2e       	mov	r15, r31
    6082:	e5 e0       	ldi	r30, 0x05	; 5
    6084:	ce 2e       	mov	r12, r30
    6086:	0e 94 37 2f 	call	0x5e6e	; 0x5e6e <_helper_Words>
    608a:	85 e0       	ldi	r24, 0x05	; 5
    608c:	0e 94 33 2d 	call	0x5a66	; 0x5a66 <_helper_DisplayRXStatus>
    6090:	86 e0       	ldi	r24, 0x06	; 6
    6092:	68 e1       	ldi	r22, 0x18	; 24
    6094:	0e 94 07 0c 	call	0x180e	; 0x180e <LCD_SetPos>
    6098:	89 e4       	ldi	r24, 0x49	; 73
    609a:	91 e0       	ldi	r25, 0x01	; 1
    609c:	0e 94 5b 0e 	call	0x1cb6	; 0x1cb6 <LCD_SelectFont>
    60a0:	80 91 da 06 	lds	r24, 0x06DA
    60a4:	81 30       	cpi	r24, 0x01	; 1
    60a6:	51 f4       	brne	.+20     	; 0x60bc <_hHomePage+0x162>
    60a8:	80 91 d8 06 	lds	r24, 0x06D8
    60ac:	81 30       	cpi	r24, 0x01	; 1
    60ae:	19 f4       	brne	.+6      	; 0x60b6 <_hHomePage+0x15c>
    60b0:	87 e3       	ldi	r24, 0x37	; 55
    60b2:	9d e0       	ldi	r25, 0x0D	; 13
    60b4:	0c c0       	rjmp	.+24     	; 0x60ce <_hHomePage+0x174>
    60b6:	85 e3       	ldi	r24, 0x35	; 53
    60b8:	9d e0       	ldi	r25, 0x0D	; 13
    60ba:	09 c0       	rjmp	.+18     	; 0x60ce <_hHomePage+0x174>
    60bc:	80 91 d8 06 	lds	r24, 0x06D8
    60c0:	81 30       	cpi	r24, 0x01	; 1
    60c2:	19 f4       	brne	.+6      	; 0x60ca <_hHomePage+0x170>
    60c4:	83 e3       	ldi	r24, 0x33	; 51
    60c6:	9d e0       	ldi	r25, 0x0D	; 13
    60c8:	02 c0       	rjmp	.+4      	; 0x60ce <_hHomePage+0x174>
    60ca:	81 e3       	ldi	r24, 0x31	; 49
    60cc:	9d e0       	ldi	r25, 0x0D	; 13
    60ce:	0e 94 04 0d 	call	0x1a08	; 0x1a08 <LCD_WriteString_P>
    60d2:	86 e0       	ldi	r24, 0x06	; 6
    60d4:	60 e5       	ldi	r22, 0x50	; 80
    60d6:	0e 94 07 0c 	call	0x180e	; 0x180e <LCD_SetPos>
    60da:	89 e4       	ldi	r24, 0x49	; 73
    60dc:	91 e0       	ldi	r25, 0x01	; 1
    60de:	0e 94 5b 0e 	call	0x1cb6	; 0x1cb6 <LCD_SelectFont>
    60e2:	80 91 d9 06 	lds	r24, 0x06D9
    60e6:	81 30       	cpi	r24, 0x01	; 1
    60e8:	19 f4       	brne	.+6      	; 0x60f0 <_hHomePage+0x196>
    60ea:	8f e2       	ldi	r24, 0x2F	; 47
    60ec:	9d e0       	ldi	r25, 0x0D	; 13
    60ee:	02 c0       	rjmp	.+4      	; 0x60f4 <_hHomePage+0x19a>
    60f0:	8d e2       	ldi	r24, 0x2D	; 45
    60f2:	9d e0       	ldi	r25, 0x0D	; 13
    60f4:	0e 94 04 0d 	call	0x1a08	; 0x1a08 <LCD_WriteString_P>
    60f8:	80 e0       	ldi	r24, 0x00	; 0
    60fa:	90 e0       	ldi	r25, 0x00	; 0
    60fc:	0e 94 5b 0e 	call	0x1cb6	; 0x1cb6 <LCD_SelectFont>
    6100:	81 e0       	ldi	r24, 0x01	; 1
    6102:	80 93 e7 05 	sts	0x05E7, r24
    6106:	1f 91       	pop	r17
    6108:	0f 91       	pop	r16
    610a:	ff 90       	pop	r15
    610c:	ef 90       	pop	r14
    610e:	cf 90       	pop	r12
    6110:	08 95       	ret

00006112 <defaultHandler>:
    6112:	80 91 d2 07 	lds	r24, 0x07D2
    6116:	81 30       	cpi	r24, 0x01	; 1
    6118:	19 f4       	brne	.+6      	; 0x6120 <defaultHandler+0xe>
    611a:	0e 94 af 30 	call	0x615e	; 0x615e <editModeHandler>
    611e:	08 95       	ret
    6120:	80 91 bc 05 	lds	r24, 0x05BC
    6124:	90 e0       	ldi	r25, 0x00	; 0
    6126:	83 70       	andi	r24, 0x03	; 3
    6128:	90 70       	andi	r25, 0x00	; 0
    612a:	00 97       	sbiw	r24, 0x00	; 0
    612c:	81 f0       	breq	.+32     	; 0x614e <defaultHandler+0x3c>
    612e:	0e 94 3f 0c 	call	0x187e	; 0x187e <LCD_Clear>
    6132:	80 91 48 05 	lds	r24, 0x0548
    6136:	90 91 49 05 	lds	r25, 0x0549
    613a:	00 97       	sbiw	r24, 0x00	; 0
    613c:	11 f0       	breq	.+4      	; 0x6142 <defaultHandler+0x30>
    613e:	0e 94 04 0d 	call	0x1a08	; 0x1a08 <LCD_WriteString_P>
    6142:	80 91 44 05 	lds	r24, 0x0544
    6146:	90 91 45 05 	lds	r25, 0x0545
    614a:	0e 94 fb 2a 	call	0x55f6	; 0x55f6 <writeSoftkeys>
    614e:	e0 91 46 05 	lds	r30, 0x0546
    6152:	f0 91 47 05 	lds	r31, 0x0547
    6156:	30 97       	sbiw	r30, 0x00	; 0
    6158:	09 f0       	breq	.+2      	; 0x615c <defaultHandler+0x4a>
    615a:	09 95       	icall
    615c:	08 95       	ret

0000615e <editModeHandler>:
    615e:	0f 93       	push	r16
    6160:	80 91 bc 05 	lds	r24, 0x05BC
    6164:	84 ff       	sbrs	r24, 4
    6166:	23 c0       	rjmp	.+70     	; 0x61ae <editModeHandler+0x50>
    6168:	10 92 d2 07 	sts	0x07D2, r1
    616c:	82 e0       	ldi	r24, 0x02	; 2
    616e:	80 93 bc 05 	sts	0x05BC, r24
    6172:	80 91 d1 07 	lds	r24, 0x07D1
    6176:	82 30       	cpi	r24, 0x02	; 2
    6178:	11 f0       	breq	.+4      	; 0x617e <editModeHandler+0x20>
    617a:	81 30       	cpi	r24, 0x01	; 1
    617c:	41 f4       	brne	.+16     	; 0x618e <editModeHandler+0x30>
    617e:	e0 91 cf 07 	lds	r30, 0x07CF
    6182:	f0 91 d0 07 	lds	r31, 0x07D0
    6186:	80 91 d6 07 	lds	r24, 0x07D6
    618a:	80 83       	st	Z, r24
    618c:	58 c0       	rjmp	.+176    	; 0x623e <editModeHandler+0xe0>
    618e:	83 30       	cpi	r24, 0x03	; 3
    6190:	19 f0       	breq	.+6      	; 0x6198 <editModeHandler+0x3a>
    6192:	84 30       	cpi	r24, 0x04	; 4
    6194:	09 f0       	breq	.+2      	; 0x6198 <editModeHandler+0x3a>
    6196:	53 c0       	rjmp	.+166    	; 0x623e <editModeHandler+0xe0>
    6198:	e0 91 cf 07 	lds	r30, 0x07CF
    619c:	f0 91 d0 07 	lds	r31, 0x07D0
    61a0:	80 91 d6 07 	lds	r24, 0x07D6
    61a4:	90 91 d7 07 	lds	r25, 0x07D7
    61a8:	91 83       	std	Z+1, r25	; 0x01
    61aa:	80 83       	st	Z, r24
    61ac:	48 c0       	rjmp	.+144    	; 0x623e <editModeHandler+0xe0>
    61ae:	88 23       	and	r24, r24
    61b0:	09 f4       	brne	.+2      	; 0x61b4 <editModeHandler+0x56>
    61b2:	56 c0       	rjmp	.+172    	; 0x6260 <editModeHandler+0x102>
    61b4:	86 ff       	sbrs	r24, 6
    61b6:	1b c0       	rjmp	.+54     	; 0x61ee <editModeHandler+0x90>
    61b8:	20 91 cd 05 	lds	r18, 0x05CD
    61bc:	80 91 d6 07 	lds	r24, 0x07D6
    61c0:	90 91 d7 07 	lds	r25, 0x07D7
    61c4:	21 30       	cpi	r18, 0x01	; 1
    61c6:	11 f4       	brne	.+4      	; 0x61cc <editModeHandler+0x6e>
    61c8:	0a 97       	sbiw	r24, 0x0a	; 10
    61ca:	01 c0       	rjmp	.+2      	; 0x61ce <editModeHandler+0x70>
    61cc:	01 97       	sbiw	r24, 0x01	; 1
    61ce:	90 93 d7 07 	sts	0x07D7, r25
    61d2:	80 93 d6 07 	sts	0x07D6, r24
    61d6:	80 91 d3 07 	lds	r24, 0x07D3
    61da:	90 91 d4 07 	lds	r25, 0x07D4
    61de:	20 91 d6 07 	lds	r18, 0x07D6
    61e2:	30 91 d7 07 	lds	r19, 0x07D7
    61e6:	28 17       	cp	r18, r24
    61e8:	39 07       	cpc	r19, r25
    61ea:	84 f5       	brge	.+96     	; 0x624c <editModeHandler+0xee>
    61ec:	1c c0       	rjmp	.+56     	; 0x6226 <editModeHandler+0xc8>
    61ee:	85 ff       	sbrs	r24, 5
    61f0:	1f c0       	rjmp	.+62     	; 0x6230 <editModeHandler+0xd2>
    61f2:	20 91 cd 05 	lds	r18, 0x05CD
    61f6:	80 91 d6 07 	lds	r24, 0x07D6
    61fa:	90 91 d7 07 	lds	r25, 0x07D7
    61fe:	21 30       	cpi	r18, 0x01	; 1
    6200:	11 f4       	brne	.+4      	; 0x6206 <editModeHandler+0xa8>
    6202:	0a 96       	adiw	r24, 0x0a	; 10
    6204:	01 c0       	rjmp	.+2      	; 0x6208 <editModeHandler+0xaa>
    6206:	01 96       	adiw	r24, 0x01	; 1
    6208:	90 93 d7 07 	sts	0x07D7, r25
    620c:	80 93 d6 07 	sts	0x07D6, r24
    6210:	80 91 cd 07 	lds	r24, 0x07CD
    6214:	90 91 ce 07 	lds	r25, 0x07CE
    6218:	20 91 d6 07 	lds	r18, 0x07D6
    621c:	30 91 d7 07 	lds	r19, 0x07D7
    6220:	82 17       	cp	r24, r18
    6222:	93 07       	cpc	r25, r19
    6224:	9c f4       	brge	.+38     	; 0x624c <editModeHandler+0xee>
    6226:	90 93 d7 07 	sts	0x07D7, r25
    622a:	80 93 d6 07 	sts	0x07D6, r24
    622e:	0e c0       	rjmp	.+28     	; 0x624c <editModeHandler+0xee>
    6230:	87 ff       	sbrs	r24, 7
    6232:	0c c0       	rjmp	.+24     	; 0x624c <editModeHandler+0xee>
    6234:	10 92 d2 07 	sts	0x07D2, r1
    6238:	82 e0       	ldi	r24, 0x02	; 2
    623a:	80 93 bc 05 	sts	0x05BC, r24
    623e:	80 e0       	ldi	r24, 0x00	; 0
    6240:	90 e0       	ldi	r25, 0x00	; 0
    6242:	0e 94 5b 0e 	call	0x1cb6	; 0x1cb6 <LCD_SelectFont>
    6246:	0e 94 89 30 	call	0x6112	; 0x6112 <defaultHandler>
    624a:	0a c0       	rjmp	.+20     	; 0x6260 <editModeHandler+0x102>
    624c:	40 91 d6 07 	lds	r20, 0x07D6
    6250:	50 91 d7 07 	lds	r21, 0x07D7
    6254:	82 e0       	ldi	r24, 0x02	; 2
    6256:	62 e2       	ldi	r22, 0x22	; 34
    6258:	25 e0       	ldi	r18, 0x05	; 5
    625a:	0f ef       	ldi	r16, 0xFF	; 255
    625c:	0e 94 fa 0d 	call	0x1bf4	; 0x1bf4 <LCD_WriteValue>
    6260:	0f 91       	pop	r16
    6262:	08 95       	ret

00006264 <startEditMode>:
    6264:	0f 93       	push	r16
    6266:	fc 01       	movw	r30, r24
    6268:	81 e0       	ldi	r24, 0x01	; 1
    626a:	80 93 d2 07 	sts	0x07D2, r24
    626e:	80 93 bc 05 	sts	0x05BC, r24
    6272:	f0 93 d0 07 	sts	0x07D0, r31
    6276:	e0 93 cf 07 	sts	0x07CF, r30
    627a:	20 93 d1 07 	sts	0x07D1, r18
    627e:	22 30       	cpi	r18, 0x02	; 2
    6280:	31 f4       	brne	.+12     	; 0x628e <startEditMode+0x2a>
    6282:	80 81       	ld	r24, Z
    6284:	80 93 d6 07 	sts	0x07D6, r24
    6288:	10 92 d7 07 	sts	0x07D7, r1
    628c:	11 c0       	rjmp	.+34     	; 0x62b0 <startEditMode+0x4c>
    628e:	21 30       	cpi	r18, 0x01	; 1
    6290:	29 f4       	brne	.+10     	; 0x629c <startEditMode+0x38>
    6292:	80 81       	ld	r24, Z
    6294:	99 27       	eor	r25, r25
    6296:	87 fd       	sbrc	r24, 7
    6298:	90 95       	com	r25
    629a:	06 c0       	rjmp	.+12     	; 0x62a8 <startEditMode+0x44>
    629c:	23 30       	cpi	r18, 0x03	; 3
    629e:	11 f0       	breq	.+4      	; 0x62a4 <startEditMode+0x40>
    62a0:	24 30       	cpi	r18, 0x04	; 4
    62a2:	31 f4       	brne	.+12     	; 0x62b0 <startEditMode+0x4c>
    62a4:	80 81       	ld	r24, Z
    62a6:	91 81       	ldd	r25, Z+1	; 0x01
    62a8:	90 93 d7 07 	sts	0x07D7, r25
    62ac:	80 93 d6 07 	sts	0x07D6, r24
    62b0:	70 93 d4 07 	sts	0x07D4, r23
    62b4:	60 93 d3 07 	sts	0x07D3, r22
    62b8:	50 93 ce 07 	sts	0x07CE, r21
    62bc:	40 93 cd 07 	sts	0x07CD, r20
    62c0:	8e e1       	ldi	r24, 0x1E	; 30
    62c2:	6b e0       	ldi	r22, 0x0B	; 11
    62c4:	42 e6       	ldi	r20, 0x62	; 98
    62c6:	22 e2       	ldi	r18, 0x22	; 34
    62c8:	00 e0       	ldi	r16, 0x00	; 0
    62ca:	0e 94 3e 0c 	call	0x187c	; 0x187c <LCD_FillRectangle>
    62ce:	8e e1       	ldi	r24, 0x1E	; 30
    62d0:	6b e0       	ldi	r22, 0x0B	; 11
    62d2:	42 e6       	ldi	r20, 0x62	; 98
    62d4:	22 e2       	ldi	r18, 0x22	; 34
    62d6:	01 e0       	ldi	r16, 0x01	; 1
    62d8:	0e 94 3d 0c 	call	0x187a	; 0x187a <LCD_Rectangle>
    62dc:	8f e1       	ldi	r24, 0x1F	; 31
    62de:	6c e0       	ldi	r22, 0x0C	; 12
    62e0:	41 e6       	ldi	r20, 0x61	; 97
    62e2:	21 e2       	ldi	r18, 0x21	; 33
    62e4:	0e 94 3d 0c 	call	0x187a	; 0x187a <LCD_Rectangle>
    62e8:	82 e2       	ldi	r24, 0x22	; 34
    62ea:	9c e0       	ldi	r25, 0x0C	; 12
    62ec:	0e 94 fb 2a 	call	0x55f6	; 0x55f6 <writeSoftkeys>
    62f0:	89 e4       	ldi	r24, 0x49	; 73
    62f2:	91 e0       	ldi	r25, 0x01	; 1
    62f4:	0e 94 5b 0e 	call	0x1cb6	; 0x1cb6 <LCD_SelectFont>
    62f8:	0e 94 af 30 	call	0x615e	; 0x615e <editModeHandler>
    62fc:	0f 91       	pop	r16
    62fe:	08 95       	ret

00006300 <PageKey>:
    6300:	90 91 bc 05 	lds	r25, 0x05BC
    6304:	96 ff       	sbrs	r25, 6
    6306:	08 c0       	rjmp	.+16     	; 0x6318 <PageKey+0x18>
    6308:	60 91 36 05 	lds	r22, 0x0536
    630c:	61 11       	cpse	r22, r1
    630e:	86 2f       	mov	r24, r22
    6310:	81 50       	subi	r24, 0x01	; 1
    6312:	80 93 36 05 	sts	0x0536, r24
    6316:	08 95       	ret
    6318:	95 ff       	sbrs	r25, 5
    631a:	0c c0       	rjmp	.+24     	; 0x6334 <PageKey+0x34>
    631c:	20 91 36 05 	lds	r18, 0x0536
    6320:	30 e0       	ldi	r19, 0x00	; 0
    6322:	2f 5f       	subi	r18, 0xFF	; 255
    6324:	3f 4f       	sbci	r19, 0xFF	; 255
    6326:	68 2f       	mov	r22, r24
    6328:	c9 01       	movw	r24, r18
    632a:	70 e0       	ldi	r23, 0x00	; 0
    632c:	0e 94 44 3b 	call	0x7688	; 0x7688 <__divmodhi4>
    6330:	80 93 36 05 	sts	0x0536, r24
    6334:	08 95       	ret

00006336 <_hAltitudeHold>:
    6336:	0f 93       	push	r16
    6338:	80 91 bc 05 	lds	r24, 0x05BC
    633c:	88 23       	and	r24, r24
    633e:	09 f4       	brne	.+2      	; 0x6342 <_hAltitudeHold+0xc>
    6340:	a2 c0       	rjmp	.+324    	; 0x6486 <_hAltitudeHold+0x150>
    6342:	86 e0       	ldi	r24, 0x06	; 6
    6344:	0e 94 80 31 	call	0x6300	; 0x6300 <PageKey>
    6348:	20 91 bc 05 	lds	r18, 0x05BC
    634c:	24 ff       	sbrs	r18, 4
    634e:	36 c0       	rjmp	.+108    	; 0x63bc <_hAltitudeHold+0x86>
    6350:	81 e0       	ldi	r24, 0x01	; 1
    6352:	80 93 32 05 	sts	0x0532, r24
    6356:	8b ef       	ldi	r24, 0xFB	; 251
    6358:	9b e0       	ldi	r25, 0x0B	; 11
    635a:	90 93 45 05 	sts	0x0545, r25
    635e:	80 93 44 05 	sts	0x0544, r24
    6362:	80 91 36 05 	lds	r24, 0x0536
    6366:	82 30       	cpi	r24, 0x02	; 2
    6368:	a1 f0       	breq	.+40     	; 0x6392 <_hAltitudeHold+0x5c>
    636a:	83 30       	cpi	r24, 0x03	; 3
    636c:	28 f4       	brcc	.+10     	; 0x6378 <_hAltitudeHold+0x42>
    636e:	88 23       	and	r24, r24
    6370:	51 f0       	breq	.+20     	; 0x6386 <_hAltitudeHold+0x50>
    6372:	81 30       	cpi	r24, 0x01	; 1
    6374:	19 f5       	brne	.+70     	; 0x63bc <_hAltitudeHold+0x86>
    6376:	0a c0       	rjmp	.+20     	; 0x638c <_hAltitudeHold+0x56>
    6378:	84 30       	cpi	r24, 0x04	; 4
    637a:	89 f0       	breq	.+34     	; 0x639e <_hAltitudeHold+0x68>
    637c:	84 30       	cpi	r24, 0x04	; 4
    637e:	60 f0       	brcs	.+24     	; 0x6398 <_hAltitudeHold+0x62>
    6380:	85 30       	cpi	r24, 0x05	; 5
    6382:	e1 f4       	brne	.+56     	; 0x63bc <_hAltitudeHold+0x86>
    6384:	11 c0       	rjmp	.+34     	; 0x63a8 <_hAltitudeHold+0x72>
    6386:	83 e3       	ldi	r24, 0x33	; 51
    6388:	97 e0       	ldi	r25, 0x07	; 7
    638a:	0b c0       	rjmp	.+22     	; 0x63a2 <_hAltitudeHold+0x6c>
    638c:	85 e3       	ldi	r24, 0x35	; 53
    638e:	97 e0       	ldi	r25, 0x07	; 7
    6390:	0d c0       	rjmp	.+26     	; 0x63ac <_hAltitudeHold+0x76>
    6392:	87 e3       	ldi	r24, 0x37	; 55
    6394:	97 e0       	ldi	r25, 0x07	; 7
    6396:	05 c0       	rjmp	.+10     	; 0x63a2 <_hAltitudeHold+0x6c>
    6398:	89 e3       	ldi	r24, 0x39	; 57
    639a:	97 e0       	ldi	r25, 0x07	; 7
    639c:	07 c0       	rjmp	.+14     	; 0x63ac <_hAltitudeHold+0x76>
    639e:	8b e3       	ldi	r24, 0x3B	; 59
    63a0:	97 e0       	ldi	r25, 0x07	; 7
    63a2:	6c e0       	ldi	r22, 0x0C	; 12
    63a4:	7e ef       	ldi	r23, 0xFE	; 254
    63a6:	04 c0       	rjmp	.+8      	; 0x63b0 <_hAltitudeHold+0x7a>
    63a8:	8d e3       	ldi	r24, 0x3D	; 61
    63aa:	97 e0       	ldi	r25, 0x07	; 7
    63ac:	60 e0       	ldi	r22, 0x00	; 0
    63ae:	70 e0       	ldi	r23, 0x00	; 0
    63b0:	44 ef       	ldi	r20, 0xF4	; 244
    63b2:	51 e0       	ldi	r21, 0x01	; 1
    63b4:	23 e0       	ldi	r18, 0x03	; 3
    63b6:	0e 94 32 31 	call	0x6264	; 0x6264 <startEditMode>
    63ba:	65 c0       	rjmp	.+202    	; 0x6486 <_hAltitudeHold+0x150>
    63bc:	27 ff       	sbrs	r18, 7
    63be:	02 c0       	rjmp	.+4      	; 0x63c4 <_hAltitudeHold+0x8e>
    63c0:	0e 94 2a 2d 	call	0x5a54	; 0x5a54 <_helper_SaveinEEPROM_ifChanged>
    63c4:	40 91 33 07 	lds	r20, 0x0733
    63c8:	50 91 34 07 	lds	r21, 0x0734
    63cc:	01 e0       	ldi	r16, 0x01	; 1
    63ce:	80 91 36 05 	lds	r24, 0x0536
    63d2:	81 11       	cpse	r24, r1
    63d4:	00 e0       	ldi	r16, 0x00	; 0
    63d6:	81 e0       	ldi	r24, 0x01	; 1
    63d8:	6e e1       	ldi	r22, 0x1E	; 30
    63da:	23 e0       	ldi	r18, 0x03	; 3
    63dc:	0e 94 fa 0d 	call	0x1bf4	; 0x1bf4 <LCD_WriteValue>
    63e0:	40 91 35 07 	lds	r20, 0x0735
    63e4:	50 91 36 07 	lds	r21, 0x0736
    63e8:	01 e0       	ldi	r16, 0x01	; 1
    63ea:	80 91 36 05 	lds	r24, 0x0536
    63ee:	81 30       	cpi	r24, 0x01	; 1
    63f0:	09 f0       	breq	.+2      	; 0x63f4 <_hAltitudeHold+0xbe>
    63f2:	00 e0       	ldi	r16, 0x00	; 0
    63f4:	81 e0       	ldi	r24, 0x01	; 1
    63f6:	64 e5       	ldi	r22, 0x54	; 84
    63f8:	23 e0       	ldi	r18, 0x03	; 3
    63fa:	0e 94 fa 0d 	call	0x1bf4	; 0x1bf4 <LCD_WriteValue>
    63fe:	40 91 37 07 	lds	r20, 0x0737
    6402:	50 91 38 07 	lds	r21, 0x0738
    6406:	01 e0       	ldi	r16, 0x01	; 1
    6408:	80 91 36 05 	lds	r24, 0x0536
    640c:	82 30       	cpi	r24, 0x02	; 2
    640e:	09 f0       	breq	.+2      	; 0x6412 <_hAltitudeHold+0xdc>
    6410:	00 e0       	ldi	r16, 0x00	; 0
    6412:	82 e0       	ldi	r24, 0x02	; 2
    6414:	6e e1       	ldi	r22, 0x1E	; 30
    6416:	23 e0       	ldi	r18, 0x03	; 3
    6418:	0e 94 fa 0d 	call	0x1bf4	; 0x1bf4 <LCD_WriteValue>
    641c:	40 91 39 07 	lds	r20, 0x0739
    6420:	50 91 3a 07 	lds	r21, 0x073A
    6424:	01 e0       	ldi	r16, 0x01	; 1
    6426:	80 91 36 05 	lds	r24, 0x0536
    642a:	83 30       	cpi	r24, 0x03	; 3
    642c:	09 f0       	breq	.+2      	; 0x6430 <_hAltitudeHold+0xfa>
    642e:	00 e0       	ldi	r16, 0x00	; 0
    6430:	82 e0       	ldi	r24, 0x02	; 2
    6432:	64 e5       	ldi	r22, 0x54	; 84
    6434:	23 e0       	ldi	r18, 0x03	; 3
    6436:	0e 94 fa 0d 	call	0x1bf4	; 0x1bf4 <LCD_WriteValue>
    643a:	40 91 3b 07 	lds	r20, 0x073B
    643e:	50 91 3c 07 	lds	r21, 0x073C
    6442:	01 e0       	ldi	r16, 0x01	; 1
    6444:	80 91 36 05 	lds	r24, 0x0536
    6448:	84 30       	cpi	r24, 0x04	; 4
    644a:	09 f0       	breq	.+2      	; 0x644e <_hAltitudeHold+0x118>
    644c:	00 e0       	ldi	r16, 0x00	; 0
    644e:	83 e0       	ldi	r24, 0x03	; 3
    6450:	6e e1       	ldi	r22, 0x1E	; 30
    6452:	23 e0       	ldi	r18, 0x03	; 3
    6454:	0e 94 fa 0d 	call	0x1bf4	; 0x1bf4 <LCD_WriteValue>
    6458:	40 91 3d 07 	lds	r20, 0x073D
    645c:	50 91 3e 07 	lds	r21, 0x073E
    6460:	01 e0       	ldi	r16, 0x01	; 1
    6462:	80 91 36 05 	lds	r24, 0x0536
    6466:	85 30       	cpi	r24, 0x05	; 5
    6468:	09 f0       	breq	.+2      	; 0x646c <_hAltitudeHold+0x136>
    646a:	00 e0       	ldi	r16, 0x00	; 0
    646c:	83 e0       	ldi	r24, 0x03	; 3
    646e:	64 e5       	ldi	r22, 0x54	; 84
    6470:	23 e0       	ldi	r18, 0x03	; 3
    6472:	0e 94 fa 0d 	call	0x1bf4	; 0x1bf4 <LCD_WriteValue>
    6476:	85 e0       	ldi	r24, 0x05	; 5
    6478:	60 e0       	ldi	r22, 0x00	; 0
    647a:	41 e1       	ldi	r20, 0x11	; 17
    647c:	5c e0       	ldi	r21, 0x0C	; 12
    647e:	20 e1       	ldi	r18, 0x10	; 16
    6480:	00 e0       	ldi	r16, 0x00	; 0
    6482:	0e 94 8c 0d 	call	0x1b18	; 0x1b18 <LCD_WriteString_Pex>
    6486:	0f 91       	pop	r16
    6488:	08 95       	ret

0000648a <_hSelfLeveling>:
    648a:	0f 93       	push	r16
    648c:	80 91 bc 05 	lds	r24, 0x05BC
    6490:	88 23       	and	r24, r24
    6492:	09 f4       	brne	.+2      	; 0x6496 <_hSelfLeveling+0xc>
    6494:	f5 c1       	rjmp	.+1002   	; 0x6880 <_hSelfLeveling+0x3f6>
    6496:	8a e0       	ldi	r24, 0x0A	; 10
    6498:	0e 94 80 31 	call	0x6300	; 0x6300 <PageKey>
    649c:	80 91 37 05 	lds	r24, 0x0537
    64a0:	88 23       	and	r24, r24
    64a2:	31 f0       	breq	.+12     	; 0x64b0 <_hSelfLeveling+0x26>
    64a4:	80 91 36 05 	lds	r24, 0x0536
    64a8:	88 30       	cpi	r24, 0x08	; 8
    64aa:	10 f0       	brcs	.+4      	; 0x64b0 <_hSelfLeveling+0x26>
    64ac:	10 92 36 05 	sts	0x0536, r1
    64b0:	80 91 bc 05 	lds	r24, 0x05BC
    64b4:	84 ff       	sbrs	r24, 4
    64b6:	d7 c0       	rjmp	.+430    	; 0x6666 <_hSelfLeveling+0x1dc>
    64b8:	20 91 36 05 	lds	r18, 0x0536
    64bc:	22 23       	and	r18, r18
    64be:	19 f0       	breq	.+6      	; 0x64c6 <_hSelfLeveling+0x3c>
    64c0:	81 e0       	ldi	r24, 0x01	; 1
    64c2:	80 93 32 05 	sts	0x0532, r24
    64c6:	8b ef       	ldi	r24, 0xFB	; 251
    64c8:	9b e0       	ldi	r25, 0x0B	; 11
    64ca:	90 93 45 05 	sts	0x0545, r25
    64ce:	80 93 44 05 	sts	0x0544, r24
    64d2:	24 30       	cpi	r18, 0x04	; 4
    64d4:	09 f4       	brne	.+2      	; 0x64d8 <_hSelfLeveling+0x4e>
    64d6:	6f c0       	rjmp	.+222    	; 0x65b6 <_hSelfLeveling+0x12c>
    64d8:	25 30       	cpi	r18, 0x05	; 5
    64da:	58 f4       	brcc	.+22     	; 0x64f2 <_hSelfLeveling+0x68>
    64dc:	21 30       	cpi	r18, 0x01	; 1
    64de:	a1 f1       	breq	.+104    	; 0x6548 <_hSelfLeveling+0xbe>
    64e0:	21 30       	cpi	r18, 0x01	; 1
    64e2:	d0 f0       	brcs	.+52     	; 0x6518 <_hSelfLeveling+0x8e>
    64e4:	22 30       	cpi	r18, 0x02	; 2
    64e6:	09 f4       	brne	.+2      	; 0x64ea <_hSelfLeveling+0x60>
    64e8:	40 c0       	rjmp	.+128    	; 0x656a <_hSelfLeveling+0xe0>
    64ea:	23 30       	cpi	r18, 0x03	; 3
    64ec:	09 f0       	breq	.+2      	; 0x64f0 <_hSelfLeveling+0x66>
    64ee:	bb c0       	rjmp	.+374    	; 0x6666 <_hSelfLeveling+0x1dc>
    64f0:	51 c0       	rjmp	.+162    	; 0x6594 <_hSelfLeveling+0x10a>
    64f2:	27 30       	cpi	r18, 0x07	; 7
    64f4:	09 f4       	brne	.+2      	; 0x64f8 <_hSelfLeveling+0x6e>
    64f6:	94 c0       	rjmp	.+296    	; 0x6620 <_hSelfLeveling+0x196>
    64f8:	28 30       	cpi	r18, 0x08	; 8
    64fa:	38 f4       	brcc	.+14     	; 0x650a <_hSelfLeveling+0x80>
    64fc:	25 30       	cpi	r18, 0x05	; 5
    64fe:	09 f4       	brne	.+2      	; 0x6502 <_hSelfLeveling+0x78>
    6500:	6b c0       	rjmp	.+214    	; 0x65d8 <_hSelfLeveling+0x14e>
    6502:	26 30       	cpi	r18, 0x06	; 6
    6504:	09 f0       	breq	.+2      	; 0x6508 <_hSelfLeveling+0x7e>
    6506:	af c0       	rjmp	.+350    	; 0x6666 <_hSelfLeveling+0x1dc>
    6508:	7a c0       	rjmp	.+244    	; 0x65fe <_hSelfLeveling+0x174>
    650a:	28 30       	cpi	r18, 0x08	; 8
    650c:	09 f4       	brne	.+2      	; 0x6510 <_hSelfLeveling+0x86>
    650e:	9e c0       	rjmp	.+316    	; 0x664c <_hSelfLeveling+0x1c2>
    6510:	29 30       	cpi	r18, 0x09	; 9
    6512:	09 f0       	breq	.+2      	; 0x6516 <_hSelfLeveling+0x8c>
    6514:	a8 c0       	rjmp	.+336    	; 0x6666 <_hSelfLeveling+0x1dc>
    6516:	9d c0       	rjmp	.+314    	; 0x6652 <_hSelfLeveling+0x1c8>
    6518:	80 91 37 05 	lds	r24, 0x0537
    651c:	88 23       	and	r24, r24
    651e:	49 f4       	brne	.+18     	; 0x6532 <_hSelfLeveling+0xa8>
    6520:	81 e0       	ldi	r24, 0x01	; 1
    6522:	80 93 37 05 	sts	0x0537, r24
    6526:	85 e0       	ldi	r24, 0x05	; 5
    6528:	60 e0       	ldi	r22, 0x00	; 0
    652a:	42 e6       	ldi	r20, 0x62	; 98
    652c:	5c e0       	ldi	r21, 0x0C	; 12
    652e:	20 e1       	ldi	r18, 0x10	; 16
    6530:	07 c0       	rjmp	.+14     	; 0x6540 <_hSelfLeveling+0xb6>
    6532:	10 92 37 05 	sts	0x0537, r1
    6536:	85 e0       	ldi	r24, 0x05	; 5
    6538:	60 e0       	ldi	r22, 0x00	; 0
    653a:	44 e5       	ldi	r20, 0x54	; 84
    653c:	5c e0       	ldi	r21, 0x0C	; 12
    653e:	2d e0       	ldi	r18, 0x0D	; 13
    6540:	00 e0       	ldi	r16, 0x00	; 0
    6542:	0e 94 8c 0d 	call	0x1b18	; 0x1b18 <LCD_WriteString_Pex>
    6546:	8f c0       	rjmp	.+286    	; 0x6666 <_hSelfLeveling+0x1dc>
    6548:	80 91 37 05 	lds	r24, 0x0537
    654c:	90 e0       	ldi	r25, 0x00	; 0
    654e:	9c 01       	movw	r18, r24
    6550:	22 0f       	add	r18, r18
    6552:	33 1f       	adc	r19, r19
    6554:	c9 01       	movw	r24, r18
    6556:	e3 e0       	ldi	r30, 0x03	; 3
    6558:	88 0f       	add	r24, r24
    655a:	99 1f       	adc	r25, r25
    655c:	ea 95       	dec	r30
    655e:	e1 f7       	brne	.-8      	; 0x6558 <_hSelfLeveling+0xce>
    6560:	82 1b       	sub	r24, r18
    6562:	93 0b       	sbc	r25, r19
    6564:	87 5f       	subi	r24, 0xF7	; 247
    6566:	98 4f       	sbci	r25, 0xF8	; 248
    6568:	47 c0       	rjmp	.+142    	; 0x65f8 <_hSelfLeveling+0x16e>
    656a:	80 91 37 05 	lds	r24, 0x0537
    656e:	90 e0       	ldi	r25, 0x00	; 0
    6570:	9c 01       	movw	r18, r24
    6572:	22 0f       	add	r18, r18
    6574:	33 1f       	adc	r19, r19
    6576:	c9 01       	movw	r24, r18
    6578:	63 e0       	ldi	r22, 0x03	; 3
    657a:	88 0f       	add	r24, r24
    657c:	99 1f       	adc	r25, r25
    657e:	6a 95       	dec	r22
    6580:	e1 f7       	brne	.-8      	; 0x657a <_hSelfLeveling+0xf0>
    6582:	82 1b       	sub	r24, r18
    6584:	93 0b       	sbc	r25, r19
    6586:	85 5f       	subi	r24, 0xF5	; 245
    6588:	98 4f       	sbci	r25, 0xF8	; 248
    658a:	60 e0       	ldi	r22, 0x00	; 0
    658c:	70 e0       	ldi	r23, 0x00	; 0
    658e:	44 ef       	ldi	r20, 0xF4	; 244
    6590:	51 e0       	ldi	r21, 0x01	; 1
    6592:	5a c0       	rjmp	.+180    	; 0x6648 <_hSelfLeveling+0x1be>
    6594:	80 91 37 05 	lds	r24, 0x0537
    6598:	90 e0       	ldi	r25, 0x00	; 0
    659a:	9c 01       	movw	r18, r24
    659c:	22 0f       	add	r18, r18
    659e:	33 1f       	adc	r19, r19
    65a0:	c9 01       	movw	r24, r18
    65a2:	43 e0       	ldi	r20, 0x03	; 3
    65a4:	88 0f       	add	r24, r24
    65a6:	99 1f       	adc	r25, r25
    65a8:	4a 95       	dec	r20
    65aa:	e1 f7       	brne	.-8      	; 0x65a4 <_hSelfLeveling+0x11a>
    65ac:	82 1b       	sub	r24, r18
    65ae:	93 0b       	sbc	r25, r19
    65b0:	83 5f       	subi	r24, 0xF3	; 243
    65b2:	98 4f       	sbci	r25, 0xF8	; 248
    65b4:	21 c0       	rjmp	.+66     	; 0x65f8 <_hSelfLeveling+0x16e>
    65b6:	80 91 37 05 	lds	r24, 0x0537
    65ba:	90 e0       	ldi	r25, 0x00	; 0
    65bc:	9c 01       	movw	r18, r24
    65be:	22 0f       	add	r18, r18
    65c0:	33 1f       	adc	r19, r19
    65c2:	c9 01       	movw	r24, r18
    65c4:	b3 e0       	ldi	r27, 0x03	; 3
    65c6:	88 0f       	add	r24, r24
    65c8:	99 1f       	adc	r25, r25
    65ca:	ba 95       	dec	r27
    65cc:	e1 f7       	brne	.-8      	; 0x65c6 <_hSelfLeveling+0x13c>
    65ce:	82 1b       	sub	r24, r18
    65d0:	93 0b       	sbc	r25, r19
    65d2:	81 5f       	subi	r24, 0xF1	; 241
    65d4:	98 4f       	sbci	r25, 0xF8	; 248
    65d6:	d9 cf       	rjmp	.-78     	; 0x658a <_hSelfLeveling+0x100>
    65d8:	80 91 37 05 	lds	r24, 0x0537
    65dc:	90 e0       	ldi	r25, 0x00	; 0
    65de:	9c 01       	movw	r18, r24
    65e0:	22 0f       	add	r18, r18
    65e2:	33 1f       	adc	r19, r19
    65e4:	c9 01       	movw	r24, r18
    65e6:	f3 e0       	ldi	r31, 0x03	; 3
    65e8:	88 0f       	add	r24, r24
    65ea:	99 1f       	adc	r25, r25
    65ec:	fa 95       	dec	r31
    65ee:	e1 f7       	brne	.-8      	; 0x65e8 <_hSelfLeveling+0x15e>
    65f0:	82 1b       	sub	r24, r18
    65f2:	93 0b       	sbc	r25, r19
    65f4:	8f 5e       	subi	r24, 0xEF	; 239
    65f6:	98 4f       	sbci	r25, 0xF8	; 248
    65f8:	6c e0       	ldi	r22, 0x0C	; 12
    65fa:	7e ef       	ldi	r23, 0xFE	; 254
    65fc:	c8 cf       	rjmp	.-112    	; 0x658e <_hSelfLeveling+0x104>
    65fe:	80 91 37 05 	lds	r24, 0x0537
    6602:	90 e0       	ldi	r25, 0x00	; 0
    6604:	9c 01       	movw	r18, r24
    6606:	22 0f       	add	r18, r18
    6608:	33 1f       	adc	r19, r19
    660a:	c9 01       	movw	r24, r18
    660c:	73 e0       	ldi	r23, 0x03	; 3
    660e:	88 0f       	add	r24, r24
    6610:	99 1f       	adc	r25, r25
    6612:	7a 95       	dec	r23
    6614:	e1 f7       	brne	.-8      	; 0x660e <_hSelfLeveling+0x184>
    6616:	82 1b       	sub	r24, r18
    6618:	93 0b       	sbc	r25, r19
    661a:	8d 5e       	subi	r24, 0xED	; 237
    661c:	98 4f       	sbci	r25, 0xF8	; 248
    661e:	b5 cf       	rjmp	.-150    	; 0x658a <_hSelfLeveling+0x100>
    6620:	80 91 37 05 	lds	r24, 0x0537
    6624:	90 e0       	ldi	r25, 0x00	; 0
    6626:	9c 01       	movw	r18, r24
    6628:	22 0f       	add	r18, r18
    662a:	33 1f       	adc	r19, r19
    662c:	c9 01       	movw	r24, r18
    662e:	53 e0       	ldi	r21, 0x03	; 3
    6630:	88 0f       	add	r24, r24
    6632:	99 1f       	adc	r25, r25
    6634:	5a 95       	dec	r21
    6636:	e1 f7       	brne	.-8      	; 0x6630 <_hSelfLeveling+0x1a6>
    6638:	82 1b       	sub	r24, r18
    663a:	93 0b       	sbc	r25, r19
    663c:	8b 5e       	subi	r24, 0xEB	; 235
    663e:	98 4f       	sbci	r25, 0xF8	; 248
    6640:	60 e0       	ldi	r22, 0x00	; 0
    6642:	70 e0       	ldi	r23, 0x00	; 0
    6644:	47 ee       	ldi	r20, 0xE7	; 231
    6646:	53 e0       	ldi	r21, 0x03	; 3
    6648:	23 e0       	ldi	r18, 0x03	; 3
    664a:	0a c0       	rjmp	.+20     	; 0x6660 <_hSelfLeveling+0x1d6>
    664c:	82 e4       	ldi	r24, 0x42	; 66
    664e:	97 e0       	ldi	r25, 0x07	; 7
    6650:	02 c0       	rjmp	.+4      	; 0x6656 <_hSelfLeveling+0x1cc>
    6652:	83 e4       	ldi	r24, 0x43	; 67
    6654:	97 e0       	ldi	r25, 0x07	; 7
    6656:	67 ee       	ldi	r22, 0xE7	; 231
    6658:	7f ef       	ldi	r23, 0xFF	; 255
    665a:	49 e1       	ldi	r20, 0x19	; 25
    665c:	50 e0       	ldi	r21, 0x00	; 0
    665e:	21 e0       	ldi	r18, 0x01	; 1
    6660:	0e 94 32 31 	call	0x6264	; 0x6264 <startEditMode>
    6664:	0d c1       	rjmp	.+538    	; 0x6880 <_hSelfLeveling+0x3f6>
    6666:	80 91 bc 05 	lds	r24, 0x05BC
    666a:	87 ff       	sbrs	r24, 7
    666c:	02 c0       	rjmp	.+4      	; 0x6672 <_hSelfLeveling+0x1e8>
    666e:	0e 94 2a 2d 	call	0x5a54	; 0x5a54 <_helper_SaveinEEPROM_ifChanged>
    6672:	81 e0       	ldi	r24, 0x01	; 1
    6674:	90 91 36 05 	lds	r25, 0x0536
    6678:	91 11       	cpse	r25, r1
    667a:	80 e0       	ldi	r24, 0x00	; 0
    667c:	0e 94 12 0d 	call	0x1a24	; 0x1a24 <lcdReverse>
    6680:	80 91 37 05 	lds	r24, 0x0537
    6684:	88 23       	and	r24, r24
    6686:	39 f5       	brne	.+78     	; 0x66d6 <_hSelfLeveling+0x24c>
    6688:	8c ee       	ldi	r24, 0xEC	; 236
    668a:	95 e0       	ldi	r25, 0x05	; 5
    668c:	66 e4       	ldi	r22, 0x46	; 70
    668e:	7c e0       	ldi	r23, 0x0C	; 12
    6690:	0e 94 8b 3b 	call	0x7716	; 0x7716 <strcpy_P>
    6694:	40 91 42 07 	lds	r20, 0x0742
    6698:	55 27       	eor	r21, r21
    669a:	47 fd       	sbrc	r20, 7
    669c:	50 95       	com	r21
    669e:	01 e0       	ldi	r16, 0x01	; 1
    66a0:	80 91 36 05 	lds	r24, 0x0536
    66a4:	88 30       	cpi	r24, 0x08	; 8
    66a6:	09 f0       	breq	.+2      	; 0x66aa <_hSelfLeveling+0x220>
    66a8:	00 e0       	ldi	r16, 0x00	; 0
    66aa:	85 e0       	ldi	r24, 0x05	; 5
    66ac:	6a e2       	ldi	r22, 0x2A	; 42
    66ae:	23 e0       	ldi	r18, 0x03	; 3
    66b0:	0e 94 fa 0d 	call	0x1bf4	; 0x1bf4 <LCD_WriteValue>
    66b4:	40 91 43 07 	lds	r20, 0x0743
    66b8:	55 27       	eor	r21, r21
    66ba:	47 fd       	sbrc	r20, 7
    66bc:	50 95       	com	r21
    66be:	01 e0       	ldi	r16, 0x01	; 1
    66c0:	80 91 36 05 	lds	r24, 0x0536
    66c4:	89 30       	cpi	r24, 0x09	; 9
    66c6:	09 f0       	breq	.+2      	; 0x66ca <_hSelfLeveling+0x240>
    66c8:	00 e0       	ldi	r16, 0x00	; 0
    66ca:	85 e0       	ldi	r24, 0x05	; 5
    66cc:	6e e4       	ldi	r22, 0x4E	; 78
    66ce:	23 e0       	ldi	r18, 0x03	; 3
    66d0:	0e 94 fa 0d 	call	0x1bf4	; 0x1bf4 <LCD_WriteValue>
    66d4:	06 c0       	rjmp	.+12     	; 0x66e2 <_hSelfLeveling+0x258>
    66d6:	8c ee       	ldi	r24, 0xEC	; 236
    66d8:	95 e0       	ldi	r25, 0x05	; 5
    66da:	68 e3       	ldi	r22, 0x38	; 56
    66dc:	7c e0       	ldi	r23, 0x0C	; 12
    66de:	0e 94 8b 3b 	call	0x7716	; 0x7716 <strcpy_P>
    66e2:	21 e0       	ldi	r18, 0x01	; 1
    66e4:	80 91 36 05 	lds	r24, 0x0536
    66e8:	81 11       	cpse	r24, r1
    66ea:	20 e0       	ldi	r18, 0x00	; 0
    66ec:	80 e0       	ldi	r24, 0x00	; 0
    66ee:	60 e0       	ldi	r22, 0x00	; 0
    66f0:	4c ee       	ldi	r20, 0xEC	; 236
    66f2:	55 e0       	ldi	r21, 0x05	; 5
    66f4:	0e 94 1c 0d 	call	0x1a38	; 0x1a38 <LCD_WriteStringex>
    66f8:	80 91 37 05 	lds	r24, 0x0537
    66fc:	90 e0       	ldi	r25, 0x00	; 0
    66fe:	88 0f       	add	r24, r24
    6700:	99 1f       	adc	r25, r25
    6702:	fc 01       	movw	r30, r24
    6704:	33 e0       	ldi	r19, 0x03	; 3
    6706:	ee 0f       	add	r30, r30
    6708:	ff 1f       	adc	r31, r31
    670a:	3a 95       	dec	r19
    670c:	e1 f7       	brne	.-8      	; 0x6706 <_hSelfLeveling+0x27c>
    670e:	e8 1b       	sub	r30, r24
    6710:	f9 0b       	sbc	r31, r25
    6712:	ef 52       	subi	r30, 0x2F	; 47
    6714:	f9 4f       	sbci	r31, 0xF9	; 249
    6716:	40 ad       	ldd	r20, Z+56	; 0x38
    6718:	51 ad       	ldd	r21, Z+57	; 0x39
    671a:	01 e0       	ldi	r16, 0x01	; 1
    671c:	80 91 36 05 	lds	r24, 0x0536
    6720:	81 30       	cpi	r24, 0x01	; 1
    6722:	09 f0       	breq	.+2      	; 0x6726 <_hSelfLeveling+0x29c>
    6724:	00 e0       	ldi	r16, 0x00	; 0
    6726:	81 e0       	ldi	r24, 0x01	; 1
    6728:	6e e1       	ldi	r22, 0x1E	; 30
    672a:	23 e0       	ldi	r18, 0x03	; 3
    672c:	0e 94 fa 0d 	call	0x1bf4	; 0x1bf4 <LCD_WriteValue>
    6730:	80 91 37 05 	lds	r24, 0x0537
    6734:	90 e0       	ldi	r25, 0x00	; 0
    6736:	88 0f       	add	r24, r24
    6738:	99 1f       	adc	r25, r25
    673a:	fc 01       	movw	r30, r24
    673c:	03 e0       	ldi	r16, 0x03	; 3
    673e:	ee 0f       	add	r30, r30
    6740:	ff 1f       	adc	r31, r31
    6742:	0a 95       	dec	r16
    6744:	e1 f7       	brne	.-8      	; 0x673e <_hSelfLeveling+0x2b4>
    6746:	e8 1b       	sub	r30, r24
    6748:	f9 0b       	sbc	r31, r25
    674a:	ef 52       	subi	r30, 0x2F	; 47
    674c:	f9 4f       	sbci	r31, 0xF9	; 249
    674e:	42 ad       	ldd	r20, Z+58	; 0x3a
    6750:	53 ad       	ldd	r21, Z+59	; 0x3b
    6752:	01 e0       	ldi	r16, 0x01	; 1
    6754:	80 91 36 05 	lds	r24, 0x0536
    6758:	82 30       	cpi	r24, 0x02	; 2
    675a:	09 f0       	breq	.+2      	; 0x675e <_hSelfLeveling+0x2d4>
    675c:	00 e0       	ldi	r16, 0x00	; 0
    675e:	81 e0       	ldi	r24, 0x01	; 1
    6760:	64 e5       	ldi	r22, 0x54	; 84
    6762:	23 e0       	ldi	r18, 0x03	; 3
    6764:	0e 94 fa 0d 	call	0x1bf4	; 0x1bf4 <LCD_WriteValue>
    6768:	80 91 37 05 	lds	r24, 0x0537
    676c:	90 e0       	ldi	r25, 0x00	; 0
    676e:	88 0f       	add	r24, r24
    6770:	99 1f       	adc	r25, r25
    6772:	fc 01       	movw	r30, r24
    6774:	a3 e0       	ldi	r26, 0x03	; 3
    6776:	ee 0f       	add	r30, r30
    6778:	ff 1f       	adc	r31, r31
    677a:	aa 95       	dec	r26
    677c:	e1 f7       	brne	.-8      	; 0x6776 <_hSelfLeveling+0x2ec>
    677e:	e8 1b       	sub	r30, r24
    6780:	f9 0b       	sbc	r31, r25
    6782:	ef 52       	subi	r30, 0x2F	; 47
    6784:	f9 4f       	sbci	r31, 0xF9	; 249
    6786:	44 ad       	ldd	r20, Z+60	; 0x3c
    6788:	55 ad       	ldd	r21, Z+61	; 0x3d
    678a:	01 e0       	ldi	r16, 0x01	; 1
    678c:	80 91 36 05 	lds	r24, 0x0536
    6790:	83 30       	cpi	r24, 0x03	; 3
    6792:	09 f0       	breq	.+2      	; 0x6796 <_hSelfLeveling+0x30c>
    6794:	00 e0       	ldi	r16, 0x00	; 0
    6796:	82 e0       	ldi	r24, 0x02	; 2
    6798:	6e e1       	ldi	r22, 0x1E	; 30
    679a:	23 e0       	ldi	r18, 0x03	; 3
    679c:	0e 94 fa 0d 	call	0x1bf4	; 0x1bf4 <LCD_WriteValue>
    67a0:	80 91 37 05 	lds	r24, 0x0537
    67a4:	90 e0       	ldi	r25, 0x00	; 0
    67a6:	88 0f       	add	r24, r24
    67a8:	99 1f       	adc	r25, r25
    67aa:	fc 01       	movw	r30, r24
    67ac:	73 e0       	ldi	r23, 0x03	; 3
    67ae:	ee 0f       	add	r30, r30
    67b0:	ff 1f       	adc	r31, r31
    67b2:	7a 95       	dec	r23
    67b4:	e1 f7       	brne	.-8      	; 0x67ae <_hSelfLeveling+0x324>
    67b6:	e8 1b       	sub	r30, r24
    67b8:	f9 0b       	sbc	r31, r25
    67ba:	e1 5f       	subi	r30, 0xF1	; 241
    67bc:	f8 4f       	sbci	r31, 0xF8	; 248
    67be:	40 81       	ld	r20, Z
    67c0:	51 81       	ldd	r21, Z+1	; 0x01
    67c2:	01 e0       	ldi	r16, 0x01	; 1
    67c4:	80 91 36 05 	lds	r24, 0x0536
    67c8:	84 30       	cpi	r24, 0x04	; 4
    67ca:	09 f0       	breq	.+2      	; 0x67ce <_hSelfLeveling+0x344>
    67cc:	00 e0       	ldi	r16, 0x00	; 0
    67ce:	82 e0       	ldi	r24, 0x02	; 2
    67d0:	64 e5       	ldi	r22, 0x54	; 84
    67d2:	23 e0       	ldi	r18, 0x03	; 3
    67d4:	0e 94 fa 0d 	call	0x1bf4	; 0x1bf4 <LCD_WriteValue>
    67d8:	80 91 37 05 	lds	r24, 0x0537
    67dc:	90 e0       	ldi	r25, 0x00	; 0
    67de:	88 0f       	add	r24, r24
    67e0:	99 1f       	adc	r25, r25
    67e2:	fc 01       	movw	r30, r24
    67e4:	53 e0       	ldi	r21, 0x03	; 3
    67e6:	ee 0f       	add	r30, r30
    67e8:	ff 1f       	adc	r31, r31
    67ea:	5a 95       	dec	r21
    67ec:	e1 f7       	brne	.-8      	; 0x67e6 <_hSelfLeveling+0x35c>
    67ee:	e8 1b       	sub	r30, r24
    67f0:	f9 0b       	sbc	r31, r25
    67f2:	ef 5e       	subi	r30, 0xEF	; 239
    67f4:	f8 4f       	sbci	r31, 0xF8	; 248
    67f6:	40 81       	ld	r20, Z
    67f8:	51 81       	ldd	r21, Z+1	; 0x01
    67fa:	01 e0       	ldi	r16, 0x01	; 1
    67fc:	80 91 36 05 	lds	r24, 0x0536
    6800:	85 30       	cpi	r24, 0x05	; 5
    6802:	09 f0       	breq	.+2      	; 0x6806 <_hSelfLeveling+0x37c>
    6804:	00 e0       	ldi	r16, 0x00	; 0
    6806:	83 e0       	ldi	r24, 0x03	; 3
    6808:	6e e1       	ldi	r22, 0x1E	; 30
    680a:	23 e0       	ldi	r18, 0x03	; 3
    680c:	0e 94 fa 0d 	call	0x1bf4	; 0x1bf4 <LCD_WriteValue>
    6810:	80 91 37 05 	lds	r24, 0x0537
    6814:	90 e0       	ldi	r25, 0x00	; 0
    6816:	88 0f       	add	r24, r24
    6818:	99 1f       	adc	r25, r25
    681a:	fc 01       	movw	r30, r24
    681c:	33 e0       	ldi	r19, 0x03	; 3
    681e:	ee 0f       	add	r30, r30
    6820:	ff 1f       	adc	r31, r31
    6822:	3a 95       	dec	r19
    6824:	e1 f7       	brne	.-8      	; 0x681e <_hSelfLeveling+0x394>
    6826:	e8 1b       	sub	r30, r24
    6828:	f9 0b       	sbc	r31, r25
    682a:	ed 5e       	subi	r30, 0xED	; 237
    682c:	f8 4f       	sbci	r31, 0xF8	; 248
    682e:	40 81       	ld	r20, Z
    6830:	51 81       	ldd	r21, Z+1	; 0x01
    6832:	01 e0       	ldi	r16, 0x01	; 1
    6834:	80 91 36 05 	lds	r24, 0x0536
    6838:	86 30       	cpi	r24, 0x06	; 6
    683a:	09 f0       	breq	.+2      	; 0x683e <_hSelfLeveling+0x3b4>
    683c:	00 e0       	ldi	r16, 0x00	; 0
    683e:	83 e0       	ldi	r24, 0x03	; 3
    6840:	64 e5       	ldi	r22, 0x54	; 84
    6842:	23 e0       	ldi	r18, 0x03	; 3
    6844:	0e 94 fa 0d 	call	0x1bf4	; 0x1bf4 <LCD_WriteValue>
    6848:	80 91 37 05 	lds	r24, 0x0537
    684c:	90 e0       	ldi	r25, 0x00	; 0
    684e:	88 0f       	add	r24, r24
    6850:	99 1f       	adc	r25, r25
    6852:	fc 01       	movw	r30, r24
    6854:	03 e0       	ldi	r16, 0x03	; 3
    6856:	ee 0f       	add	r30, r30
    6858:	ff 1f       	adc	r31, r31
    685a:	0a 95       	dec	r16
    685c:	e1 f7       	brne	.-8      	; 0x6856 <_hSelfLeveling+0x3cc>
    685e:	e8 1b       	sub	r30, r24
    6860:	f9 0b       	sbc	r31, r25
    6862:	eb 5e       	subi	r30, 0xEB	; 235
    6864:	f8 4f       	sbci	r31, 0xF8	; 248
    6866:	40 81       	ld	r20, Z
    6868:	51 81       	ldd	r21, Z+1	; 0x01
    686a:	01 e0       	ldi	r16, 0x01	; 1
    686c:	80 91 36 05 	lds	r24, 0x0536
    6870:	87 30       	cpi	r24, 0x07	; 7
    6872:	09 f0       	breq	.+2      	; 0x6876 <_hSelfLeveling+0x3ec>
    6874:	00 e0       	ldi	r16, 0x00	; 0
    6876:	84 e0       	ldi	r24, 0x04	; 4
    6878:	64 e5       	ldi	r22, 0x54	; 84
    687a:	23 e0       	ldi	r18, 0x03	; 3
    687c:	0e 94 fa 0d 	call	0x1bf4	; 0x1bf4 <LCD_WriteValue>
    6880:	0f 91       	pop	r16
    6882:	08 95       	ret

00006884 <_hStabilization>:
    6884:	ef 92       	push	r14
    6886:	0f 93       	push	r16
    6888:	80 91 bc 05 	lds	r24, 0x05BC
    688c:	88 23       	and	r24, r24
    688e:	09 f4       	brne	.+2      	; 0x6892 <_hStabilization+0xe>
    6890:	e8 c1       	rjmp	.+976    	; 0x6c62 <_hStabilization+0x3de>
    6892:	89 e0       	ldi	r24, 0x09	; 9
    6894:	0e 94 80 31 	call	0x6300	; 0x6300 <PageKey>
    6898:	80 91 bc 05 	lds	r24, 0x05BC
    689c:	84 ff       	sbrs	r24, 4
    689e:	bc c0       	rjmp	.+376    	; 0x6a18 <_hStabilization+0x194>
    68a0:	20 91 36 05 	lds	r18, 0x0536
    68a4:	22 23       	and	r18, r18
    68a6:	19 f0       	breq	.+6      	; 0x68ae <_hStabilization+0x2a>
    68a8:	81 e0       	ldi	r24, 0x01	; 1
    68aa:	80 93 32 05 	sts	0x0532, r24
    68ae:	8b ef       	ldi	r24, 0xFB	; 251
    68b0:	9b e0       	ldi	r25, 0x0B	; 11
    68b2:	90 93 45 05 	sts	0x0545, r25
    68b6:	80 93 44 05 	sts	0x0544, r24
    68ba:	24 30       	cpi	r18, 0x04	; 4
    68bc:	09 f4       	brne	.+2      	; 0x68c0 <_hStabilization+0x3c>
    68be:	54 c0       	rjmp	.+168    	; 0x6968 <_hStabilization+0xe4>
    68c0:	25 30       	cpi	r18, 0x05	; 5
    68c2:	50 f4       	brcc	.+20     	; 0x68d8 <_hStabilization+0x54>
    68c4:	21 30       	cpi	r18, 0x01	; 1
    68c6:	d1 f0       	breq	.+52     	; 0x68fc <_hStabilization+0x78>
    68c8:	21 30       	cpi	r18, 0x01	; 1
    68ca:	98 f0       	brcs	.+38     	; 0x68f2 <_hStabilization+0x6e>
    68cc:	22 30       	cpi	r18, 0x02	; 2
    68ce:	41 f1       	breq	.+80     	; 0x6920 <_hStabilization+0x9c>
    68d0:	23 30       	cpi	r18, 0x03	; 3
    68d2:	09 f0       	breq	.+2      	; 0x68d6 <_hStabilization+0x52>
    68d4:	a1 c0       	rjmp	.+322    	; 0x6a18 <_hStabilization+0x194>
    68d6:	35 c0       	rjmp	.+106    	; 0x6942 <_hStabilization+0xbe>
    68d8:	26 30       	cpi	r18, 0x06	; 6
    68da:	09 f4       	brne	.+2      	; 0x68de <_hStabilization+0x5a>
    68dc:	67 c0       	rjmp	.+206    	; 0x69ac <_hStabilization+0x128>
    68de:	26 30       	cpi	r18, 0x06	; 6
    68e0:	08 f4       	brcc	.+2      	; 0x68e4 <_hStabilization+0x60>
    68e2:	53 c0       	rjmp	.+166    	; 0x698a <_hStabilization+0x106>
    68e4:	27 30       	cpi	r18, 0x07	; 7
    68e6:	09 f4       	brne	.+2      	; 0x68ea <_hStabilization+0x66>
    68e8:	76 c0       	rjmp	.+236    	; 0x69d6 <_hStabilization+0x152>
    68ea:	28 30       	cpi	r18, 0x08	; 8
    68ec:	09 f0       	breq	.+2      	; 0x68f0 <_hStabilization+0x6c>
    68ee:	94 c0       	rjmp	.+296    	; 0x6a18 <_hStabilization+0x194>
    68f0:	8a c0       	rjmp	.+276    	; 0x6a06 <_hStabilization+0x182>
    68f2:	87 e3       	ldi	r24, 0x37	; 55
    68f4:	95 e0       	ldi	r25, 0x05	; 5
    68f6:	0e 94 ec 2c 	call	0x59d8	; 0x59d8 <_helper_SwitchPitchRollYaw>
    68fa:	8e c0       	rjmp	.+284    	; 0x6a18 <_hStabilization+0x194>
    68fc:	20 91 37 05 	lds	r18, 0x0537
    6900:	30 e0       	ldi	r19, 0x00	; 0
    6902:	2f 5f       	subi	r18, 0xFF	; 255
    6904:	3f 4f       	sbci	r19, 0xFF	; 255
    6906:	22 0f       	add	r18, r18
    6908:	33 1f       	adc	r19, r19
    690a:	c9 01       	movw	r24, r18
    690c:	63 e0       	ldi	r22, 0x03	; 3
    690e:	88 0f       	add	r24, r24
    6910:	99 1f       	adc	r25, r25
    6912:	6a 95       	dec	r22
    6914:	e1 f7       	brne	.-8      	; 0x690e <_hStabilization+0x8a>
    6916:	82 1b       	sub	r24, r18
    6918:	93 0b       	sbc	r25, r19
    691a:	8f 52       	subi	r24, 0x2F	; 47
    691c:	99 4f       	sbci	r25, 0xF9	; 249
    691e:	21 c0       	rjmp	.+66     	; 0x6962 <_hStabilization+0xde>
    6920:	80 91 37 05 	lds	r24, 0x0537
    6924:	90 e0       	ldi	r25, 0x00	; 0
    6926:	9c 01       	movw	r18, r24
    6928:	22 0f       	add	r18, r18
    692a:	33 1f       	adc	r19, r19
    692c:	c9 01       	movw	r24, r18
    692e:	43 e0       	ldi	r20, 0x03	; 3
    6930:	88 0f       	add	r24, r24
    6932:	99 1f       	adc	r25, r25
    6934:	4a 95       	dec	r20
    6936:	e1 f7       	brne	.-8      	; 0x6930 <_hStabilization+0xac>
    6938:	82 1b       	sub	r24, r18
    693a:	93 0b       	sbc	r25, r19
    693c:	8f 51       	subi	r24, 0x1F	; 31
    693e:	99 4f       	sbci	r25, 0xF9	; 249
    6940:	45 c0       	rjmp	.+138    	; 0x69cc <_hStabilization+0x148>
    6942:	80 91 37 05 	lds	r24, 0x0537
    6946:	90 e0       	ldi	r25, 0x00	; 0
    6948:	9c 01       	movw	r18, r24
    694a:	22 0f       	add	r18, r18
    694c:	33 1f       	adc	r19, r19
    694e:	c9 01       	movw	r24, r18
    6950:	03 e0       	ldi	r16, 0x03	; 3
    6952:	88 0f       	add	r24, r24
    6954:	99 1f       	adc	r25, r25
    6956:	0a 95       	dec	r16
    6958:	e1 f7       	brne	.-8      	; 0x6952 <_hStabilization+0xce>
    695a:	82 1b       	sub	r24, r18
    695c:	93 0b       	sbc	r25, r19
    695e:	8d 51       	subi	r24, 0x1D	; 29
    6960:	99 4f       	sbci	r25, 0xF9	; 249
    6962:	6c e0       	ldi	r22, 0x0C	; 12
    6964:	7e ef       	ldi	r23, 0xFE	; 254
    6966:	34 c0       	rjmp	.+104    	; 0x69d0 <_hStabilization+0x14c>
    6968:	80 91 37 05 	lds	r24, 0x0537
    696c:	90 e0       	ldi	r25, 0x00	; 0
    696e:	9c 01       	movw	r18, r24
    6970:	22 0f       	add	r18, r18
    6972:	33 1f       	adc	r19, r19
    6974:	c9 01       	movw	r24, r18
    6976:	a3 e0       	ldi	r26, 0x03	; 3
    6978:	88 0f       	add	r24, r24
    697a:	99 1f       	adc	r25, r25
    697c:	aa 95       	dec	r26
    697e:	e1 f7       	brne	.-8      	; 0x6978 <_hStabilization+0xf4>
    6980:	82 1b       	sub	r24, r18
    6982:	93 0b       	sbc	r25, r19
    6984:	8b 51       	subi	r24, 0x1B	; 27
    6986:	99 4f       	sbci	r25, 0xF9	; 249
    6988:	21 c0       	rjmp	.+66     	; 0x69cc <_hStabilization+0x148>
    698a:	80 91 37 05 	lds	r24, 0x0537
    698e:	90 e0       	ldi	r25, 0x00	; 0
    6990:	9c 01       	movw	r18, r24
    6992:	22 0f       	add	r18, r18
    6994:	33 1f       	adc	r19, r19
    6996:	c9 01       	movw	r24, r18
    6998:	e3 e0       	ldi	r30, 0x03	; 3
    699a:	88 0f       	add	r24, r24
    699c:	99 1f       	adc	r25, r25
    699e:	ea 95       	dec	r30
    69a0:	e1 f7       	brne	.-8      	; 0x699a <_hStabilization+0x116>
    69a2:	82 1b       	sub	r24, r18
    69a4:	93 0b       	sbc	r25, r19
    69a6:	89 51       	subi	r24, 0x19	; 25
    69a8:	99 4f       	sbci	r25, 0xF9	; 249
    69aa:	db cf       	rjmp	.-74     	; 0x6962 <_hStabilization+0xde>
    69ac:	80 91 37 05 	lds	r24, 0x0537
    69b0:	90 e0       	ldi	r25, 0x00	; 0
    69b2:	9c 01       	movw	r18, r24
    69b4:	22 0f       	add	r18, r18
    69b6:	33 1f       	adc	r19, r19
    69b8:	c9 01       	movw	r24, r18
    69ba:	63 e0       	ldi	r22, 0x03	; 3
    69bc:	88 0f       	add	r24, r24
    69be:	99 1f       	adc	r25, r25
    69c0:	6a 95       	dec	r22
    69c2:	e1 f7       	brne	.-8      	; 0x69bc <_hStabilization+0x138>
    69c4:	82 1b       	sub	r24, r18
    69c6:	93 0b       	sbc	r25, r19
    69c8:	87 51       	subi	r24, 0x17	; 23
    69ca:	99 4f       	sbci	r25, 0xF9	; 249
    69cc:	60 e0       	ldi	r22, 0x00	; 0
    69ce:	70 e0       	ldi	r23, 0x00	; 0
    69d0:	44 ef       	ldi	r20, 0xF4	; 244
    69d2:	51 e0       	ldi	r21, 0x01	; 1
    69d4:	14 c0       	rjmp	.+40     	; 0x69fe <_hStabilization+0x17a>
    69d6:	80 91 37 05 	lds	r24, 0x0537
    69da:	90 e0       	ldi	r25, 0x00	; 0
    69dc:	9c 01       	movw	r18, r24
    69de:	22 0f       	add	r18, r18
    69e0:	33 1f       	adc	r19, r19
    69e2:	c9 01       	movw	r24, r18
    69e4:	43 e0       	ldi	r20, 0x03	; 3
    69e6:	88 0f       	add	r24, r24
    69e8:	99 1f       	adc	r25, r25
    69ea:	4a 95       	dec	r20
    69ec:	e1 f7       	brne	.-8      	; 0x69e6 <_hStabilization+0x162>
    69ee:	82 1b       	sub	r24, r18
    69f0:	93 0b       	sbc	r25, r19
    69f2:	85 51       	subi	r24, 0x15	; 21
    69f4:	99 4f       	sbci	r25, 0xF9	; 249
    69f6:	60 e0       	ldi	r22, 0x00	; 0
    69f8:	70 e0       	ldi	r23, 0x00	; 0
    69fa:	47 ee       	ldi	r20, 0xE7	; 231
    69fc:	53 e0       	ldi	r21, 0x03	; 3
    69fe:	23 e0       	ldi	r18, 0x03	; 3
    6a00:	0e 94 32 31 	call	0x6264	; 0x6264 <startEditMode>
    6a04:	2e c1       	rjmp	.+604    	; 0x6c62 <_hStabilization+0x3de>
    6a06:	80 91 88 07 	lds	r24, 0x0788
    6a0a:	81 30       	cpi	r24, 0x01	; 1
    6a0c:	11 f4       	brne	.+4      	; 0x6a12 <_hStabilization+0x18e>
    6a0e:	8f ef       	ldi	r24, 0xFF	; 255
    6a10:	01 c0       	rjmp	.+2      	; 0x6a14 <_hStabilization+0x190>
    6a12:	81 e0       	ldi	r24, 0x01	; 1
    6a14:	80 93 88 07 	sts	0x0788, r24
    6a18:	80 91 bc 05 	lds	r24, 0x05BC
    6a1c:	87 ff       	sbrs	r24, 7
    6a1e:	0e c0       	rjmp	.+28     	; 0x6a3c <_hStabilization+0x1b8>
    6a20:	0e 94 2a 2d 	call	0x5a54	; 0x5a54 <_helper_SaveinEEPROM_ifChanged>
    6a24:	80 91 89 07 	lds	r24, 0x0789
    6a28:	81 30       	cpi	r24, 0x01	; 1
    6a2a:	41 f4       	brne	.+16     	; 0x6a3c <_hStabilization+0x1b8>
    6a2c:	8d ee       	ldi	r24, 0xED	; 237
    6a2e:	96 e0       	ldi	r25, 0x06	; 6
    6a30:	6f ed       	ldi	r22, 0xDF	; 223
    6a32:	76 e0       	ldi	r23, 0x06	; 6
    6a34:	4a e2       	ldi	r20, 0x2A	; 42
    6a36:	50 e0       	ldi	r21, 0x00	; 0
    6a38:	0e 94 9b 3b 	call	0x7736	; 0x7736 <memccpy>
    6a3c:	81 e0       	ldi	r24, 0x01	; 1
    6a3e:	90 91 36 05 	lds	r25, 0x0536
    6a42:	91 11       	cpse	r25, r1
    6a44:	80 e0       	ldi	r24, 0x00	; 0
    6a46:	0e 94 12 0d 	call	0x1a24	; 0x1a24 <lcdReverse>
    6a4a:	80 91 37 05 	lds	r24, 0x0537
    6a4e:	0e 94 c9 2c 	call	0x5992	; 0x5992 <_helper_DisplayPitchRollYaw>
    6a52:	85 e0       	ldi	r24, 0x05	; 5
    6a54:	60 e0       	ldi	r22, 0x00	; 0
    6a56:	44 e8       	ldi	r20, 0x84	; 132
    6a58:	5c e0       	ldi	r21, 0x0C	; 12
    6a5a:	20 e1       	ldi	r18, 0x10	; 16
    6a5c:	00 e0       	ldi	r16, 0x00	; 0
    6a5e:	0e 94 8c 0d 	call	0x1b18	; 0x1b18 <LCD_WriteString_Pex>
    6a62:	80 91 37 05 	lds	r24, 0x0537
    6a66:	82 30       	cpi	r24, 0x02	; 2
    6a68:	61 f5       	brne	.+88     	; 0x6ac2 <_hStabilization+0x23e>
    6a6a:	80 91 d8 06 	lds	r24, 0x06D8
    6a6e:	82 30       	cpi	r24, 0x02	; 2
    6a70:	41 f5       	brne	.+80     	; 0x6ac2 <_hStabilization+0x23e>
    6a72:	21 e0       	ldi	r18, 0x01	; 1
    6a74:	80 91 36 05 	lds	r24, 0x0536
    6a78:	81 11       	cpse	r24, r1
    6a7a:	20 e0       	ldi	r18, 0x00	; 0
    6a7c:	80 e0       	ldi	r24, 0x00	; 0
    6a7e:	60 e0       	ldi	r22, 0x00	; 0
    6a80:	4c ee       	ldi	r20, 0xEC	; 236
    6a82:	55 e0       	ldi	r21, 0x05	; 5
    6a84:	0e 94 1c 0d 	call	0x1a38	; 0x1a38 <LCD_WriteStringex>
    6a88:	85 e0       	ldi	r24, 0x05	; 5
    6a8a:	60 e0       	ldi	r22, 0x00	; 0
    6a8c:	47 e7       	ldi	r20, 0x77	; 119
    6a8e:	5c e0       	ldi	r21, 0x0C	; 12
    6a90:	2c e0       	ldi	r18, 0x0C	; 12
    6a92:	00 e0       	ldi	r16, 0x00	; 0
    6a94:	0e 94 8c 0d 	call	0x1b18	; 0x1b18 <LCD_WriteString_Pex>
    6a98:	01 e0       	ldi	r16, 0x01	; 1
    6a9a:	80 91 88 07 	lds	r24, 0x0788
    6a9e:	81 30       	cpi	r24, 0x01	; 1
    6aa0:	09 f0       	breq	.+2      	; 0x6aa4 <_hStabilization+0x220>
    6aa2:	00 e0       	ldi	r16, 0x00	; 0
    6aa4:	91 e0       	ldi	r25, 0x01	; 1
    6aa6:	80 91 36 05 	lds	r24, 0x0536
    6aaa:	88 30       	cpi	r24, 0x08	; 8
    6aac:	09 f0       	breq	.+2      	; 0x6ab0 <_hStabilization+0x22c>
    6aae:	90 e0       	ldi	r25, 0x00	; 0
    6ab0:	85 e0       	ldi	r24, 0x05	; 5
    6ab2:	64 e5       	ldi	r22, 0x54	; 84
    6ab4:	45 e7       	ldi	r20, 0x75	; 117
    6ab6:	5c e0       	ldi	r21, 0x0C	; 12
    6ab8:	23 e7       	ldi	r18, 0x73	; 115
    6aba:	3c e0       	ldi	r19, 0x0C	; 12
    6abc:	e9 2e       	mov	r14, r25
    6abe:	0e 94 fe 2c 	call	0x59fc	; 0x59fc <_helper_DisplayBiStateText>
    6ac2:	21 e0       	ldi	r18, 0x01	; 1
    6ac4:	80 91 36 05 	lds	r24, 0x0536
    6ac8:	81 11       	cpse	r24, r1
    6aca:	20 e0       	ldi	r18, 0x00	; 0
    6acc:	80 e0       	ldi	r24, 0x00	; 0
    6ace:	60 e0       	ldi	r22, 0x00	; 0
    6ad0:	4c ee       	ldi	r20, 0xEC	; 236
    6ad2:	55 e0       	ldi	r21, 0x05	; 5
    6ad4:	0e 94 1c 0d 	call	0x1a38	; 0x1a38 <LCD_WriteStringex>
    6ad8:	80 91 37 05 	lds	r24, 0x0537
    6adc:	90 e0       	ldi	r25, 0x00	; 0
    6ade:	01 96       	adiw	r24, 0x01	; 1
    6ae0:	88 0f       	add	r24, r24
    6ae2:	99 1f       	adc	r25, r25
    6ae4:	fc 01       	movw	r30, r24
    6ae6:	03 e0       	ldi	r16, 0x03	; 3
    6ae8:	ee 0f       	add	r30, r30
    6aea:	ff 1f       	adc	r31, r31
    6aec:	0a 95       	dec	r16
    6aee:	e1 f7       	brne	.-8      	; 0x6ae8 <_hStabilization+0x264>
    6af0:	e8 1b       	sub	r30, r24
    6af2:	f9 0b       	sbc	r31, r25
    6af4:	ef 52       	subi	r30, 0x2F	; 47
    6af6:	f9 4f       	sbci	r31, 0xF9	; 249
    6af8:	40 81       	ld	r20, Z
    6afa:	51 81       	ldd	r21, Z+1	; 0x01
    6afc:	01 e0       	ldi	r16, 0x01	; 1
    6afe:	80 91 36 05 	lds	r24, 0x0536
    6b02:	81 30       	cpi	r24, 0x01	; 1
    6b04:	09 f0       	breq	.+2      	; 0x6b08 <_hStabilization+0x284>
    6b06:	00 e0       	ldi	r16, 0x00	; 0
    6b08:	81 e0       	ldi	r24, 0x01	; 1
    6b0a:	6e e1       	ldi	r22, 0x1E	; 30
    6b0c:	23 e0       	ldi	r18, 0x03	; 3
    6b0e:	0e 94 fa 0d 	call	0x1bf4	; 0x1bf4 <LCD_WriteValue>
    6b12:	80 91 37 05 	lds	r24, 0x0537
    6b16:	90 e0       	ldi	r25, 0x00	; 0
    6b18:	88 0f       	add	r24, r24
    6b1a:	99 1f       	adc	r25, r25
    6b1c:	fc 01       	movw	r30, r24
    6b1e:	a3 e0       	ldi	r26, 0x03	; 3
    6b20:	ee 0f       	add	r30, r30
    6b22:	ff 1f       	adc	r31, r31
    6b24:	aa 95       	dec	r26
    6b26:	e1 f7       	brne	.-8      	; 0x6b20 <_hStabilization+0x29c>
    6b28:	e8 1b       	sub	r30, r24
    6b2a:	f9 0b       	sbc	r31, r25
    6b2c:	ef 52       	subi	r30, 0x2F	; 47
    6b2e:	f9 4f       	sbci	r31, 0xF9	; 249
    6b30:	40 89       	ldd	r20, Z+16	; 0x10
    6b32:	51 89       	ldd	r21, Z+17	; 0x11
    6b34:	01 e0       	ldi	r16, 0x01	; 1
    6b36:	80 91 36 05 	lds	r24, 0x0536
    6b3a:	82 30       	cpi	r24, 0x02	; 2
    6b3c:	09 f0       	breq	.+2      	; 0x6b40 <_hStabilization+0x2bc>
    6b3e:	00 e0       	ldi	r16, 0x00	; 0
    6b40:	81 e0       	ldi	r24, 0x01	; 1
    6b42:	64 e5       	ldi	r22, 0x54	; 84
    6b44:	23 e0       	ldi	r18, 0x03	; 3
    6b46:	0e 94 fa 0d 	call	0x1bf4	; 0x1bf4 <LCD_WriteValue>
    6b4a:	80 91 37 05 	lds	r24, 0x0537
    6b4e:	90 e0       	ldi	r25, 0x00	; 0
    6b50:	88 0f       	add	r24, r24
    6b52:	99 1f       	adc	r25, r25
    6b54:	fc 01       	movw	r30, r24
    6b56:	73 e0       	ldi	r23, 0x03	; 3
    6b58:	ee 0f       	add	r30, r30
    6b5a:	ff 1f       	adc	r31, r31
    6b5c:	7a 95       	dec	r23
    6b5e:	e1 f7       	brne	.-8      	; 0x6b58 <_hStabilization+0x2d4>
    6b60:	e8 1b       	sub	r30, r24
    6b62:	f9 0b       	sbc	r31, r25
    6b64:	ef 52       	subi	r30, 0x2F	; 47
    6b66:	f9 4f       	sbci	r31, 0xF9	; 249
    6b68:	42 89       	ldd	r20, Z+18	; 0x12
    6b6a:	53 89       	ldd	r21, Z+19	; 0x13
    6b6c:	01 e0       	ldi	r16, 0x01	; 1
    6b6e:	80 91 36 05 	lds	r24, 0x0536
    6b72:	83 30       	cpi	r24, 0x03	; 3
    6b74:	09 f0       	breq	.+2      	; 0x6b78 <_hStabilization+0x2f4>
    6b76:	00 e0       	ldi	r16, 0x00	; 0
    6b78:	82 e0       	ldi	r24, 0x02	; 2
    6b7a:	6e e1       	ldi	r22, 0x1E	; 30
    6b7c:	23 e0       	ldi	r18, 0x03	; 3
    6b7e:	0e 94 fa 0d 	call	0x1bf4	; 0x1bf4 <LCD_WriteValue>
    6b82:	80 91 37 05 	lds	r24, 0x0537
    6b86:	90 e0       	ldi	r25, 0x00	; 0
    6b88:	88 0f       	add	r24, r24
    6b8a:	99 1f       	adc	r25, r25
    6b8c:	fc 01       	movw	r30, r24
    6b8e:	53 e0       	ldi	r21, 0x03	; 3
    6b90:	ee 0f       	add	r30, r30
    6b92:	ff 1f       	adc	r31, r31
    6b94:	5a 95       	dec	r21
    6b96:	e1 f7       	brne	.-8      	; 0x6b90 <_hStabilization+0x30c>
    6b98:	e8 1b       	sub	r30, r24
    6b9a:	f9 0b       	sbc	r31, r25
    6b9c:	ef 52       	subi	r30, 0x2F	; 47
    6b9e:	f9 4f       	sbci	r31, 0xF9	; 249
    6ba0:	44 89       	ldd	r20, Z+20	; 0x14
    6ba2:	55 89       	ldd	r21, Z+21	; 0x15
    6ba4:	01 e0       	ldi	r16, 0x01	; 1
    6ba6:	80 91 36 05 	lds	r24, 0x0536
    6baa:	84 30       	cpi	r24, 0x04	; 4
    6bac:	09 f0       	breq	.+2      	; 0x6bb0 <_hStabilization+0x32c>
    6bae:	00 e0       	ldi	r16, 0x00	; 0
    6bb0:	82 e0       	ldi	r24, 0x02	; 2
    6bb2:	64 e5       	ldi	r22, 0x54	; 84
    6bb4:	23 e0       	ldi	r18, 0x03	; 3
    6bb6:	0e 94 fa 0d 	call	0x1bf4	; 0x1bf4 <LCD_WriteValue>
    6bba:	80 91 37 05 	lds	r24, 0x0537
    6bbe:	90 e0       	ldi	r25, 0x00	; 0
    6bc0:	88 0f       	add	r24, r24
    6bc2:	99 1f       	adc	r25, r25
    6bc4:	fc 01       	movw	r30, r24
    6bc6:	33 e0       	ldi	r19, 0x03	; 3
    6bc8:	ee 0f       	add	r30, r30
    6bca:	ff 1f       	adc	r31, r31
    6bcc:	3a 95       	dec	r19
    6bce:	e1 f7       	brne	.-8      	; 0x6bc8 <_hStabilization+0x344>
    6bd0:	e8 1b       	sub	r30, r24
    6bd2:	f9 0b       	sbc	r31, r25
    6bd4:	ef 52       	subi	r30, 0x2F	; 47
    6bd6:	f9 4f       	sbci	r31, 0xF9	; 249
    6bd8:	46 89       	ldd	r20, Z+22	; 0x16
    6bda:	57 89       	ldd	r21, Z+23	; 0x17
    6bdc:	01 e0       	ldi	r16, 0x01	; 1
    6bde:	80 91 36 05 	lds	r24, 0x0536
    6be2:	85 30       	cpi	r24, 0x05	; 5
    6be4:	09 f0       	breq	.+2      	; 0x6be8 <_hStabilization+0x364>
    6be6:	00 e0       	ldi	r16, 0x00	; 0
    6be8:	83 e0       	ldi	r24, 0x03	; 3
    6bea:	6e e1       	ldi	r22, 0x1E	; 30
    6bec:	23 e0       	ldi	r18, 0x03	; 3
    6bee:	0e 94 fa 0d 	call	0x1bf4	; 0x1bf4 <LCD_WriteValue>
    6bf2:	80 91 37 05 	lds	r24, 0x0537
    6bf6:	90 e0       	ldi	r25, 0x00	; 0
    6bf8:	88 0f       	add	r24, r24
    6bfa:	99 1f       	adc	r25, r25
    6bfc:	fc 01       	movw	r30, r24
    6bfe:	03 e0       	ldi	r16, 0x03	; 3
    6c00:	ee 0f       	add	r30, r30
    6c02:	ff 1f       	adc	r31, r31
    6c04:	0a 95       	dec	r16
    6c06:	e1 f7       	brne	.-8      	; 0x6c00 <_hStabilization+0x37c>
    6c08:	e8 1b       	sub	r30, r24
    6c0a:	f9 0b       	sbc	r31, r25
    6c0c:	ef 52       	subi	r30, 0x2F	; 47
    6c0e:	f9 4f       	sbci	r31, 0xF9	; 249
    6c10:	40 8d       	ldd	r20, Z+24	; 0x18
    6c12:	51 8d       	ldd	r21, Z+25	; 0x19
    6c14:	01 e0       	ldi	r16, 0x01	; 1
    6c16:	80 91 36 05 	lds	r24, 0x0536
    6c1a:	86 30       	cpi	r24, 0x06	; 6
    6c1c:	09 f0       	breq	.+2      	; 0x6c20 <_hStabilization+0x39c>
    6c1e:	00 e0       	ldi	r16, 0x00	; 0
    6c20:	83 e0       	ldi	r24, 0x03	; 3
    6c22:	64 e5       	ldi	r22, 0x54	; 84
    6c24:	23 e0       	ldi	r18, 0x03	; 3
    6c26:	0e 94 fa 0d 	call	0x1bf4	; 0x1bf4 <LCD_WriteValue>
    6c2a:	80 91 37 05 	lds	r24, 0x0537
    6c2e:	90 e0       	ldi	r25, 0x00	; 0
    6c30:	88 0f       	add	r24, r24
    6c32:	99 1f       	adc	r25, r25
    6c34:	fc 01       	movw	r30, r24
    6c36:	a3 e0       	ldi	r26, 0x03	; 3
    6c38:	ee 0f       	add	r30, r30
    6c3a:	ff 1f       	adc	r31, r31
    6c3c:	aa 95       	dec	r26
    6c3e:	e1 f7       	brne	.-8      	; 0x6c38 <_hStabilization+0x3b4>
    6c40:	e8 1b       	sub	r30, r24
    6c42:	f9 0b       	sbc	r31, r25
    6c44:	ef 52       	subi	r30, 0x2F	; 47
    6c46:	f9 4f       	sbci	r31, 0xF9	; 249
    6c48:	42 8d       	ldd	r20, Z+26	; 0x1a
    6c4a:	53 8d       	ldd	r21, Z+27	; 0x1b
    6c4c:	01 e0       	ldi	r16, 0x01	; 1
    6c4e:	80 91 36 05 	lds	r24, 0x0536
    6c52:	87 30       	cpi	r24, 0x07	; 7
    6c54:	09 f0       	breq	.+2      	; 0x6c58 <_hStabilization+0x3d4>
    6c56:	00 e0       	ldi	r16, 0x00	; 0
    6c58:	84 e0       	ldi	r24, 0x04	; 4
    6c5a:	64 e5       	ldi	r22, 0x54	; 84
    6c5c:	23 e0       	ldi	r18, 0x03	; 3
    6c5e:	0e 94 fa 0d 	call	0x1bf4	; 0x1bf4 <LCD_WriteValue>
    6c62:	0f 91       	pop	r16
    6c64:	ef 90       	pop	r14
    6c66:	08 95       	ret

00006c68 <_hMiscSettings>:
    6c68:	cf 92       	push	r12
    6c6a:	ef 92       	push	r14
    6c6c:	ff 92       	push	r15
    6c6e:	0f 93       	push	r16
    6c70:	1f 93       	push	r17
    6c72:	80 91 bc 05 	lds	r24, 0x05BC
    6c76:	88 23       	and	r24, r24
    6c78:	09 f4       	brne	.+2      	; 0x6c7c <_hMiscSettings+0x14>
    6c7a:	99 c0       	rjmp	.+306    	; 0x6dae <_hMiscSettings+0x146>
    6c7c:	85 e0       	ldi	r24, 0x05	; 5
    6c7e:	0e 94 80 31 	call	0x6300	; 0x6300 <PageKey>
    6c82:	20 91 bc 05 	lds	r18, 0x05BC
    6c86:	24 ff       	sbrs	r18, 4
    6c88:	3f c0       	rjmp	.+126    	; 0x6d08 <_hMiscSettings+0xa0>
    6c8a:	81 e0       	ldi	r24, 0x01	; 1
    6c8c:	80 93 32 05 	sts	0x0532, r24
    6c90:	8b ef       	ldi	r24, 0xFB	; 251
    6c92:	9b e0       	ldi	r25, 0x0B	; 11
    6c94:	90 93 45 05 	sts	0x0545, r25
    6c98:	80 93 44 05 	sts	0x0544, r24
    6c9c:	80 91 36 05 	lds	r24, 0x0536
    6ca0:	82 30       	cpi	r24, 0x02	; 2
    6ca2:	d1 f0       	breq	.+52     	; 0x6cd8 <_hMiscSettings+0x70>
    6ca4:	83 30       	cpi	r24, 0x03	; 3
    6ca6:	28 f4       	brcc	.+10     	; 0x6cb2 <_hMiscSettings+0x4a>
    6ca8:	88 23       	and	r24, r24
    6caa:	41 f0       	breq	.+16     	; 0x6cbc <_hMiscSettings+0x54>
    6cac:	81 30       	cpi	r24, 0x01	; 1
    6cae:	61 f5       	brne	.+88     	; 0x6d08 <_hMiscSettings+0xa0>
    6cb0:	0c c0       	rjmp	.+24     	; 0x6cca <_hMiscSettings+0x62>
    6cb2:	83 30       	cpi	r24, 0x03	; 3
    6cb4:	c1 f0       	breq	.+48     	; 0x6ce6 <_hMiscSettings+0x7e>
    6cb6:	84 30       	cpi	r24, 0x04	; 4
    6cb8:	39 f5       	brne	.+78     	; 0x6d08 <_hMiscSettings+0xa0>
    6cba:	1f c0       	rjmp	.+62     	; 0x6cfa <_hMiscSettings+0x92>
    6cbc:	86 ed       	ldi	r24, 0xD6	; 214
    6cbe:	96 e0       	ldi	r25, 0x06	; 6
    6cc0:	60 e0       	ldi	r22, 0x00	; 0
    6cc2:	70 e0       	ldi	r23, 0x00	; 0
    6cc4:	4a e0       	ldi	r20, 0x0A	; 10
    6cc6:	50 e0       	ldi	r21, 0x00	; 0
    6cc8:	14 c0       	rjmp	.+40     	; 0x6cf2 <_hMiscSettings+0x8a>
    6cca:	81 e4       	ldi	r24, 0x41	; 65
    6ccc:	97 e0       	ldi	r25, 0x07	; 7
    6cce:	60 e0       	ldi	r22, 0x00	; 0
    6cd0:	70 e0       	ldi	r23, 0x00	; 0
    6cd2:	44 e6       	ldi	r20, 0x64	; 100
    6cd4:	50 e0       	ldi	r21, 0x00	; 0
    6cd6:	0d c0       	rjmp	.+26     	; 0x6cf2 <_hMiscSettings+0x8a>
    6cd8:	8c ed       	ldi	r24, 0xDC	; 220
    6cda:	96 e0       	ldi	r25, 0x06	; 6
    6cdc:	60 e0       	ldi	r22, 0x00	; 0
    6cde:	70 e0       	ldi	r23, 0x00	; 0
    6ce0:	4f ef       	ldi	r20, 0xFF	; 255
    6ce2:	50 e0       	ldi	r21, 0x00	; 0
    6ce4:	06 c0       	rjmp	.+12     	; 0x6cf2 <_hMiscSettings+0x8a>
    6ce6:	8d ed       	ldi	r24, 0xDD	; 221
    6ce8:	96 e0       	ldi	r25, 0x06	; 6
    6cea:	61 e0       	ldi	r22, 0x01	; 1
    6cec:	70 e0       	ldi	r23, 0x00	; 0
    6cee:	44 e1       	ldi	r20, 0x14	; 20
    6cf0:	50 e0       	ldi	r21, 0x00	; 0
    6cf2:	22 e0       	ldi	r18, 0x02	; 2
    6cf4:	0e 94 32 31 	call	0x6264	; 0x6264 <startEditMode>
    6cf8:	5a c0       	rjmp	.+180    	; 0x6dae <_hMiscSettings+0x146>
    6cfa:	90 91 89 07 	lds	r25, 0x0789
    6cfe:	81 e0       	ldi	r24, 0x01	; 1
    6d00:	90 fd       	sbrc	r25, 0
    6d02:	80 e0       	ldi	r24, 0x00	; 0
    6d04:	80 93 89 07 	sts	0x0789, r24
    6d08:	27 ff       	sbrs	r18, 7
    6d0a:	02 c0       	rjmp	.+4      	; 0x6d10 <_hMiscSettings+0xa8>
    6d0c:	0e 94 2a 2d 	call	0x5a54	; 0x5a54 <_helper_SaveinEEPROM_ifChanged>
    6d10:	40 91 d6 06 	lds	r20, 0x06D6
    6d14:	01 e0       	ldi	r16, 0x01	; 1
    6d16:	80 91 36 05 	lds	r24, 0x0536
    6d1a:	81 11       	cpse	r24, r1
    6d1c:	00 e0       	ldi	r16, 0x00	; 0
    6d1e:	80 e0       	ldi	r24, 0x00	; 0
    6d20:	64 e5       	ldi	r22, 0x54	; 84
    6d22:	50 e0       	ldi	r21, 0x00	; 0
    6d24:	23 e0       	ldi	r18, 0x03	; 3
    6d26:	0e 94 fa 0d 	call	0x1bf4	; 0x1bf4 <LCD_WriteValue>
    6d2a:	40 91 41 07 	lds	r20, 0x0741
    6d2e:	01 e0       	ldi	r16, 0x01	; 1
    6d30:	80 91 36 05 	lds	r24, 0x0536
    6d34:	81 30       	cpi	r24, 0x01	; 1
    6d36:	09 f0       	breq	.+2      	; 0x6d3a <_hMiscSettings+0xd2>
    6d38:	00 e0       	ldi	r16, 0x00	; 0
    6d3a:	81 e0       	ldi	r24, 0x01	; 1
    6d3c:	64 e5       	ldi	r22, 0x54	; 84
    6d3e:	50 e0       	ldi	r21, 0x00	; 0
    6d40:	23 e0       	ldi	r18, 0x03	; 3
    6d42:	0e 94 fa 0d 	call	0x1bf4	; 0x1bf4 <LCD_WriteValue>
    6d46:	40 91 dc 06 	lds	r20, 0x06DC
    6d4a:	01 e0       	ldi	r16, 0x01	; 1
    6d4c:	80 91 36 05 	lds	r24, 0x0536
    6d50:	82 30       	cpi	r24, 0x02	; 2
    6d52:	09 f0       	breq	.+2      	; 0x6d56 <_hMiscSettings+0xee>
    6d54:	00 e0       	ldi	r16, 0x00	; 0
    6d56:	82 e0       	ldi	r24, 0x02	; 2
    6d58:	64 e5       	ldi	r22, 0x54	; 84
    6d5a:	50 e0       	ldi	r21, 0x00	; 0
    6d5c:	23 e0       	ldi	r18, 0x03	; 3
    6d5e:	0e 94 fa 0d 	call	0x1bf4	; 0x1bf4 <LCD_WriteValue>
    6d62:	40 91 dd 06 	lds	r20, 0x06DD
    6d66:	01 e0       	ldi	r16, 0x01	; 1
    6d68:	80 91 36 05 	lds	r24, 0x0536
    6d6c:	83 30       	cpi	r24, 0x03	; 3
    6d6e:	09 f0       	breq	.+2      	; 0x6d72 <_hMiscSettings+0x10a>
    6d70:	00 e0       	ldi	r16, 0x00	; 0
    6d72:	83 e0       	ldi	r24, 0x03	; 3
    6d74:	64 e5       	ldi	r22, 0x54	; 84
    6d76:	50 e0       	ldi	r21, 0x00	; 0
    6d78:	23 e0       	ldi	r18, 0x03	; 3
    6d7a:	0e 94 fa 0d 	call	0x1bf4	; 0x1bf4 <LCD_WriteValue>
    6d7e:	41 e0       	ldi	r20, 0x01	; 1
    6d80:	80 91 36 05 	lds	r24, 0x0536
    6d84:	84 30       	cpi	r24, 0x04	; 4
    6d86:	09 f0       	breq	.+2      	; 0x6d8a <_hMiscSettings+0x122>
    6d88:	40 e0       	ldi	r20, 0x00	; 0
    6d8a:	21 e0       	ldi	r18, 0x01	; 1
    6d8c:	80 91 89 07 	lds	r24, 0x0789
    6d90:	88 23       	and	r24, r24
    6d92:	09 f4       	brne	.+2      	; 0x6d96 <_hMiscSettings+0x12e>
    6d94:	20 e0       	ldi	r18, 0x00	; 0
    6d96:	84 e0       	ldi	r24, 0x04	; 4
    6d98:	64 e5       	ldi	r22, 0x54	; 84
    6d9a:	09 e9       	ldi	r16, 0x99	; 153
    6d9c:	1c e0       	ldi	r17, 0x0C	; 12
    6d9e:	f5 e9       	ldi	r31, 0x95	; 149
    6da0:	ef 2e       	mov	r14, r31
    6da2:	fc e0       	ldi	r31, 0x0C	; 12
    6da4:	ff 2e       	mov	r15, r31
    6da6:	e5 e0       	ldi	r30, 0x05	; 5
    6da8:	ce 2e       	mov	r12, r30
    6daa:	0e 94 37 2f 	call	0x5e6e	; 0x5e6e <_helper_Words>
    6dae:	1f 91       	pop	r17
    6db0:	0f 91       	pop	r16
    6db2:	ff 90       	pop	r15
    6db4:	ef 90       	pop	r14
    6db6:	cf 90       	pop	r12
    6db8:	08 95       	ret

00006dba <_hModeSettings>:
    6dba:	cf 92       	push	r12
    6dbc:	ef 92       	push	r14
    6dbe:	ff 92       	push	r15
    6dc0:	0f 93       	push	r16
    6dc2:	1f 93       	push	r17
    6dc4:	80 91 bc 05 	lds	r24, 0x05BC
    6dc8:	88 23       	and	r24, r24
    6dca:	09 f4       	brne	.+2      	; 0x6dce <_hModeSettings+0x14>
    6dcc:	db c0       	rjmp	.+438    	; 0x6f84 <_hModeSettings+0x1ca>
    6dce:	85 e0       	ldi	r24, 0x05	; 5
    6dd0:	0e 94 80 31 	call	0x6300	; 0x6300 <PageKey>
    6dd4:	80 91 bc 05 	lds	r24, 0x05BC
    6dd8:	87 ff       	sbrs	r24, 7
    6dda:	0f c0       	rjmp	.+30     	; 0x6dfa <_hModeSettings+0x40>
    6ddc:	90 91 32 05 	lds	r25, 0x0532
    6de0:	91 30       	cpi	r25, 0x01	; 1
    6de2:	59 f4       	brne	.+22     	; 0x6dfa <_hModeSettings+0x40>
    6de4:	0e 94 2a 2d 	call	0x5a54	; 0x5a54 <_helper_SaveinEEPROM_ifChanged>
    6de8:	80 91 33 05 	lds	r24, 0x0533
    6dec:	88 23       	and	r24, r24
    6dee:	09 f4       	brne	.+2      	; 0x6df2 <_hModeSettings+0x38>
    6df0:	c9 c0       	rjmp	.+402    	; 0x6f84 <_hModeSettings+0x1ca>
    6df2:	84 e0       	ldi	r24, 0x04	; 4
    6df4:	0e 94 4d 2f 	call	0x5e9a	; 0x5e9a <Menu_LoadPage>
    6df8:	c5 c0       	rjmp	.+394    	; 0x6f84 <_hModeSettings+0x1ca>
    6dfa:	84 ff       	sbrs	r24, 4
    6dfc:	3d c0       	rjmp	.+122    	; 0x6e78 <_hModeSettings+0xbe>
    6dfe:	91 e0       	ldi	r25, 0x01	; 1
    6e00:	90 93 32 05 	sts	0x0532, r25
    6e04:	80 91 36 05 	lds	r24, 0x0536
    6e08:	82 30       	cpi	r24, 0x02	; 2
    6e0a:	f9 f0       	breq	.+62     	; 0x6e4a <_hModeSettings+0x90>
    6e0c:	83 30       	cpi	r24, 0x03	; 3
    6e0e:	28 f4       	brcc	.+10     	; 0x6e1a <_hModeSettings+0x60>
    6e10:	88 23       	and	r24, r24
    6e12:	41 f0       	breq	.+16     	; 0x6e24 <_hModeSettings+0x6a>
    6e14:	81 30       	cpi	r24, 0x01	; 1
    6e16:	81 f5       	brne	.+96     	; 0x6e78 <_hModeSettings+0xbe>
    6e18:	10 c0       	rjmp	.+32     	; 0x6e3a <_hModeSettings+0x80>
    6e1a:	83 30       	cpi	r24, 0x03	; 3
    6e1c:	f1 f0       	breq	.+60     	; 0x6e5a <_hModeSettings+0xa0>
    6e1e:	84 30       	cpi	r24, 0x04	; 4
    6e20:	59 f5       	brne	.+86     	; 0x6e78 <_hModeSettings+0xbe>
    6e22:	23 c0       	rjmp	.+70     	; 0x6e6a <_hModeSettings+0xb0>
    6e24:	80 91 d8 06 	lds	r24, 0x06D8
    6e28:	81 30       	cpi	r24, 0x01	; 1
    6e2a:	21 f4       	brne	.+8      	; 0x6e34 <_hModeSettings+0x7a>
    6e2c:	82 e0       	ldi	r24, 0x02	; 2
    6e2e:	80 93 d8 06 	sts	0x06D8, r24
    6e32:	22 c0       	rjmp	.+68     	; 0x6e78 <_hModeSettings+0xbe>
    6e34:	90 93 d8 06 	sts	0x06D8, r25
    6e38:	1f c0       	rjmp	.+62     	; 0x6e78 <_hModeSettings+0xbe>
    6e3a:	90 91 d3 06 	lds	r25, 0x06D3
    6e3e:	90 95       	com	r25
    6e40:	90 93 d3 06 	sts	0x06D3, r25
    6e44:	80 93 33 05 	sts	0x0533, r24
    6e48:	17 c0       	rjmp	.+46     	; 0x6e78 <_hModeSettings+0xbe>
    6e4a:	90 91 d9 06 	lds	r25, 0x06D9
    6e4e:	81 e0       	ldi	r24, 0x01	; 1
    6e50:	90 fd       	sbrc	r25, 0
    6e52:	80 e0       	ldi	r24, 0x00	; 0
    6e54:	80 93 d9 06 	sts	0x06D9, r24
    6e58:	0f c0       	rjmp	.+30     	; 0x6e78 <_hModeSettings+0xbe>
    6e5a:	90 91 da 06 	lds	r25, 0x06DA
    6e5e:	81 e0       	ldi	r24, 0x01	; 1
    6e60:	90 fd       	sbrc	r25, 0
    6e62:	80 e0       	ldi	r24, 0x00	; 0
    6e64:	80 93 da 06 	sts	0x06DA, r24
    6e68:	07 c0       	rjmp	.+14     	; 0x6e78 <_hModeSettings+0xbe>
    6e6a:	90 91 de 06 	lds	r25, 0x06DE
    6e6e:	81 e0       	ldi	r24, 0x01	; 1
    6e70:	90 fd       	sbrc	r25, 0
    6e72:	80 e0       	ldi	r24, 0x00	; 0
    6e74:	80 93 de 06 	sts	0x06DE, r24
    6e78:	41 e0       	ldi	r20, 0x01	; 1
    6e7a:	80 91 36 05 	lds	r24, 0x0536
    6e7e:	81 11       	cpse	r24, r1
    6e80:	40 e0       	ldi	r20, 0x00	; 0
    6e82:	21 e0       	ldi	r18, 0x01	; 1
    6e84:	80 91 d8 06 	lds	r24, 0x06D8
    6e88:	81 30       	cpi	r24, 0x01	; 1
    6e8a:	09 f0       	breq	.+2      	; 0x6e8e <_hModeSettings+0xd4>
    6e8c:	20 e0       	ldi	r18, 0x00	; 0
    6e8e:	80 e0       	ldi	r24, 0x00	; 0
    6e90:	64 e5       	ldi	r22, 0x54	; 84
    6e92:	00 ee       	ldi	r16, 0xE0	; 224
    6e94:	1c e0       	ldi	r17, 0x0C	; 12
    6e96:	ab ed       	ldi	r26, 0xDB	; 219
    6e98:	ea 2e       	mov	r14, r26
    6e9a:	ac e0       	ldi	r26, 0x0C	; 12
    6e9c:	fa 2e       	mov	r15, r26
    6e9e:	f5 e0       	ldi	r31, 0x05	; 5
    6ea0:	cf 2e       	mov	r12, r31
    6ea2:	0e 94 37 2f 	call	0x5e6e	; 0x5e6e <_helper_Words>
    6ea6:	41 e0       	ldi	r20, 0x01	; 1
    6ea8:	80 91 36 05 	lds	r24, 0x0536
    6eac:	81 30       	cpi	r24, 0x01	; 1
    6eae:	09 f0       	breq	.+2      	; 0x6eb2 <_hModeSettings+0xf8>
    6eb0:	40 e0       	ldi	r20, 0x00	; 0
    6eb2:	21 e0       	ldi	r18, 0x01	; 1
    6eb4:	80 91 d3 06 	lds	r24, 0x06D3
    6eb8:	81 11       	cpse	r24, r1
    6eba:	20 e0       	ldi	r18, 0x00	; 0
    6ebc:	81 e0       	ldi	r24, 0x01	; 1
    6ebe:	64 e5       	ldi	r22, 0x54	; 84
    6ec0:	05 ed       	ldi	r16, 0xD5	; 213
    6ec2:	1c e0       	ldi	r17, 0x0C	; 12
    6ec4:	ef ec       	ldi	r30, 0xCF	; 207
    6ec6:	ee 2e       	mov	r14, r30
    6ec8:	ec e0       	ldi	r30, 0x0C	; 12
    6eca:	fe 2e       	mov	r15, r30
    6ecc:	75 e0       	ldi	r23, 0x05	; 5
    6ece:	c7 2e       	mov	r12, r23
    6ed0:	0e 94 37 2f 	call	0x5e6e	; 0x5e6e <_helper_Words>
    6ed4:	41 e0       	ldi	r20, 0x01	; 1
    6ed6:	80 91 36 05 	lds	r24, 0x0536
    6eda:	82 30       	cpi	r24, 0x02	; 2
    6edc:	09 f0       	breq	.+2      	; 0x6ee0 <_hModeSettings+0x126>
    6ede:	40 e0       	ldi	r20, 0x00	; 0
    6ee0:	21 e0       	ldi	r18, 0x01	; 1
    6ee2:	80 91 d9 06 	lds	r24, 0x06D9
    6ee6:	81 11       	cpse	r24, r1
    6ee8:	20 e0       	ldi	r18, 0x00	; 0
    6eea:	82 e0       	ldi	r24, 0x02	; 2
    6eec:	64 e5       	ldi	r22, 0x54	; 84
    6eee:	08 ec       	ldi	r16, 0xC8	; 200
    6ef0:	1c e0       	ldi	r17, 0x0C	; 12
    6ef2:	51 ec       	ldi	r21, 0xC1	; 193
    6ef4:	e5 2e       	mov	r14, r21
    6ef6:	5c e0       	ldi	r21, 0x0C	; 12
    6ef8:	f5 2e       	mov	r15, r21
    6efa:	36 e0       	ldi	r19, 0x06	; 6
    6efc:	c3 2e       	mov	r12, r19
    6efe:	0e 94 37 2f 	call	0x5e6e	; 0x5e6e <_helper_Words>
    6f02:	90 91 d8 06 	lds	r25, 0x06D8
    6f06:	80 91 36 05 	lds	r24, 0x0536
    6f0a:	91 30       	cpi	r25, 0x01	; 1
    6f0c:	91 f4       	brne	.+36     	; 0x6f32 <_hModeSettings+0x178>
    6f0e:	41 e0       	ldi	r20, 0x01	; 1
    6f10:	83 30       	cpi	r24, 0x03	; 3
    6f12:	09 f0       	breq	.+2      	; 0x6f16 <_hModeSettings+0x15c>
    6f14:	40 e0       	ldi	r20, 0x00	; 0
    6f16:	21 e0       	ldi	r18, 0x01	; 1
    6f18:	80 91 da 06 	lds	r24, 0x06DA
    6f1c:	81 11       	cpse	r24, r1
    6f1e:	20 e0       	ldi	r18, 0x00	; 0
    6f20:	83 e0       	ldi	r24, 0x03	; 3
    6f22:	64 e5       	ldi	r22, 0x54	; 84
    6f24:	0a eb       	ldi	r16, 0xBA	; 186
    6f26:	1c e0       	ldi	r17, 0x0C	; 12
    6f28:	93 eb       	ldi	r25, 0xB3	; 179
    6f2a:	e9 2e       	mov	r14, r25
    6f2c:	9c e0       	ldi	r25, 0x0C	; 12
    6f2e:	f9 2e       	mov	r15, r25
    6f30:	11 c0       	rjmp	.+34     	; 0x6f54 <_hModeSettings+0x19a>
    6f32:	41 e0       	ldi	r20, 0x01	; 1
    6f34:	83 30       	cpi	r24, 0x03	; 3
    6f36:	09 f0       	breq	.+2      	; 0x6f3a <_hModeSettings+0x180>
    6f38:	40 e0       	ldi	r20, 0x00	; 0
    6f3a:	21 e0       	ldi	r18, 0x01	; 1
    6f3c:	80 91 da 06 	lds	r24, 0x06DA
    6f40:	81 11       	cpse	r24, r1
    6f42:	20 e0       	ldi	r18, 0x00	; 0
    6f44:	83 e0       	ldi	r24, 0x03	; 3
    6f46:	64 e5       	ldi	r22, 0x54	; 84
    6f48:	0c ea       	ldi	r16, 0xAC	; 172
    6f4a:	1c e0       	ldi	r17, 0x0C	; 12
    6f4c:	b5 ea       	ldi	r27, 0xA5	; 165
    6f4e:	eb 2e       	mov	r14, r27
    6f50:	bc e0       	ldi	r27, 0x0C	; 12
    6f52:	fb 2e       	mov	r15, r27
    6f54:	a6 e0       	ldi	r26, 0x06	; 6
    6f56:	ca 2e       	mov	r12, r26
    6f58:	0e 94 37 2f 	call	0x5e6e	; 0x5e6e <_helper_Words>
    6f5c:	00 91 de 06 	lds	r16, 0x06DE
    6f60:	10 e0       	ldi	r17, 0x00	; 0
    6f62:	01 70       	andi	r16, 0x01	; 1
    6f64:	10 70       	andi	r17, 0x00	; 0
    6f66:	91 e0       	ldi	r25, 0x01	; 1
    6f68:	80 91 36 05 	lds	r24, 0x0536
    6f6c:	84 30       	cpi	r24, 0x04	; 4
    6f6e:	09 f0       	breq	.+2      	; 0x6f72 <_hModeSettings+0x1b8>
    6f70:	90 e0       	ldi	r25, 0x00	; 0
    6f72:	84 e0       	ldi	r24, 0x04	; 4
    6f74:	64 e5       	ldi	r22, 0x54	; 84
    6f76:	4d e9       	ldi	r20, 0x9D	; 157
    6f78:	5c e0       	ldi	r21, 0x0C	; 12
    6f7a:	21 ea       	ldi	r18, 0xA1	; 161
    6f7c:	3c e0       	ldi	r19, 0x0C	; 12
    6f7e:	e9 2e       	mov	r14, r25
    6f80:	0e 94 fe 2c 	call	0x59fc	; 0x59fc <_helper_DisplayBiStateText>
    6f84:	1f 91       	pop	r17
    6f86:	0f 91       	pop	r16
    6f88:	ff 90       	pop	r15
    6f8a:	ef 90       	pop	r14
    6f8c:	cf 90       	pop	r12
    6f8e:	08 95       	ret

00006f90 <doMenu>:
    6f90:	ef 92       	push	r14
    6f92:	ff 92       	push	r15
    6f94:	0f 93       	push	r16
    6f96:	1f 93       	push	r17
    6f98:	cf 93       	push	r28
    6f9a:	df 93       	push	r29
    6f9c:	ec 01       	movw	r28, r24
    6f9e:	81 e0       	ldi	r24, 0x01	; 1
    6fa0:	80 93 e7 05 	sts	0x05E7, r24
    6fa4:	80 91 bc 05 	lds	r24, 0x05BC
    6fa8:	88 23       	and	r24, r24
    6faa:	09 f4       	brne	.+2      	; 0x6fae <doMenu+0x1e>
    6fac:	70 c0       	rjmp	.+224    	; 0x708e <doMenu+0xfe>
    6fae:	86 ff       	sbrs	r24, 6
    6fb0:	06 c0       	rjmp	.+12     	; 0x6fbe <doMenu+0x2e>
    6fb2:	8c 81       	ldd	r24, Y+4	; 0x04
    6fb4:	88 23       	and	r24, r24
    6fb6:	99 f0       	breq	.+38     	; 0x6fde <doMenu+0x4e>
    6fb8:	81 50       	subi	r24, 0x01	; 1
    6fba:	8c 83       	std	Y+4, r24	; 0x04
    6fbc:	10 c0       	rjmp	.+32     	; 0x6fde <doMenu+0x4e>
    6fbe:	85 ff       	sbrs	r24, 5
    6fc0:	0c c0       	rjmp	.+24     	; 0x6fda <doMenu+0x4a>
    6fc2:	4c 81       	ldd	r20, Y+4	; 0x04
    6fc4:	24 2f       	mov	r18, r20
    6fc6:	30 e0       	ldi	r19, 0x00	; 0
    6fc8:	88 81       	ld	r24, Y
    6fca:	90 e0       	ldi	r25, 0x00	; 0
    6fcc:	01 97       	sbiw	r24, 0x01	; 1
    6fce:	28 17       	cp	r18, r24
    6fd0:	39 07       	cpc	r19, r25
    6fd2:	2c f4       	brge	.+10     	; 0x6fde <doMenu+0x4e>
    6fd4:	4f 5f       	subi	r20, 0xFF	; 255
    6fd6:	4c 83       	std	Y+4, r20	; 0x04
    6fd8:	02 c0       	rjmp	.+4      	; 0x6fde <doMenu+0x4e>
    6fda:	84 fd       	sbrc	r24, 4
    6fdc:	56 c0       	rjmp	.+172    	; 0x708a <doMenu+0xfa>
    6fde:	2c 81       	ldd	r18, Y+4	; 0x04
    6fe0:	3b 81       	ldd	r19, Y+3	; 0x03
    6fe2:	23 17       	cp	r18, r19
    6fe4:	40 f0       	brcs	.+16     	; 0x6ff6 <doMenu+0x66>
    6fe6:	82 2f       	mov	r24, r18
    6fe8:	90 e0       	ldi	r25, 0x00	; 0
    6fea:	83 1b       	sub	r24, r19
    6fec:	91 09       	sbc	r25, r1
    6fee:	85 30       	cpi	r24, 0x05	; 5
    6ff0:	91 05       	cpc	r25, r1
    6ff2:	14 f0       	brlt	.+4      	; 0x6ff8 <doMenu+0x68>
    6ff4:	24 50       	subi	r18, 0x04	; 4
    6ff6:	2b 83       	std	Y+3, r18	; 0x03
    6ff8:	80 e0       	ldi	r24, 0x00	; 0
    6ffa:	6a e3       	ldi	r22, 0x3A	; 58
    6ffc:	0e 94 07 0c 	call	0x180e	; 0x180e <LCD_SetPos>
    7000:	8b 81       	ldd	r24, Y+3	; 0x03
    7002:	88 23       	and	r24, r24
    7004:	29 f0       	breq	.+10     	; 0x7010 <doMenu+0x80>
    7006:	85 e9       	ldi	r24, 0x95	; 149
    7008:	99 e0       	ldi	r25, 0x09	; 9
    700a:	60 e0       	ldi	r22, 0x00	; 0
    700c:	0e 94 c7 0c 	call	0x198e	; 0x198e <lcdWriteGlyph_P>
    7010:	00 e0       	ldi	r16, 0x00	; 0
    7012:	10 e0       	ldi	r17, 0x00	; 0
    7014:	21 c0       	rjmp	.+66     	; 0x7058 <doMenu+0xc8>
    7016:	8e 2d       	mov	r24, r14
    7018:	8f 5f       	subi	r24, 0xFF	; 255
    701a:	60 e0       	ldi	r22, 0x00	; 0
    701c:	0e 94 07 0c 	call	0x180e	; 0x180e <LCD_SetPos>
    7020:	8b 81       	ldd	r24, Y+3	; 0x03
    7022:	e9 81       	ldd	r30, Y+1	; 0x01
    7024:	fa 81       	ldd	r31, Y+2	; 0x02
    7026:	8e 0d       	add	r24, r14
    7028:	09 95       	icall
    702a:	7c 01       	movw	r14, r24
    702c:	8b 81       	ldd	r24, Y+3	; 0x03
    702e:	a8 01       	movw	r20, r16
    7030:	48 0f       	add	r20, r24
    7032:	51 1d       	adc	r21, r1
    7034:	2c 81       	ldd	r18, Y+4	; 0x04
    7036:	30 e0       	ldi	r19, 0x00	; 0
    7038:	81 e0       	ldi	r24, 0x01	; 1
    703a:	42 17       	cp	r20, r18
    703c:	53 07       	cpc	r21, r19
    703e:	09 f0       	breq	.+2      	; 0x7042 <doMenu+0xb2>
    7040:	80 e0       	ldi	r24, 0x00	; 0
    7042:	0e 94 12 0d 	call	0x1a24	; 0x1a24 <lcdReverse>
    7046:	c7 01       	movw	r24, r14
    7048:	65 e1       	ldi	r22, 0x15	; 21
    704a:	0e 94 73 0d 	call	0x1ae6	; 0x1ae6 <LCD_WritePadded_P>
    704e:	0f 5f       	subi	r16, 0xFF	; 255
    7050:	1f 4f       	sbci	r17, 0xFF	; 255
    7052:	05 30       	cpi	r16, 0x05	; 5
    7054:	11 05       	cpc	r17, r1
    7056:	21 f0       	breq	.+8      	; 0x7060 <doMenu+0xd0>
    7058:	e0 2e       	mov	r14, r16
    705a:	88 81       	ld	r24, Y
    705c:	08 17       	cp	r16, r24
    705e:	d8 f2       	brcs	.-74     	; 0x7016 <doMenu+0x86>
    7060:	80 e0       	ldi	r24, 0x00	; 0
    7062:	0e 94 12 0d 	call	0x1a24	; 0x1a24 <lcdReverse>
    7066:	86 e0       	ldi	r24, 0x06	; 6
    7068:	6a e3       	ldi	r22, 0x3A	; 58
    706a:	0e 94 07 0c 	call	0x180e	; 0x180e <LCD_SetPos>
    706e:	2b 81       	ldd	r18, Y+3	; 0x03
    7070:	30 e0       	ldi	r19, 0x00	; 0
    7072:	88 81       	ld	r24, Y
    7074:	90 e0       	ldi	r25, 0x00	; 0
    7076:	05 97       	sbiw	r24, 0x05	; 5
    7078:	28 17       	cp	r18, r24
    707a:	39 07       	cpc	r19, r25
    707c:	44 f4       	brge	.+16     	; 0x708e <doMenu+0xfe>
    707e:	8f e9       	ldi	r24, 0x9F	; 159
    7080:	99 e0       	ldi	r25, 0x09	; 9
    7082:	60 e0       	ldi	r22, 0x00	; 0
    7084:	0e 94 c7 0c 	call	0x198e	; 0x198e <lcdWriteGlyph_P>
    7088:	02 c0       	rjmp	.+4      	; 0x708e <doMenu+0xfe>
    708a:	81 e0       	ldi	r24, 0x01	; 1
    708c:	01 c0       	rjmp	.+2      	; 0x7090 <doMenu+0x100>
    708e:	80 e0       	ldi	r24, 0x00	; 0
    7090:	df 91       	pop	r29
    7092:	cf 91       	pop	r28
    7094:	1f 91       	pop	r17
    7096:	0f 91       	pop	r16
    7098:	ff 90       	pop	r15
    709a:	ef 90       	pop	r14
    709c:	08 95       	ret

0000709e <_hMenu>:
    709e:	8e e0       	ldi	r24, 0x0E	; 14
    70a0:	91 e0       	ldi	r25, 0x01	; 1
    70a2:	0e 94 c8 37 	call	0x6f90	; 0x6f90 <doMenu>
    70a6:	88 23       	and	r24, r24
    70a8:	91 f0       	breq	.+36     	; 0x70ce <_hMenu+0x30>
    70aa:	80 91 12 01 	lds	r24, 0x0112
    70ae:	e8 2f       	mov	r30, r24
    70b0:	f0 e0       	ldi	r31, 0x00	; 0
    70b2:	e4 54       	subi	r30, 0x44	; 68
    70b4:	f8 4f       	sbci	r31, 0xF8	; 248
    70b6:	95 81       	ldd	r25, Z+5	; 0x05
    70b8:	91 30       	cpi	r25, 0x01	; 1
    70ba:	21 f4       	brne	.+8      	; 0x70c4 <_hMenu+0x26>
    70bc:	8b 5f       	subi	r24, 0xFB	; 251
    70be:	0e 94 4d 2f 	call	0x5e9a	; 0x5e9a <Menu_LoadPage>
    70c2:	08 95       	ret
    70c4:	8e e1       	ldi	r24, 0x1E	; 30
    70c6:	90 e0       	ldi	r25, 0x00	; 0
    70c8:	62 e0       	ldi	r22, 0x02	; 2
    70ca:	0e 94 92 0e 	call	0x1d24	; 0x1d24 <LED_FlashOrangeLED>
    70ce:	08 95       	ret

000070d0 <Menu_MenuShow>:
    70d0:	0e 94 b7 0b 	call	0x176e	; 0x176e <Keyboard_Read>
    70d4:	90 91 c4 06 	lds	r25, 0x06C4
    70d8:	98 2b       	or	r25, r24
    70da:	90 93 bc 05 	sts	0x05BC, r25
    70de:	0e 94 3c 0e 	call	0x1c78	; 0x1c78 <LCD_Disable>
    70e2:	90 91 35 05 	lds	r25, 0x0535
    70e6:	80 91 34 05 	lds	r24, 0x0534
    70ea:	89 17       	cp	r24, r25
    70ec:	59 f0       	breq	.+22     	; 0x7104 <Menu_MenuShow+0x34>
    70ee:	80 91 bc 05 	lds	r24, 0x05BC
    70f2:	81 60       	ori	r24, 0x01	; 1
    70f4:	80 93 bc 05 	sts	0x05BC, r24
    70f8:	10 92 36 05 	sts	0x0536, r1
    70fc:	10 92 37 05 	sts	0x0537, r1
    7100:	90 93 34 05 	sts	0x0534, r25
    7104:	0e 94 89 30 	call	0x6112	; 0x6112 <defaultHandler>
    7108:	0e 94 33 0e 	call	0x1c66	; 0x1c66 <LCD_Enable>
    710c:	80 91 bc 05 	lds	r24, 0x05BC
    7110:	87 ff       	sbrs	r24, 7
    7112:	15 c0       	rjmp	.+42     	; 0x713e <Menu_MenuShow+0x6e>
    7114:	80 91 d2 07 	lds	r24, 0x07D2
    7118:	88 23       	and	r24, r24
    711a:	89 f4       	brne	.+34     	; 0x713e <Menu_MenuShow+0x6e>
    711c:	80 91 35 05 	lds	r24, 0x0535
    7120:	82 30       	cpi	r24, 0x02	; 2
    7122:	10 f0       	brcs	.+4      	; 0x7128 <Menu_MenuShow+0x58>
    7124:	81 e0       	ldi	r24, 0x01	; 1
    7126:	09 c0       	rjmp	.+18     	; 0x713a <Menu_MenuShow+0x6a>
    7128:	81 30       	cpi	r24, 0x01	; 1
    712a:	49 f4       	brne	.+18     	; 0x713e <Menu_MenuShow+0x6e>
    712c:	80 91 a2 07 	lds	r24, 0x07A2
    7130:	81 30       	cpi	r24, 0x01	; 1
    7132:	11 f4       	brne	.+4      	; 0x7138 <Menu_MenuShow+0x68>
    7134:	82 e0       	ldi	r24, 0x02	; 2
    7136:	01 c0       	rjmp	.+2      	; 0x713a <Menu_MenuShow+0x6a>
    7138:	80 e0       	ldi	r24, 0x00	; 0
    713a:	0e 94 4d 2f 	call	0x5e9a	; 0x5e9a <Menu_LoadPage>
    713e:	80 91 bc 05 	lds	r24, 0x05BC
    7142:	80 7f       	andi	r24, 0xF0	; 240
    7144:	29 f0       	breq	.+10     	; 0x7150 <Menu_MenuShow+0x80>
    7146:	86 e4       	ldi	r24, 0x46	; 70
    7148:	90 e0       	ldi	r25, 0x00	; 0
    714a:	61 e0       	ldi	r22, 0x01	; 1
    714c:	0e 94 90 0b 	call	0x1720	; 0x1720 <Beeper_Beep>
    7150:	10 92 c4 06 	sts	0x06C4, r1
    7154:	08 95       	ret

00007156 <Menu_MenuInit>:
    7156:	8f ef       	ldi	r24, 0xFF	; 255
    7158:	80 93 34 05 	sts	0x0534, r24
    715c:	80 e0       	ldi	r24, 0x00	; 0
    715e:	0e 94 4d 2f 	call	0x5e9a	; 0x5e9a <Menu_LoadPage>
    7162:	08 95       	ret

00007164 <tsmLoadModelLayout>:
    7164:	08 95       	ret

00007166 <Menu_EnableAllItems>:
    7166:	ec eb       	ldi	r30, 0xBC	; 188
    7168:	f7 e0       	ldi	r31, 0x07	; 7
    716a:	81 e0       	ldi	r24, 0x01	; 1
    716c:	81 93       	st	Z+, r24
    716e:	97 e0       	ldi	r25, 0x07	; 7
    7170:	ed 3c       	cpi	r30, 0xCD	; 205
    7172:	f9 07       	cpc	r31, r25
    7174:	d9 f7       	brne	.-10     	; 0x716c <Menu_EnableAllItems+0x6>
    7176:	80 93 cb 07 	sts	0x07CB, r24
    717a:	08 95       	ret

0000717c <__subsf3>:
    717c:	50 58       	subi	r21, 0x80	; 128

0000717e <__addsf3>:
    717e:	bb 27       	eor	r27, r27
    7180:	aa 27       	eor	r26, r26
    7182:	0e d0       	rcall	.+28     	; 0x71a0 <__addsf3x>
    7184:	75 c1       	rjmp	.+746    	; 0x7470 <__fp_round>
    7186:	66 d1       	rcall	.+716    	; 0x7454 <__fp_pscA>
    7188:	30 f0       	brcs	.+12     	; 0x7196 <__addsf3+0x18>
    718a:	6b d1       	rcall	.+726    	; 0x7462 <__fp_pscB>
    718c:	20 f0       	brcs	.+8      	; 0x7196 <__addsf3+0x18>
    718e:	31 f4       	brne	.+12     	; 0x719c <__addsf3+0x1e>
    7190:	9f 3f       	cpi	r25, 0xFF	; 255
    7192:	11 f4       	brne	.+4      	; 0x7198 <__addsf3+0x1a>
    7194:	1e f4       	brtc	.+6      	; 0x719c <__addsf3+0x1e>
    7196:	5b c1       	rjmp	.+694    	; 0x744e <__fp_nan>
    7198:	0e f4       	brtc	.+2      	; 0x719c <__addsf3+0x1e>
    719a:	e0 95       	com	r30
    719c:	e7 fb       	bst	r30, 7
    719e:	51 c1       	rjmp	.+674    	; 0x7442 <__fp_inf>

000071a0 <__addsf3x>:
    71a0:	e9 2f       	mov	r30, r25
    71a2:	77 d1       	rcall	.+750    	; 0x7492 <__fp_split3>
    71a4:	80 f3       	brcs	.-32     	; 0x7186 <__addsf3+0x8>
    71a6:	ba 17       	cp	r27, r26
    71a8:	62 07       	cpc	r22, r18
    71aa:	73 07       	cpc	r23, r19
    71ac:	84 07       	cpc	r24, r20
    71ae:	95 07       	cpc	r25, r21
    71b0:	18 f0       	brcs	.+6      	; 0x71b8 <__addsf3x+0x18>
    71b2:	71 f4       	brne	.+28     	; 0x71d0 <__addsf3x+0x30>
    71b4:	9e f5       	brtc	.+102    	; 0x721c <__addsf3x+0x7c>
    71b6:	8f c1       	rjmp	.+798    	; 0x74d6 <__fp_zero>
    71b8:	0e f4       	brtc	.+2      	; 0x71bc <__addsf3x+0x1c>
    71ba:	e0 95       	com	r30
    71bc:	0b 2e       	mov	r0, r27
    71be:	ba 2f       	mov	r27, r26
    71c0:	a0 2d       	mov	r26, r0
    71c2:	0b 01       	movw	r0, r22
    71c4:	b9 01       	movw	r22, r18
    71c6:	90 01       	movw	r18, r0
    71c8:	0c 01       	movw	r0, r24
    71ca:	ca 01       	movw	r24, r20
    71cc:	a0 01       	movw	r20, r0
    71ce:	11 24       	eor	r1, r1
    71d0:	ff 27       	eor	r31, r31
    71d2:	59 1b       	sub	r21, r25
    71d4:	99 f0       	breq	.+38     	; 0x71fc <__addsf3x+0x5c>
    71d6:	59 3f       	cpi	r21, 0xF9	; 249
    71d8:	50 f4       	brcc	.+20     	; 0x71ee <__addsf3x+0x4e>
    71da:	50 3e       	cpi	r21, 0xE0	; 224
    71dc:	68 f1       	brcs	.+90     	; 0x7238 <__addsf3x+0x98>
    71de:	1a 16       	cp	r1, r26
    71e0:	f0 40       	sbci	r31, 0x00	; 0
    71e2:	a2 2f       	mov	r26, r18
    71e4:	23 2f       	mov	r18, r19
    71e6:	34 2f       	mov	r19, r20
    71e8:	44 27       	eor	r20, r20
    71ea:	58 5f       	subi	r21, 0xF8	; 248
    71ec:	f3 cf       	rjmp	.-26     	; 0x71d4 <__addsf3x+0x34>
    71ee:	46 95       	lsr	r20
    71f0:	37 95       	ror	r19
    71f2:	27 95       	ror	r18
    71f4:	a7 95       	ror	r26
    71f6:	f0 40       	sbci	r31, 0x00	; 0
    71f8:	53 95       	inc	r21
    71fa:	c9 f7       	brne	.-14     	; 0x71ee <__addsf3x+0x4e>
    71fc:	7e f4       	brtc	.+30     	; 0x721c <__addsf3x+0x7c>
    71fe:	1f 16       	cp	r1, r31
    7200:	ba 0b       	sbc	r27, r26
    7202:	62 0b       	sbc	r22, r18
    7204:	73 0b       	sbc	r23, r19
    7206:	84 0b       	sbc	r24, r20
    7208:	ba f0       	brmi	.+46     	; 0x7238 <__addsf3x+0x98>
    720a:	91 50       	subi	r25, 0x01	; 1
    720c:	a1 f0       	breq	.+40     	; 0x7236 <__addsf3x+0x96>
    720e:	ff 0f       	add	r31, r31
    7210:	bb 1f       	adc	r27, r27
    7212:	66 1f       	adc	r22, r22
    7214:	77 1f       	adc	r23, r23
    7216:	88 1f       	adc	r24, r24
    7218:	c2 f7       	brpl	.-16     	; 0x720a <__addsf3x+0x6a>
    721a:	0e c0       	rjmp	.+28     	; 0x7238 <__addsf3x+0x98>
    721c:	ba 0f       	add	r27, r26
    721e:	62 1f       	adc	r22, r18
    7220:	73 1f       	adc	r23, r19
    7222:	84 1f       	adc	r24, r20
    7224:	48 f4       	brcc	.+18     	; 0x7238 <__addsf3x+0x98>
    7226:	87 95       	ror	r24
    7228:	77 95       	ror	r23
    722a:	67 95       	ror	r22
    722c:	b7 95       	ror	r27
    722e:	f7 95       	ror	r31
    7230:	9e 3f       	cpi	r25, 0xFE	; 254
    7232:	08 f0       	brcs	.+2      	; 0x7236 <__addsf3x+0x96>
    7234:	b3 cf       	rjmp	.-154    	; 0x719c <__addsf3+0x1e>
    7236:	93 95       	inc	r25
    7238:	88 0f       	add	r24, r24
    723a:	08 f0       	brcs	.+2      	; 0x723e <__addsf3x+0x9e>
    723c:	99 27       	eor	r25, r25
    723e:	ee 0f       	add	r30, r30
    7240:	97 95       	ror	r25
    7242:	87 95       	ror	r24
    7244:	08 95       	ret

00007246 <__cmpsf2>:
    7246:	d9 d0       	rcall	.+434    	; 0x73fa <__fp_cmp>
    7248:	08 f4       	brcc	.+2      	; 0x724c <__cmpsf2+0x6>
    724a:	81 e0       	ldi	r24, 0x01	; 1
    724c:	08 95       	ret

0000724e <__divsf3>:
    724e:	0c d0       	rcall	.+24     	; 0x7268 <__divsf3x>
    7250:	0f c1       	rjmp	.+542    	; 0x7470 <__fp_round>
    7252:	07 d1       	rcall	.+526    	; 0x7462 <__fp_pscB>
    7254:	40 f0       	brcs	.+16     	; 0x7266 <__divsf3+0x18>
    7256:	fe d0       	rcall	.+508    	; 0x7454 <__fp_pscA>
    7258:	30 f0       	brcs	.+12     	; 0x7266 <__divsf3+0x18>
    725a:	21 f4       	brne	.+8      	; 0x7264 <__divsf3+0x16>
    725c:	5f 3f       	cpi	r21, 0xFF	; 255
    725e:	19 f0       	breq	.+6      	; 0x7266 <__divsf3+0x18>
    7260:	f0 c0       	rjmp	.+480    	; 0x7442 <__fp_inf>
    7262:	51 11       	cpse	r21, r1
    7264:	39 c1       	rjmp	.+626    	; 0x74d8 <__fp_szero>
    7266:	f3 c0       	rjmp	.+486    	; 0x744e <__fp_nan>

00007268 <__divsf3x>:
    7268:	14 d1       	rcall	.+552    	; 0x7492 <__fp_split3>
    726a:	98 f3       	brcs	.-26     	; 0x7252 <__divsf3+0x4>

0000726c <__divsf3_pse>:
    726c:	99 23       	and	r25, r25
    726e:	c9 f3       	breq	.-14     	; 0x7262 <__divsf3+0x14>
    7270:	55 23       	and	r21, r21
    7272:	b1 f3       	breq	.-20     	; 0x7260 <__divsf3+0x12>
    7274:	95 1b       	sub	r25, r21
    7276:	55 0b       	sbc	r21, r21
    7278:	bb 27       	eor	r27, r27
    727a:	aa 27       	eor	r26, r26
    727c:	62 17       	cp	r22, r18
    727e:	73 07       	cpc	r23, r19
    7280:	84 07       	cpc	r24, r20
    7282:	38 f0       	brcs	.+14     	; 0x7292 <__divsf3_pse+0x26>
    7284:	9f 5f       	subi	r25, 0xFF	; 255
    7286:	5f 4f       	sbci	r21, 0xFF	; 255
    7288:	22 0f       	add	r18, r18
    728a:	33 1f       	adc	r19, r19
    728c:	44 1f       	adc	r20, r20
    728e:	aa 1f       	adc	r26, r26
    7290:	a9 f3       	breq	.-22     	; 0x727c <__divsf3_pse+0x10>
    7292:	33 d0       	rcall	.+102    	; 0x72fa <__divsf3_pse+0x8e>
    7294:	0e 2e       	mov	r0, r30
    7296:	3a f0       	brmi	.+14     	; 0x72a6 <__divsf3_pse+0x3a>
    7298:	e0 e8       	ldi	r30, 0x80	; 128
    729a:	30 d0       	rcall	.+96     	; 0x72fc <__divsf3_pse+0x90>
    729c:	91 50       	subi	r25, 0x01	; 1
    729e:	50 40       	sbci	r21, 0x00	; 0
    72a0:	e6 95       	lsr	r30
    72a2:	00 1c       	adc	r0, r0
    72a4:	ca f7       	brpl	.-14     	; 0x7298 <__divsf3_pse+0x2c>
    72a6:	29 d0       	rcall	.+82     	; 0x72fa <__divsf3_pse+0x8e>
    72a8:	fe 2f       	mov	r31, r30
    72aa:	27 d0       	rcall	.+78     	; 0x72fa <__divsf3_pse+0x8e>
    72ac:	66 0f       	add	r22, r22
    72ae:	77 1f       	adc	r23, r23
    72b0:	88 1f       	adc	r24, r24
    72b2:	bb 1f       	adc	r27, r27
    72b4:	26 17       	cp	r18, r22
    72b6:	37 07       	cpc	r19, r23
    72b8:	48 07       	cpc	r20, r24
    72ba:	ab 07       	cpc	r26, r27
    72bc:	b0 e8       	ldi	r27, 0x80	; 128
    72be:	09 f0       	breq	.+2      	; 0x72c2 <__divsf3_pse+0x56>
    72c0:	bb 0b       	sbc	r27, r27
    72c2:	80 2d       	mov	r24, r0
    72c4:	bf 01       	movw	r22, r30
    72c6:	ff 27       	eor	r31, r31
    72c8:	93 58       	subi	r25, 0x83	; 131
    72ca:	5f 4f       	sbci	r21, 0xFF	; 255
    72cc:	2a f0       	brmi	.+10     	; 0x72d8 <__divsf3_pse+0x6c>
    72ce:	9e 3f       	cpi	r25, 0xFE	; 254
    72d0:	51 05       	cpc	r21, r1
    72d2:	68 f0       	brcs	.+26     	; 0x72ee <__divsf3_pse+0x82>
    72d4:	b6 c0       	rjmp	.+364    	; 0x7442 <__fp_inf>
    72d6:	00 c1       	rjmp	.+512    	; 0x74d8 <__fp_szero>
    72d8:	5f 3f       	cpi	r21, 0xFF	; 255
    72da:	ec f3       	brlt	.-6      	; 0x72d6 <__divsf3_pse+0x6a>
    72dc:	98 3e       	cpi	r25, 0xE8	; 232
    72de:	dc f3       	brlt	.-10     	; 0x72d6 <__divsf3_pse+0x6a>
    72e0:	86 95       	lsr	r24
    72e2:	77 95       	ror	r23
    72e4:	67 95       	ror	r22
    72e6:	b7 95       	ror	r27
    72e8:	f7 95       	ror	r31
    72ea:	9f 5f       	subi	r25, 0xFF	; 255
    72ec:	c9 f7       	brne	.-14     	; 0x72e0 <__divsf3_pse+0x74>
    72ee:	88 0f       	add	r24, r24
    72f0:	91 1d       	adc	r25, r1
    72f2:	96 95       	lsr	r25
    72f4:	87 95       	ror	r24
    72f6:	97 f9       	bld	r25, 7
    72f8:	08 95       	ret
    72fa:	e1 e0       	ldi	r30, 0x01	; 1
    72fc:	66 0f       	add	r22, r22
    72fe:	77 1f       	adc	r23, r23
    7300:	88 1f       	adc	r24, r24
    7302:	bb 1f       	adc	r27, r27
    7304:	62 17       	cp	r22, r18
    7306:	73 07       	cpc	r23, r19
    7308:	84 07       	cpc	r24, r20
    730a:	ba 07       	cpc	r27, r26
    730c:	20 f0       	brcs	.+8      	; 0x7316 <__divsf3_pse+0xaa>
    730e:	62 1b       	sub	r22, r18
    7310:	73 0b       	sbc	r23, r19
    7312:	84 0b       	sbc	r24, r20
    7314:	ba 0b       	sbc	r27, r26
    7316:	ee 1f       	adc	r30, r30
    7318:	88 f7       	brcc	.-30     	; 0x72fc <__divsf3_pse+0x90>
    731a:	e0 95       	com	r30
    731c:	08 95       	ret

0000731e <__fixsfsi>:
    731e:	04 d0       	rcall	.+8      	; 0x7328 <__fixunssfsi>
    7320:	68 94       	set
    7322:	b1 11       	cpse	r27, r1
    7324:	d9 c0       	rjmp	.+434    	; 0x74d8 <__fp_szero>
    7326:	08 95       	ret

00007328 <__fixunssfsi>:
    7328:	bc d0       	rcall	.+376    	; 0x74a2 <__fp_splitA>
    732a:	88 f0       	brcs	.+34     	; 0x734e <__fixunssfsi+0x26>
    732c:	9f 57       	subi	r25, 0x7F	; 127
    732e:	90 f0       	brcs	.+36     	; 0x7354 <__fixunssfsi+0x2c>
    7330:	b9 2f       	mov	r27, r25
    7332:	99 27       	eor	r25, r25
    7334:	b7 51       	subi	r27, 0x17	; 23
    7336:	a0 f0       	brcs	.+40     	; 0x7360 <__fixunssfsi+0x38>
    7338:	d1 f0       	breq	.+52     	; 0x736e <__fixunssfsi+0x46>
    733a:	66 0f       	add	r22, r22
    733c:	77 1f       	adc	r23, r23
    733e:	88 1f       	adc	r24, r24
    7340:	99 1f       	adc	r25, r25
    7342:	1a f0       	brmi	.+6      	; 0x734a <__fixunssfsi+0x22>
    7344:	ba 95       	dec	r27
    7346:	c9 f7       	brne	.-14     	; 0x733a <__fixunssfsi+0x12>
    7348:	12 c0       	rjmp	.+36     	; 0x736e <__fixunssfsi+0x46>
    734a:	b1 30       	cpi	r27, 0x01	; 1
    734c:	81 f0       	breq	.+32     	; 0x736e <__fixunssfsi+0x46>
    734e:	c3 d0       	rcall	.+390    	; 0x74d6 <__fp_zero>
    7350:	b1 e0       	ldi	r27, 0x01	; 1
    7352:	08 95       	ret
    7354:	c0 c0       	rjmp	.+384    	; 0x74d6 <__fp_zero>
    7356:	67 2f       	mov	r22, r23
    7358:	78 2f       	mov	r23, r24
    735a:	88 27       	eor	r24, r24
    735c:	b8 5f       	subi	r27, 0xF8	; 248
    735e:	39 f0       	breq	.+14     	; 0x736e <__fixunssfsi+0x46>
    7360:	b9 3f       	cpi	r27, 0xF9	; 249
    7362:	cc f3       	brlt	.-14     	; 0x7356 <__fixunssfsi+0x2e>
    7364:	86 95       	lsr	r24
    7366:	77 95       	ror	r23
    7368:	67 95       	ror	r22
    736a:	b3 95       	inc	r27
    736c:	d9 f7       	brne	.-10     	; 0x7364 <__fixunssfsi+0x3c>
    736e:	3e f4       	brtc	.+14     	; 0x737e <__fixunssfsi+0x56>
    7370:	90 95       	com	r25
    7372:	80 95       	com	r24
    7374:	70 95       	com	r23
    7376:	61 95       	neg	r22
    7378:	7f 4f       	sbci	r23, 0xFF	; 255
    737a:	8f 4f       	sbci	r24, 0xFF	; 255
    737c:	9f 4f       	sbci	r25, 0xFF	; 255
    737e:	08 95       	ret

00007380 <__floatunsisf>:
    7380:	e8 94       	clt
    7382:	09 c0       	rjmp	.+18     	; 0x7396 <__floatsisf+0x12>

00007384 <__floatsisf>:
    7384:	97 fb       	bst	r25, 7
    7386:	3e f4       	brtc	.+14     	; 0x7396 <__floatsisf+0x12>
    7388:	90 95       	com	r25
    738a:	80 95       	com	r24
    738c:	70 95       	com	r23
    738e:	61 95       	neg	r22
    7390:	7f 4f       	sbci	r23, 0xFF	; 255
    7392:	8f 4f       	sbci	r24, 0xFF	; 255
    7394:	9f 4f       	sbci	r25, 0xFF	; 255
    7396:	99 23       	and	r25, r25
    7398:	a9 f0       	breq	.+42     	; 0x73c4 <__floatsisf+0x40>
    739a:	f9 2f       	mov	r31, r25
    739c:	96 e9       	ldi	r25, 0x96	; 150
    739e:	bb 27       	eor	r27, r27
    73a0:	93 95       	inc	r25
    73a2:	f6 95       	lsr	r31
    73a4:	87 95       	ror	r24
    73a6:	77 95       	ror	r23
    73a8:	67 95       	ror	r22
    73aa:	b7 95       	ror	r27
    73ac:	f1 11       	cpse	r31, r1
    73ae:	f8 cf       	rjmp	.-16     	; 0x73a0 <__floatsisf+0x1c>
    73b0:	fa f4       	brpl	.+62     	; 0x73f0 <__floatsisf+0x6c>
    73b2:	bb 0f       	add	r27, r27
    73b4:	11 f4       	brne	.+4      	; 0x73ba <__floatsisf+0x36>
    73b6:	60 ff       	sbrs	r22, 0
    73b8:	1b c0       	rjmp	.+54     	; 0x73f0 <__floatsisf+0x6c>
    73ba:	6f 5f       	subi	r22, 0xFF	; 255
    73bc:	7f 4f       	sbci	r23, 0xFF	; 255
    73be:	8f 4f       	sbci	r24, 0xFF	; 255
    73c0:	9f 4f       	sbci	r25, 0xFF	; 255
    73c2:	16 c0       	rjmp	.+44     	; 0x73f0 <__floatsisf+0x6c>
    73c4:	88 23       	and	r24, r24
    73c6:	11 f0       	breq	.+4      	; 0x73cc <__floatsisf+0x48>
    73c8:	96 e9       	ldi	r25, 0x96	; 150
    73ca:	11 c0       	rjmp	.+34     	; 0x73ee <__floatsisf+0x6a>
    73cc:	77 23       	and	r23, r23
    73ce:	21 f0       	breq	.+8      	; 0x73d8 <__floatsisf+0x54>
    73d0:	9e e8       	ldi	r25, 0x8E	; 142
    73d2:	87 2f       	mov	r24, r23
    73d4:	76 2f       	mov	r23, r22
    73d6:	05 c0       	rjmp	.+10     	; 0x73e2 <__floatsisf+0x5e>
    73d8:	66 23       	and	r22, r22
    73da:	71 f0       	breq	.+28     	; 0x73f8 <__floatsisf+0x74>
    73dc:	96 e8       	ldi	r25, 0x86	; 134
    73de:	86 2f       	mov	r24, r22
    73e0:	70 e0       	ldi	r23, 0x00	; 0
    73e2:	60 e0       	ldi	r22, 0x00	; 0
    73e4:	2a f0       	brmi	.+10     	; 0x73f0 <__floatsisf+0x6c>
    73e6:	9a 95       	dec	r25
    73e8:	66 0f       	add	r22, r22
    73ea:	77 1f       	adc	r23, r23
    73ec:	88 1f       	adc	r24, r24
    73ee:	da f7       	brpl	.-10     	; 0x73e6 <__floatsisf+0x62>
    73f0:	88 0f       	add	r24, r24
    73f2:	96 95       	lsr	r25
    73f4:	87 95       	ror	r24
    73f6:	97 f9       	bld	r25, 7
    73f8:	08 95       	ret

000073fa <__fp_cmp>:
    73fa:	99 0f       	add	r25, r25
    73fc:	00 08       	sbc	r0, r0
    73fe:	55 0f       	add	r21, r21
    7400:	aa 0b       	sbc	r26, r26
    7402:	e0 e8       	ldi	r30, 0x80	; 128
    7404:	fe ef       	ldi	r31, 0xFE	; 254
    7406:	16 16       	cp	r1, r22
    7408:	17 06       	cpc	r1, r23
    740a:	e8 07       	cpc	r30, r24
    740c:	f9 07       	cpc	r31, r25
    740e:	c0 f0       	brcs	.+48     	; 0x7440 <__fp_cmp+0x46>
    7410:	12 16       	cp	r1, r18
    7412:	13 06       	cpc	r1, r19
    7414:	e4 07       	cpc	r30, r20
    7416:	f5 07       	cpc	r31, r21
    7418:	98 f0       	brcs	.+38     	; 0x7440 <__fp_cmp+0x46>
    741a:	62 1b       	sub	r22, r18
    741c:	73 0b       	sbc	r23, r19
    741e:	84 0b       	sbc	r24, r20
    7420:	95 0b       	sbc	r25, r21
    7422:	39 f4       	brne	.+14     	; 0x7432 <__fp_cmp+0x38>
    7424:	0a 26       	eor	r0, r26
    7426:	61 f0       	breq	.+24     	; 0x7440 <__fp_cmp+0x46>
    7428:	23 2b       	or	r18, r19
    742a:	24 2b       	or	r18, r20
    742c:	25 2b       	or	r18, r21
    742e:	21 f4       	brne	.+8      	; 0x7438 <__fp_cmp+0x3e>
    7430:	08 95       	ret
    7432:	0a 26       	eor	r0, r26
    7434:	09 f4       	brne	.+2      	; 0x7438 <__fp_cmp+0x3e>
    7436:	a1 40       	sbci	r26, 0x01	; 1
    7438:	a6 95       	lsr	r26
    743a:	8f ef       	ldi	r24, 0xFF	; 255
    743c:	81 1d       	adc	r24, r1
    743e:	81 1d       	adc	r24, r1
    7440:	08 95       	ret

00007442 <__fp_inf>:
    7442:	97 f9       	bld	r25, 7
    7444:	9f 67       	ori	r25, 0x7F	; 127
    7446:	80 e8       	ldi	r24, 0x80	; 128
    7448:	70 e0       	ldi	r23, 0x00	; 0
    744a:	60 e0       	ldi	r22, 0x00	; 0
    744c:	08 95       	ret

0000744e <__fp_nan>:
    744e:	9f ef       	ldi	r25, 0xFF	; 255
    7450:	80 ec       	ldi	r24, 0xC0	; 192
    7452:	08 95       	ret

00007454 <__fp_pscA>:
    7454:	00 24       	eor	r0, r0
    7456:	0a 94       	dec	r0
    7458:	16 16       	cp	r1, r22
    745a:	17 06       	cpc	r1, r23
    745c:	18 06       	cpc	r1, r24
    745e:	09 06       	cpc	r0, r25
    7460:	08 95       	ret

00007462 <__fp_pscB>:
    7462:	00 24       	eor	r0, r0
    7464:	0a 94       	dec	r0
    7466:	12 16       	cp	r1, r18
    7468:	13 06       	cpc	r1, r19
    746a:	14 06       	cpc	r1, r20
    746c:	05 06       	cpc	r0, r21
    746e:	08 95       	ret

00007470 <__fp_round>:
    7470:	09 2e       	mov	r0, r25
    7472:	03 94       	inc	r0
    7474:	00 0c       	add	r0, r0
    7476:	11 f4       	brne	.+4      	; 0x747c <__fp_round+0xc>
    7478:	88 23       	and	r24, r24
    747a:	52 f0       	brmi	.+20     	; 0x7490 <__fp_round+0x20>
    747c:	bb 0f       	add	r27, r27
    747e:	40 f4       	brcc	.+16     	; 0x7490 <__fp_round+0x20>
    7480:	bf 2b       	or	r27, r31
    7482:	11 f4       	brne	.+4      	; 0x7488 <__fp_round+0x18>
    7484:	60 ff       	sbrs	r22, 0
    7486:	04 c0       	rjmp	.+8      	; 0x7490 <__fp_round+0x20>
    7488:	6f 5f       	subi	r22, 0xFF	; 255
    748a:	7f 4f       	sbci	r23, 0xFF	; 255
    748c:	8f 4f       	sbci	r24, 0xFF	; 255
    748e:	9f 4f       	sbci	r25, 0xFF	; 255
    7490:	08 95       	ret

00007492 <__fp_split3>:
    7492:	57 fd       	sbrc	r21, 7
    7494:	90 58       	subi	r25, 0x80	; 128
    7496:	44 0f       	add	r20, r20
    7498:	55 1f       	adc	r21, r21
    749a:	59 f0       	breq	.+22     	; 0x74b2 <__fp_splitA+0x10>
    749c:	5f 3f       	cpi	r21, 0xFF	; 255
    749e:	71 f0       	breq	.+28     	; 0x74bc <__fp_splitA+0x1a>
    74a0:	47 95       	ror	r20

000074a2 <__fp_splitA>:
    74a2:	88 0f       	add	r24, r24
    74a4:	97 fb       	bst	r25, 7
    74a6:	99 1f       	adc	r25, r25
    74a8:	61 f0       	breq	.+24     	; 0x74c2 <__fp_splitA+0x20>
    74aa:	9f 3f       	cpi	r25, 0xFF	; 255
    74ac:	79 f0       	breq	.+30     	; 0x74cc <__fp_splitA+0x2a>
    74ae:	87 95       	ror	r24
    74b0:	08 95       	ret
    74b2:	12 16       	cp	r1, r18
    74b4:	13 06       	cpc	r1, r19
    74b6:	14 06       	cpc	r1, r20
    74b8:	55 1f       	adc	r21, r21
    74ba:	f2 cf       	rjmp	.-28     	; 0x74a0 <__fp_split3+0xe>
    74bc:	46 95       	lsr	r20
    74be:	f1 df       	rcall	.-30     	; 0x74a2 <__fp_splitA>
    74c0:	08 c0       	rjmp	.+16     	; 0x74d2 <__fp_splitA+0x30>
    74c2:	16 16       	cp	r1, r22
    74c4:	17 06       	cpc	r1, r23
    74c6:	18 06       	cpc	r1, r24
    74c8:	99 1f       	adc	r25, r25
    74ca:	f1 cf       	rjmp	.-30     	; 0x74ae <__fp_splitA+0xc>
    74cc:	86 95       	lsr	r24
    74ce:	71 05       	cpc	r23, r1
    74d0:	61 05       	cpc	r22, r1
    74d2:	08 94       	sec
    74d4:	08 95       	ret

000074d6 <__fp_zero>:
    74d6:	e8 94       	clt

000074d8 <__fp_szero>:
    74d8:	bb 27       	eor	r27, r27
    74da:	66 27       	eor	r22, r22
    74dc:	77 27       	eor	r23, r23
    74de:	cb 01       	movw	r24, r22
    74e0:	97 f9       	bld	r25, 7
    74e2:	08 95       	ret

000074e4 <__gesf2>:
    74e4:	8a df       	rcall	.-236    	; 0x73fa <__fp_cmp>
    74e6:	08 f4       	brcc	.+2      	; 0x74ea <__gesf2+0x6>
    74e8:	8f ef       	ldi	r24, 0xFF	; 255
    74ea:	08 95       	ret

000074ec <__mulsf3>:
    74ec:	0b d0       	rcall	.+22     	; 0x7504 <__mulsf3x>
    74ee:	c0 cf       	rjmp	.-128    	; 0x7470 <__fp_round>
    74f0:	b1 df       	rcall	.-158    	; 0x7454 <__fp_pscA>
    74f2:	28 f0       	brcs	.+10     	; 0x74fe <__mulsf3+0x12>
    74f4:	b6 df       	rcall	.-148    	; 0x7462 <__fp_pscB>
    74f6:	18 f0       	brcs	.+6      	; 0x74fe <__mulsf3+0x12>
    74f8:	95 23       	and	r25, r21
    74fa:	09 f0       	breq	.+2      	; 0x74fe <__mulsf3+0x12>
    74fc:	a2 cf       	rjmp	.-188    	; 0x7442 <__fp_inf>
    74fe:	a7 cf       	rjmp	.-178    	; 0x744e <__fp_nan>
    7500:	11 24       	eor	r1, r1
    7502:	ea cf       	rjmp	.-44     	; 0x74d8 <__fp_szero>

00007504 <__mulsf3x>:
    7504:	c6 df       	rcall	.-116    	; 0x7492 <__fp_split3>
    7506:	a0 f3       	brcs	.-24     	; 0x74f0 <__mulsf3+0x4>

00007508 <__mulsf3_pse>:
    7508:	95 9f       	mul	r25, r21
    750a:	d1 f3       	breq	.-12     	; 0x7500 <__mulsf3+0x14>
    750c:	95 0f       	add	r25, r21
    750e:	50 e0       	ldi	r21, 0x00	; 0
    7510:	55 1f       	adc	r21, r21
    7512:	62 9f       	mul	r22, r18
    7514:	f0 01       	movw	r30, r0
    7516:	72 9f       	mul	r23, r18
    7518:	bb 27       	eor	r27, r27
    751a:	f0 0d       	add	r31, r0
    751c:	b1 1d       	adc	r27, r1
    751e:	63 9f       	mul	r22, r19
    7520:	aa 27       	eor	r26, r26
    7522:	f0 0d       	add	r31, r0
    7524:	b1 1d       	adc	r27, r1
    7526:	aa 1f       	adc	r26, r26
    7528:	64 9f       	mul	r22, r20
    752a:	66 27       	eor	r22, r22
    752c:	b0 0d       	add	r27, r0
    752e:	a1 1d       	adc	r26, r1
    7530:	66 1f       	adc	r22, r22
    7532:	82 9f       	mul	r24, r18
    7534:	22 27       	eor	r18, r18
    7536:	b0 0d       	add	r27, r0
    7538:	a1 1d       	adc	r26, r1
    753a:	62 1f       	adc	r22, r18
    753c:	73 9f       	mul	r23, r19
    753e:	b0 0d       	add	r27, r0
    7540:	a1 1d       	adc	r26, r1
    7542:	62 1f       	adc	r22, r18
    7544:	83 9f       	mul	r24, r19
    7546:	a0 0d       	add	r26, r0
    7548:	61 1d       	adc	r22, r1
    754a:	22 1f       	adc	r18, r18
    754c:	74 9f       	mul	r23, r20
    754e:	33 27       	eor	r19, r19
    7550:	a0 0d       	add	r26, r0
    7552:	61 1d       	adc	r22, r1
    7554:	23 1f       	adc	r18, r19
    7556:	84 9f       	mul	r24, r20
    7558:	60 0d       	add	r22, r0
    755a:	21 1d       	adc	r18, r1
    755c:	82 2f       	mov	r24, r18
    755e:	76 2f       	mov	r23, r22
    7560:	6a 2f       	mov	r22, r26
    7562:	11 24       	eor	r1, r1
    7564:	9f 57       	subi	r25, 0x7F	; 127
    7566:	50 40       	sbci	r21, 0x00	; 0
    7568:	8a f0       	brmi	.+34     	; 0x758c <__mulsf3_pse+0x84>
    756a:	e1 f0       	breq	.+56     	; 0x75a4 <__mulsf3_pse+0x9c>
    756c:	88 23       	and	r24, r24
    756e:	4a f0       	brmi	.+18     	; 0x7582 <__mulsf3_pse+0x7a>
    7570:	ee 0f       	add	r30, r30
    7572:	ff 1f       	adc	r31, r31
    7574:	bb 1f       	adc	r27, r27
    7576:	66 1f       	adc	r22, r22
    7578:	77 1f       	adc	r23, r23
    757a:	88 1f       	adc	r24, r24
    757c:	91 50       	subi	r25, 0x01	; 1
    757e:	50 40       	sbci	r21, 0x00	; 0
    7580:	a9 f7       	brne	.-22     	; 0x756c <__mulsf3_pse+0x64>
    7582:	9e 3f       	cpi	r25, 0xFE	; 254
    7584:	51 05       	cpc	r21, r1
    7586:	70 f0       	brcs	.+28     	; 0x75a4 <__mulsf3_pse+0x9c>
    7588:	5c cf       	rjmp	.-328    	; 0x7442 <__fp_inf>
    758a:	a6 cf       	rjmp	.-180    	; 0x74d8 <__fp_szero>
    758c:	5f 3f       	cpi	r21, 0xFF	; 255
    758e:	ec f3       	brlt	.-6      	; 0x758a <__mulsf3_pse+0x82>
    7590:	98 3e       	cpi	r25, 0xE8	; 232
    7592:	dc f3       	brlt	.-10     	; 0x758a <__mulsf3_pse+0x82>
    7594:	86 95       	lsr	r24
    7596:	77 95       	ror	r23
    7598:	67 95       	ror	r22
    759a:	b7 95       	ror	r27
    759c:	f7 95       	ror	r31
    759e:	e7 95       	ror	r30
    75a0:	9f 5f       	subi	r25, 0xFF	; 255
    75a2:	c1 f7       	brne	.-16     	; 0x7594 <__mulsf3_pse+0x8c>
    75a4:	fe 2b       	or	r31, r30
    75a6:	88 0f       	add	r24, r24
    75a8:	91 1d       	adc	r25, r1
    75aa:	96 95       	lsr	r25
    75ac:	87 95       	ror	r24
    75ae:	97 f9       	bld	r25, 7
    75b0:	08 95       	ret
    75b2:	11 f4       	brne	.+4      	; 0x75b8 <__mulsf3_pse+0xb0>
    75b4:	0e f4       	brtc	.+2      	; 0x75b8 <__mulsf3_pse+0xb0>
    75b6:	4b cf       	rjmp	.-362    	; 0x744e <__fp_nan>
    75b8:	3e c0       	rjmp	.+124    	; 0x7636 <__fp_mpack>

000075ba <sqrt>:
    75ba:	73 df       	rcall	.-282    	; 0x74a2 <__fp_splitA>
    75bc:	d0 f3       	brcs	.-12     	; 0x75b2 <__mulsf3_pse+0xaa>
    75be:	99 23       	and	r25, r25
    75c0:	d9 f3       	breq	.-10     	; 0x75b8 <__mulsf3_pse+0xb0>
    75c2:	ce f3       	brts	.-14     	; 0x75b6 <__mulsf3_pse+0xae>
    75c4:	9f 57       	subi	r25, 0x7F	; 127
    75c6:	55 0b       	sbc	r21, r21
    75c8:	87 ff       	sbrs	r24, 7
    75ca:	43 d0       	rcall	.+134    	; 0x7652 <__fp_norm2>
    75cc:	00 24       	eor	r0, r0
    75ce:	a0 e6       	ldi	r26, 0x60	; 96
    75d0:	40 ea       	ldi	r20, 0xA0	; 160
    75d2:	90 01       	movw	r18, r0
    75d4:	80 58       	subi	r24, 0x80	; 128
    75d6:	56 95       	lsr	r21
    75d8:	97 95       	ror	r25
    75da:	28 f4       	brcc	.+10     	; 0x75e6 <sqrt+0x2c>
    75dc:	80 5c       	subi	r24, 0xC0	; 192
    75de:	66 0f       	add	r22, r22
    75e0:	77 1f       	adc	r23, r23
    75e2:	88 1f       	adc	r24, r24
    75e4:	20 f0       	brcs	.+8      	; 0x75ee <sqrt+0x34>
    75e6:	26 17       	cp	r18, r22
    75e8:	37 07       	cpc	r19, r23
    75ea:	48 07       	cpc	r20, r24
    75ec:	30 f4       	brcc	.+12     	; 0x75fa <sqrt+0x40>
    75ee:	62 1b       	sub	r22, r18
    75f0:	73 0b       	sbc	r23, r19
    75f2:	84 0b       	sbc	r24, r20
    75f4:	20 29       	or	r18, r0
    75f6:	31 29       	or	r19, r1
    75f8:	4a 2b       	or	r20, r26
    75fa:	a6 95       	lsr	r26
    75fc:	17 94       	ror	r1
    75fe:	07 94       	ror	r0
    7600:	20 25       	eor	r18, r0
    7602:	31 25       	eor	r19, r1
    7604:	4a 27       	eor	r20, r26
    7606:	58 f7       	brcc	.-42     	; 0x75de <sqrt+0x24>
    7608:	66 0f       	add	r22, r22
    760a:	77 1f       	adc	r23, r23
    760c:	88 1f       	adc	r24, r24
    760e:	20 f0       	brcs	.+8      	; 0x7618 <sqrt+0x5e>
    7610:	26 17       	cp	r18, r22
    7612:	37 07       	cpc	r19, r23
    7614:	48 07       	cpc	r20, r24
    7616:	30 f4       	brcc	.+12     	; 0x7624 <sqrt+0x6a>
    7618:	62 0b       	sbc	r22, r18
    761a:	73 0b       	sbc	r23, r19
    761c:	84 0b       	sbc	r24, r20
    761e:	20 0d       	add	r18, r0
    7620:	31 1d       	adc	r19, r1
    7622:	41 1d       	adc	r20, r1
    7624:	a0 95       	com	r26
    7626:	81 f7       	brne	.-32     	; 0x7608 <sqrt+0x4e>
    7628:	b9 01       	movw	r22, r18
    762a:	84 2f       	mov	r24, r20
    762c:	91 58       	subi	r25, 0x81	; 129
    762e:	88 0f       	add	r24, r24
    7630:	96 95       	lsr	r25
    7632:	87 95       	ror	r24
    7634:	08 95       	ret

00007636 <__fp_mpack>:
    7636:	9f 3f       	cpi	r25, 0xFF	; 255
    7638:	31 f0       	breq	.+12     	; 0x7646 <__fp_mpack_finite+0xc>

0000763a <__fp_mpack_finite>:
    763a:	91 50       	subi	r25, 0x01	; 1
    763c:	20 f4       	brcc	.+8      	; 0x7646 <__fp_mpack_finite+0xc>
    763e:	87 95       	ror	r24
    7640:	77 95       	ror	r23
    7642:	67 95       	ror	r22
    7644:	b7 95       	ror	r27
    7646:	88 0f       	add	r24, r24
    7648:	91 1d       	adc	r25, r1
    764a:	96 95       	lsr	r25
    764c:	87 95       	ror	r24
    764e:	97 f9       	bld	r25, 7
    7650:	08 95       	ret

00007652 <__fp_norm2>:
    7652:	91 50       	subi	r25, 0x01	; 1
    7654:	50 40       	sbci	r21, 0x00	; 0
    7656:	66 0f       	add	r22, r22
    7658:	77 1f       	adc	r23, r23
    765a:	88 1f       	adc	r24, r24
    765c:	d2 f7       	brpl	.-12     	; 0x7652 <__fp_norm2>
    765e:	08 95       	ret

00007660 <__udivmodhi4>:
    7660:	aa 1b       	sub	r26, r26
    7662:	bb 1b       	sub	r27, r27
    7664:	51 e1       	ldi	r21, 0x11	; 17
    7666:	07 c0       	rjmp	.+14     	; 0x7676 <__udivmodhi4_ep>

00007668 <__udivmodhi4_loop>:
    7668:	aa 1f       	adc	r26, r26
    766a:	bb 1f       	adc	r27, r27
    766c:	a6 17       	cp	r26, r22
    766e:	b7 07       	cpc	r27, r23
    7670:	10 f0       	brcs	.+4      	; 0x7676 <__udivmodhi4_ep>
    7672:	a6 1b       	sub	r26, r22
    7674:	b7 0b       	sbc	r27, r23

00007676 <__udivmodhi4_ep>:
    7676:	88 1f       	adc	r24, r24
    7678:	99 1f       	adc	r25, r25
    767a:	5a 95       	dec	r21
    767c:	a9 f7       	brne	.-22     	; 0x7668 <__udivmodhi4_loop>
    767e:	80 95       	com	r24
    7680:	90 95       	com	r25
    7682:	bc 01       	movw	r22, r24
    7684:	cd 01       	movw	r24, r26
    7686:	08 95       	ret

00007688 <__divmodhi4>:
    7688:	97 fb       	bst	r25, 7
    768a:	09 2e       	mov	r0, r25
    768c:	07 26       	eor	r0, r23
    768e:	0a d0       	rcall	.+20     	; 0x76a4 <__divmodhi4_neg1>
    7690:	77 fd       	sbrc	r23, 7
    7692:	04 d0       	rcall	.+8      	; 0x769c <__divmodhi4_neg2>
    7694:	e5 df       	rcall	.-54     	; 0x7660 <__udivmodhi4>
    7696:	06 d0       	rcall	.+12     	; 0x76a4 <__divmodhi4_neg1>
    7698:	00 20       	and	r0, r0
    769a:	1a f4       	brpl	.+6      	; 0x76a2 <__divmodhi4_exit>

0000769c <__divmodhi4_neg2>:
    769c:	70 95       	com	r23
    769e:	61 95       	neg	r22
    76a0:	7f 4f       	sbci	r23, 0xFF	; 255

000076a2 <__divmodhi4_exit>:
    76a2:	08 95       	ret

000076a4 <__divmodhi4_neg1>:
    76a4:	f6 f7       	brtc	.-4      	; 0x76a2 <__divmodhi4_exit>
    76a6:	90 95       	com	r25
    76a8:	81 95       	neg	r24
    76aa:	9f 4f       	sbci	r25, 0xFF	; 255
    76ac:	08 95       	ret

000076ae <abs>:
    76ae:	28 2f       	mov	r18, r24
    76b0:	39 2f       	mov	r19, r25
    76b2:	37 ff       	sbrs	r19, 7
    76b4:	03 c0       	rjmp	.+6      	; 0x76bc <abs+0xe>
    76b6:	30 95       	com	r19
    76b8:	21 95       	neg	r18
    76ba:	3f 4f       	sbci	r19, 0xFF	; 255
    76bc:	c9 01       	movw	r24, r18
    76be:	08 95       	ret

000076c0 <dtostrf>:
    76c0:	ef 92       	push	r14
    76c2:	ff 92       	push	r15
    76c4:	0f 93       	push	r16
    76c6:	1f 93       	push	r17
    76c8:	32 2f       	mov	r19, r18
    76ca:	f0 2e       	mov	r15, r16
    76cc:	47 ff       	sbrs	r20, 7
    76ce:	02 c0       	rjmp	.+4      	; 0x76d4 <dtostrf+0x14>
    76d0:	a4 e1       	ldi	r26, 0x14	; 20
    76d2:	01 c0       	rjmp	.+2      	; 0x76d6 <dtostrf+0x16>
    76d4:	a4 e0       	ldi	r26, 0x04	; 4
    76d6:	e4 2f       	mov	r30, r20
    76d8:	ff 27       	eor	r31, r31
    76da:	e7 fd       	sbrc	r30, 7
    76dc:	f0 95       	com	r31
    76de:	f7 ff       	sbrs	r31, 7
    76e0:	03 c0       	rjmp	.+6      	; 0x76e8 <dtostrf+0x28>
    76e2:	f0 95       	com	r31
    76e4:	e1 95       	neg	r30
    76e6:	ff 4f       	sbci	r31, 0xFF	; 255
    76e8:	4f 2d       	mov	r20, r15
    76ea:	51 2f       	mov	r21, r17
    76ec:	2e 2f       	mov	r18, r30
    76ee:	03 2f       	mov	r16, r19
    76f0:	ea 2e       	mov	r14, r26
    76f2:	0e 94 1a 3c 	call	0x7834	; 0x7834 <dtoa_prf>
    76f6:	8f 2d       	mov	r24, r15
    76f8:	91 2f       	mov	r25, r17
    76fa:	1f 91       	pop	r17
    76fc:	0f 91       	pop	r16
    76fe:	ff 90       	pop	r15
    7700:	ef 90       	pop	r14
    7702:	08 95       	ret

00007704 <memcpy_P>:
    7704:	fb 01       	movw	r30, r22
    7706:	dc 01       	movw	r26, r24
    7708:	02 c0       	rjmp	.+4      	; 0x770e <memcpy_P+0xa>
    770a:	05 90       	lpm	r0, Z+
    770c:	0d 92       	st	X+, r0
    770e:	41 50       	subi	r20, 0x01	; 1
    7710:	50 40       	sbci	r21, 0x00	; 0
    7712:	d8 f7       	brcc	.-10     	; 0x770a <memcpy_P+0x6>
    7714:	08 95       	ret

00007716 <strcpy_P>:
    7716:	fb 01       	movw	r30, r22
    7718:	dc 01       	movw	r26, r24
    771a:	05 90       	lpm	r0, Z+
    771c:	0d 92       	st	X+, r0
    771e:	00 20       	and	r0, r0
    7720:	e1 f7       	brne	.-8      	; 0x771a <strcpy_P+0x4>
    7722:	08 95       	ret

00007724 <strlen_P>:
    7724:	fc 01       	movw	r30, r24
    7726:	05 90       	lpm	r0, Z+
    7728:	00 20       	and	r0, r0
    772a:	e9 f7       	brne	.-6      	; 0x7726 <strlen_P+0x2>
    772c:	80 95       	com	r24
    772e:	90 95       	com	r25
    7730:	8e 0f       	add	r24, r30
    7732:	9f 1f       	adc	r25, r31
    7734:	08 95       	ret

00007736 <memccpy>:
    7736:	fb 01       	movw	r30, r22
    7738:	dc 01       	movw	r26, r24
    773a:	21 50       	subi	r18, 0x01	; 1
    773c:	30 40       	sbci	r19, 0x00	; 0
    773e:	30 f0       	brcs	.+12     	; 0x774c <memccpy+0x16>
    7740:	01 90       	ld	r0, Z+
    7742:	0d 92       	st	X+, r0
    7744:	04 16       	cp	r0, r20
    7746:	c9 f7       	brne	.-14     	; 0x773a <memccpy+0x4>
    7748:	cd 01       	movw	r24, r26
    774a:	08 95       	ret
    774c:	88 27       	eor	r24, r24
    774e:	99 27       	eor	r25, r25
    7750:	08 95       	ret

00007752 <memcpy>:
    7752:	fb 01       	movw	r30, r22
    7754:	dc 01       	movw	r26, r24
    7756:	02 c0       	rjmp	.+4      	; 0x775c <memcpy+0xa>
    7758:	01 90       	ld	r0, Z+
    775a:	0d 92       	st	X+, r0
    775c:	41 50       	subi	r20, 0x01	; 1
    775e:	50 40       	sbci	r21, 0x00	; 0
    7760:	d8 f7       	brcc	.-10     	; 0x7758 <memcpy+0x6>
    7762:	08 95       	ret

00007764 <strcat>:
    7764:	fb 01       	movw	r30, r22
    7766:	dc 01       	movw	r26, r24
    7768:	0d 90       	ld	r0, X+
    776a:	00 20       	and	r0, r0
    776c:	e9 f7       	brne	.-6      	; 0x7768 <strcat+0x4>
    776e:	11 97       	sbiw	r26, 0x01	; 1
    7770:	01 90       	ld	r0, Z+
    7772:	0d 92       	st	X+, r0
    7774:	00 20       	and	r0, r0
    7776:	e1 f7       	brne	.-8      	; 0x7770 <strcat+0xc>
    7778:	08 95       	ret

0000777a <itoa>:
    777a:	fb 01       	movw	r30, r22
    777c:	9f 01       	movw	r18, r30
    777e:	e8 94       	clt
    7780:	42 30       	cpi	r20, 0x02	; 2
    7782:	c4 f0       	brlt	.+48     	; 0x77b4 <itoa+0x3a>
    7784:	45 32       	cpi	r20, 0x25	; 37
    7786:	b4 f4       	brge	.+44     	; 0x77b4 <itoa+0x3a>
    7788:	4a 30       	cpi	r20, 0x0A	; 10
    778a:	29 f4       	brne	.+10     	; 0x7796 <itoa+0x1c>
    778c:	97 fb       	bst	r25, 7
    778e:	1e f4       	brtc	.+6      	; 0x7796 <itoa+0x1c>
    7790:	90 95       	com	r25
    7792:	81 95       	neg	r24
    7794:	9f 4f       	sbci	r25, 0xFF	; 255
    7796:	64 2f       	mov	r22, r20
    7798:	77 27       	eor	r23, r23
    779a:	0e 94 30 3b 	call	0x7660	; 0x7660 <__udivmodhi4>
    779e:	80 5d       	subi	r24, 0xD0	; 208
    77a0:	8a 33       	cpi	r24, 0x3A	; 58
    77a2:	0c f0       	brlt	.+2      	; 0x77a6 <itoa+0x2c>
    77a4:	89 5d       	subi	r24, 0xD9	; 217
    77a6:	81 93       	st	Z+, r24
    77a8:	cb 01       	movw	r24, r22
    77aa:	00 97       	sbiw	r24, 0x00	; 0
    77ac:	a1 f7       	brne	.-24     	; 0x7796 <itoa+0x1c>
    77ae:	16 f4       	brtc	.+4      	; 0x77b4 <itoa+0x3a>
    77b0:	5d e2       	ldi	r21, 0x2D	; 45
    77b2:	51 93       	st	Z+, r21
    77b4:	10 82       	st	Z, r1
    77b6:	c9 01       	movw	r24, r18
    77b8:	0c 94 49 3e 	jmp	0x7c92	; 0x7c92 <strrev>

000077bc <utoa>:
    77bc:	fb 01       	movw	r30, r22
    77be:	9f 01       	movw	r18, r30
    77c0:	42 30       	cpi	r20, 0x02	; 2
    77c2:	74 f0       	brlt	.+28     	; 0x77e0 <utoa+0x24>
    77c4:	45 32       	cpi	r20, 0x25	; 37
    77c6:	64 f4       	brge	.+24     	; 0x77e0 <utoa+0x24>
    77c8:	64 2f       	mov	r22, r20
    77ca:	77 27       	eor	r23, r23
    77cc:	0e 94 30 3b 	call	0x7660	; 0x7660 <__udivmodhi4>
    77d0:	80 5d       	subi	r24, 0xD0	; 208
    77d2:	8a 33       	cpi	r24, 0x3A	; 58
    77d4:	0c f0       	brlt	.+2      	; 0x77d8 <utoa+0x1c>
    77d6:	89 5d       	subi	r24, 0xD9	; 217
    77d8:	81 93       	st	Z+, r24
    77da:	cb 01       	movw	r24, r22
    77dc:	00 97       	sbiw	r24, 0x00	; 0
    77de:	a1 f7       	brne	.-24     	; 0x77c8 <utoa+0xc>
    77e0:	10 82       	st	Z, r1
    77e2:	c9 01       	movw	r24, r18
    77e4:	0c 94 49 3e 	jmp	0x7c92	; 0x7c92 <strrev>

000077e8 <__eerd_block_m324pa>:
    77e8:	dc 01       	movw	r26, r24
    77ea:	cb 01       	movw	r24, r22

000077ec <__eerd_blraw_m324pa>:
    77ec:	fc 01       	movw	r30, r24
    77ee:	f9 99       	sbic	0x1f, 1	; 31
    77f0:	fe cf       	rjmp	.-4      	; 0x77ee <__eerd_blraw_m324pa+0x2>
    77f2:	06 c0       	rjmp	.+12     	; 0x7800 <__eerd_blraw_m324pa+0x14>
    77f4:	f2 bd       	out	0x22, r31	; 34
    77f6:	e1 bd       	out	0x21, r30	; 33
    77f8:	f8 9a       	sbi	0x1f, 0	; 31
    77fa:	31 96       	adiw	r30, 0x01	; 1
    77fc:	00 b4       	in	r0, 0x20	; 32
    77fe:	0d 92       	st	X+, r0
    7800:	41 50       	subi	r20, 0x01	; 1
    7802:	50 40       	sbci	r21, 0x00	; 0
    7804:	b8 f7       	brcc	.-18     	; 0x77f4 <__eerd_blraw_m324pa+0x8>
    7806:	08 95       	ret

00007808 <__eerd_byte_m324pa>:
    7808:	f9 99       	sbic	0x1f, 1	; 31
    780a:	fe cf       	rjmp	.-4      	; 0x7808 <__eerd_byte_m324pa>
    780c:	92 bd       	out	0x22, r25	; 34
    780e:	81 bd       	out	0x21, r24	; 33
    7810:	f8 9a       	sbi	0x1f, 0	; 31
    7812:	99 27       	eor	r25, r25
    7814:	80 b5       	in	r24, 0x20	; 32
    7816:	08 95       	ret

00007818 <__eewr_byte_m324pa>:
    7818:	26 2f       	mov	r18, r22

0000781a <__eewr_r18_m324pa>:
    781a:	f9 99       	sbic	0x1f, 1	; 31
    781c:	fe cf       	rjmp	.-4      	; 0x781a <__eewr_r18_m324pa>
    781e:	1f ba       	out	0x1f, r1	; 31
    7820:	92 bd       	out	0x22, r25	; 34
    7822:	81 bd       	out	0x21, r24	; 33
    7824:	20 bd       	out	0x20, r18	; 32
    7826:	0f b6       	in	r0, 0x3f	; 63
    7828:	f8 94       	cli
    782a:	fa 9a       	sbi	0x1f, 2	; 31
    782c:	f9 9a       	sbi	0x1f, 1	; 31
    782e:	0f be       	out	0x3f, r0	; 63
    7830:	01 96       	adiw	r24, 0x01	; 1
    7832:	08 95       	ret

00007834 <dtoa_prf>:
    7834:	a9 e0       	ldi	r26, 0x09	; 9
    7836:	b0 e0       	ldi	r27, 0x00	; 0
    7838:	e0 e2       	ldi	r30, 0x20	; 32
    783a:	fc e3       	ldi	r31, 0x3C	; 60
    783c:	0c 94 61 3e 	jmp	0x7cc2	; 0x7cc2 <__prologue_saves__+0x10>
    7840:	6a 01       	movw	r12, r20
    7842:	f2 2e       	mov	r15, r18
    7844:	10 2f       	mov	r17, r16
    7846:	0c 33       	cpi	r16, 0x3C	; 60
    7848:	18 f4       	brcc	.+6      	; 0x7850 <dtoa_prf+0x1c>
    784a:	b0 2e       	mov	r11, r16
    784c:	b3 94       	inc	r11
    784e:	02 c0       	rjmp	.+4      	; 0x7854 <dtoa_prf+0x20>
    7850:	ec e3       	ldi	r30, 0x3C	; 60
    7852:	be 2e       	mov	r11, r30
    7854:	ae 01       	movw	r20, r28
    7856:	4f 5f       	subi	r20, 0xFF	; 255
    7858:	5f 4f       	sbci	r21, 0xFF	; 255
    785a:	27 e0       	ldi	r18, 0x07	; 7
    785c:	0b 2d       	mov	r16, r11
    785e:	0e 94 71 3d 	call	0x7ae2	; 0x7ae2 <__ftoa_engine>
    7862:	29 81       	ldd	r18, Y+1	; 0x01
    7864:	30 e0       	ldi	r19, 0x00	; 0
    7866:	a9 01       	movw	r20, r18
    7868:	49 70       	andi	r20, 0x09	; 9
    786a:	50 70       	andi	r21, 0x00	; 0
    786c:	41 30       	cpi	r20, 0x01	; 1
    786e:	51 05       	cpc	r21, r1
    7870:	31 f0       	breq	.+12     	; 0x787e <dtoa_prf+0x4a>
    7872:	e1 fc       	sbrc	r14, 1
    7874:	06 c0       	rjmp	.+12     	; 0x7882 <dtoa_prf+0x4e>
    7876:	e0 fe       	sbrs	r14, 0
    7878:	06 c0       	rjmp	.+12     	; 0x7886 <dtoa_prf+0x52>
    787a:	e0 e2       	ldi	r30, 0x20	; 32
    787c:	05 c0       	rjmp	.+10     	; 0x7888 <dtoa_prf+0x54>
    787e:	ed e2       	ldi	r30, 0x2D	; 45
    7880:	03 c0       	rjmp	.+6      	; 0x7888 <dtoa_prf+0x54>
    7882:	eb e2       	ldi	r30, 0x2B	; 43
    7884:	01 c0       	rjmp	.+2      	; 0x7888 <dtoa_prf+0x54>
    7886:	e0 e0       	ldi	r30, 0x00	; 0
    7888:	23 ff       	sbrs	r18, 3
    788a:	37 c0       	rjmp	.+110    	; 0x78fa <dtoa_prf+0xc6>
    788c:	ee 23       	and	r30, r30
    788e:	11 f0       	breq	.+4      	; 0x7894 <dtoa_prf+0x60>
    7890:	84 e0       	ldi	r24, 0x04	; 4
    7892:	01 c0       	rjmp	.+2      	; 0x7896 <dtoa_prf+0x62>
    7894:	83 e0       	ldi	r24, 0x03	; 3
    7896:	8f 15       	cp	r24, r15
    7898:	18 f4       	brcc	.+6      	; 0x78a0 <dtoa_prf+0x6c>
    789a:	f8 1a       	sub	r15, r24
    789c:	8f 2d       	mov	r24, r15
    789e:	01 c0       	rjmp	.+2      	; 0x78a2 <dtoa_prf+0x6e>
    78a0:	80 e0       	ldi	r24, 0x00	; 0
    78a2:	e4 fc       	sbrc	r14, 4
    78a4:	0b c0       	rjmp	.+22     	; 0x78bc <dtoa_prf+0x88>
    78a6:	98 2f       	mov	r25, r24
    78a8:	d6 01       	movw	r26, r12
    78aa:	20 e2       	ldi	r18, 0x20	; 32
    78ac:	02 c0       	rjmp	.+4      	; 0x78b2 <dtoa_prf+0x7e>
    78ae:	2d 93       	st	X+, r18
    78b0:	91 50       	subi	r25, 0x01	; 1
    78b2:	99 23       	and	r25, r25
    78b4:	e1 f7       	brne	.-8      	; 0x78ae <dtoa_prf+0x7a>
    78b6:	c8 0e       	add	r12, r24
    78b8:	d1 1c       	adc	r13, r1
    78ba:	80 e0       	ldi	r24, 0x00	; 0
    78bc:	ee 23       	and	r30, r30
    78be:	19 f0       	breq	.+6      	; 0x78c6 <dtoa_prf+0x92>
    78c0:	d6 01       	movw	r26, r12
    78c2:	ed 93       	st	X+, r30
    78c4:	6d 01       	movw	r12, r26
    78c6:	f6 01       	movw	r30, r12
    78c8:	31 96       	adiw	r30, 0x01	; 1
    78ca:	e2 fe       	sbrs	r14, 2
    78cc:	05 c0       	rjmp	.+10     	; 0x78d8 <dtoa_prf+0xa4>
    78ce:	9e e4       	ldi	r25, 0x4E	; 78
    78d0:	d6 01       	movw	r26, r12
    78d2:	9c 93       	st	X, r25
    78d4:	21 e4       	ldi	r18, 0x41	; 65
    78d6:	04 c0       	rjmp	.+8      	; 0x78e0 <dtoa_prf+0xac>
    78d8:	9e e6       	ldi	r25, 0x6E	; 110
    78da:	d6 01       	movw	r26, r12
    78dc:	9c 93       	st	X, r25
    78de:	21 e6       	ldi	r18, 0x61	; 97
    78e0:	11 96       	adiw	r26, 0x01	; 1
    78e2:	2c 93       	st	X, r18
    78e4:	91 83       	std	Z+1, r25	; 0x01
    78e6:	32 96       	adiw	r30, 0x02	; 2
    78e8:	98 2f       	mov	r25, r24
    78ea:	df 01       	movw	r26, r30
    78ec:	20 e2       	ldi	r18, 0x20	; 32
    78ee:	02 c0       	rjmp	.+4      	; 0x78f4 <dtoa_prf+0xc0>
    78f0:	2d 93       	st	X+, r18
    78f2:	91 50       	subi	r25, 0x01	; 1
    78f4:	99 23       	and	r25, r25
    78f6:	e1 f7       	brne	.-8      	; 0x78f0 <dtoa_prf+0xbc>
    78f8:	3d c0       	rjmp	.+122    	; 0x7974 <dtoa_prf+0x140>
    78fa:	22 ff       	sbrs	r18, 2
    78fc:	41 c0       	rjmp	.+130    	; 0x7980 <dtoa_prf+0x14c>
    78fe:	ee 23       	and	r30, r30
    7900:	11 f0       	breq	.+4      	; 0x7906 <dtoa_prf+0xd2>
    7902:	84 e0       	ldi	r24, 0x04	; 4
    7904:	01 c0       	rjmp	.+2      	; 0x7908 <dtoa_prf+0xd4>
    7906:	83 e0       	ldi	r24, 0x03	; 3
    7908:	8f 15       	cp	r24, r15
    790a:	18 f4       	brcc	.+6      	; 0x7912 <dtoa_prf+0xde>
    790c:	f8 1a       	sub	r15, r24
    790e:	8f 2d       	mov	r24, r15
    7910:	01 c0       	rjmp	.+2      	; 0x7914 <dtoa_prf+0xe0>
    7912:	80 e0       	ldi	r24, 0x00	; 0
    7914:	e4 fc       	sbrc	r14, 4
    7916:	0b c0       	rjmp	.+22     	; 0x792e <dtoa_prf+0xfa>
    7918:	98 2f       	mov	r25, r24
    791a:	d6 01       	movw	r26, r12
    791c:	20 e2       	ldi	r18, 0x20	; 32
    791e:	02 c0       	rjmp	.+4      	; 0x7924 <dtoa_prf+0xf0>
    7920:	2d 93       	st	X+, r18
    7922:	91 50       	subi	r25, 0x01	; 1
    7924:	99 23       	and	r25, r25
    7926:	e1 f7       	brne	.-8      	; 0x7920 <dtoa_prf+0xec>
    7928:	c8 0e       	add	r12, r24
    792a:	d1 1c       	adc	r13, r1
    792c:	80 e0       	ldi	r24, 0x00	; 0
    792e:	ee 23       	and	r30, r30
    7930:	19 f0       	breq	.+6      	; 0x7938 <dtoa_prf+0x104>
    7932:	d6 01       	movw	r26, r12
    7934:	ed 93       	st	X+, r30
    7936:	6d 01       	movw	r12, r26
    7938:	f6 01       	movw	r30, r12
    793a:	31 96       	adiw	r30, 0x01	; 1
    793c:	e2 fe       	sbrs	r14, 2
    793e:	09 c0       	rjmp	.+18     	; 0x7952 <dtoa_prf+0x11e>
    7940:	99 e4       	ldi	r25, 0x49	; 73
    7942:	d6 01       	movw	r26, r12
    7944:	9c 93       	st	X, r25
    7946:	9e e4       	ldi	r25, 0x4E	; 78
    7948:	11 96       	adiw	r26, 0x01	; 1
    794a:	9c 93       	st	X, r25
    794c:	11 97       	sbiw	r26, 0x01	; 1
    794e:	96 e4       	ldi	r25, 0x46	; 70
    7950:	07 c0       	rjmp	.+14     	; 0x7960 <dtoa_prf+0x12c>
    7952:	99 e6       	ldi	r25, 0x69	; 105
    7954:	d6 01       	movw	r26, r12
    7956:	9c 93       	st	X, r25
    7958:	9e e6       	ldi	r25, 0x6E	; 110
    795a:	11 96       	adiw	r26, 0x01	; 1
    795c:	9c 93       	st	X, r25
    795e:	96 e6       	ldi	r25, 0x66	; 102
    7960:	91 83       	std	Z+1, r25	; 0x01
    7962:	32 96       	adiw	r30, 0x02	; 2
    7964:	98 2f       	mov	r25, r24
    7966:	df 01       	movw	r26, r30
    7968:	20 e2       	ldi	r18, 0x20	; 32
    796a:	02 c0       	rjmp	.+4      	; 0x7970 <dtoa_prf+0x13c>
    796c:	2d 93       	st	X+, r18
    796e:	91 50       	subi	r25, 0x01	; 1
    7970:	99 23       	and	r25, r25
    7972:	e1 f7       	brne	.-8      	; 0x796c <dtoa_prf+0x138>
    7974:	e8 0f       	add	r30, r24
    7976:	f1 1d       	adc	r31, r1
    7978:	10 82       	st	Z, r1
    797a:	2e ef       	ldi	r18, 0xFE	; 254
    797c:	3f ef       	ldi	r19, 0xFF	; 255
    797e:	ac c0       	rjmp	.+344    	; 0x7ad8 <dtoa_prf+0x2a4>
    7980:	41 e0       	ldi	r20, 0x01	; 1
    7982:	50 e0       	ldi	r21, 0x00	; 0
    7984:	ee 23       	and	r30, r30
    7986:	11 f4       	brne	.+4      	; 0x798c <dtoa_prf+0x158>
    7988:	40 e0       	ldi	r20, 0x00	; 0
    798a:	50 e0       	ldi	r21, 0x00	; 0
    798c:	18 16       	cp	r1, r24
    798e:	19 06       	cpc	r1, r25
    7990:	24 f4       	brge	.+8      	; 0x799a <dtoa_prf+0x166>
    7992:	bc 01       	movw	r22, r24
    7994:	6f 5f       	subi	r22, 0xFF	; 255
    7996:	7f 4f       	sbci	r23, 0xFF	; 255
    7998:	02 c0       	rjmp	.+4      	; 0x799e <dtoa_prf+0x16a>
    799a:	61 e0       	ldi	r22, 0x01	; 1
    799c:	70 e0       	ldi	r23, 0x00	; 0
    799e:	64 0f       	add	r22, r20
    79a0:	75 1f       	adc	r23, r21
    79a2:	11 23       	and	r17, r17
    79a4:	29 f0       	breq	.+10     	; 0x79b0 <dtoa_prf+0x17c>
    79a6:	41 2f       	mov	r20, r17
    79a8:	50 e0       	ldi	r21, 0x00	; 0
    79aa:	4f 5f       	subi	r20, 0xFF	; 255
    79ac:	5f 4f       	sbci	r21, 0xFF	; 255
    79ae:	02 c0       	rjmp	.+4      	; 0x79b4 <dtoa_prf+0x180>
    79b0:	40 e0       	ldi	r20, 0x00	; 0
    79b2:	50 e0       	ldi	r21, 0x00	; 0
    79b4:	46 0f       	add	r20, r22
    79b6:	57 1f       	adc	r21, r23
    79b8:	6f 2d       	mov	r22, r15
    79ba:	70 e0       	ldi	r23, 0x00	; 0
    79bc:	46 17       	cp	r20, r22
    79be:	57 07       	cpc	r21, r23
    79c0:	1c f4       	brge	.+6      	; 0x79c8 <dtoa_prf+0x194>
    79c2:	0f 2d       	mov	r16, r15
    79c4:	04 1b       	sub	r16, r20
    79c6:	01 c0       	rjmp	.+2      	; 0x79ca <dtoa_prf+0x196>
    79c8:	00 e0       	ldi	r16, 0x00	; 0
    79ca:	ff 24       	eor	r15, r15
    79cc:	a7 01       	movw	r20, r14
    79ce:	40 71       	andi	r20, 0x10	; 16
    79d0:	50 70       	andi	r21, 0x00	; 0
    79d2:	e4 fc       	sbrc	r14, 4
    79d4:	0d c0       	rjmp	.+26     	; 0x79f0 <dtoa_prf+0x1bc>
    79d6:	e3 fc       	sbrc	r14, 3
    79d8:	0b c0       	rjmp	.+22     	; 0x79f0 <dtoa_prf+0x1bc>
    79da:	60 2f       	mov	r22, r16
    79dc:	d6 01       	movw	r26, r12
    79de:	70 e2       	ldi	r23, 0x20	; 32
    79e0:	02 c0       	rjmp	.+4      	; 0x79e6 <dtoa_prf+0x1b2>
    79e2:	7d 93       	st	X+, r23
    79e4:	61 50       	subi	r22, 0x01	; 1
    79e6:	66 23       	and	r22, r22
    79e8:	e1 f7       	brne	.-8      	; 0x79e2 <dtoa_prf+0x1ae>
    79ea:	c0 0e       	add	r12, r16
    79ec:	d1 1c       	adc	r13, r1
    79ee:	00 e0       	ldi	r16, 0x00	; 0
    79f0:	ee 23       	and	r30, r30
    79f2:	19 f0       	breq	.+6      	; 0x79fa <dtoa_prf+0x1c6>
    79f4:	d6 01       	movw	r26, r12
    79f6:	ed 93       	st	X+, r30
    79f8:	6d 01       	movw	r12, r26
    79fa:	41 15       	cp	r20, r1
    79fc:	51 05       	cpc	r21, r1
    79fe:	59 f4       	brne	.+22     	; 0x7a16 <dtoa_prf+0x1e2>
    7a00:	40 2f       	mov	r20, r16
    7a02:	f6 01       	movw	r30, r12
    7a04:	50 e3       	ldi	r21, 0x30	; 48
    7a06:	02 c0       	rjmp	.+4      	; 0x7a0c <dtoa_prf+0x1d8>
    7a08:	51 93       	st	Z+, r21
    7a0a:	41 50       	subi	r20, 0x01	; 1
    7a0c:	44 23       	and	r20, r20
    7a0e:	e1 f7       	brne	.-8      	; 0x7a08 <dtoa_prf+0x1d4>
    7a10:	c0 0e       	add	r12, r16
    7a12:	d1 1c       	adc	r13, r1
    7a14:	00 e0       	ldi	r16, 0x00	; 0
    7a16:	b8 0e       	add	r11, r24
    7a18:	fa 80       	ldd	r15, Y+2	; 0x02
    7a1a:	a9 01       	movw	r20, r18
    7a1c:	40 71       	andi	r20, 0x10	; 16
    7a1e:	50 70       	andi	r21, 0x00	; 0
    7a20:	24 ff       	sbrs	r18, 4
    7a22:	04 c0       	rjmp	.+8      	; 0x7a2c <dtoa_prf+0x1f8>
    7a24:	bf 2d       	mov	r27, r15
    7a26:	b1 33       	cpi	r27, 0x31	; 49
    7a28:	09 f4       	brne	.+2      	; 0x7a2c <dtoa_prf+0x1f8>
    7a2a:	ba 94       	dec	r11
    7a2c:	1b 14       	cp	r1, r11
    7a2e:	2c f4       	brge	.+10     	; 0x7a3a <dtoa_prf+0x206>
    7a30:	ab 2d       	mov	r26, r11
    7a32:	a9 30       	cpi	r26, 0x09	; 9
    7a34:	18 f0       	brcs	.+6      	; 0x7a3c <dtoa_prf+0x208>
    7a36:	a8 e0       	ldi	r26, 0x08	; 8
    7a38:	01 c0       	rjmp	.+2      	; 0x7a3c <dtoa_prf+0x208>
    7a3a:	a1 e0       	ldi	r26, 0x01	; 1
    7a3c:	9c 01       	movw	r18, r24
    7a3e:	97 ff       	sbrs	r25, 7
    7a40:	02 c0       	rjmp	.+4      	; 0x7a46 <dtoa_prf+0x212>
    7a42:	20 e0       	ldi	r18, 0x00	; 0
    7a44:	30 e0       	ldi	r19, 0x00	; 0
    7a46:	bc 01       	movw	r22, r24
    7a48:	6f 5f       	subi	r22, 0xFF	; 255
    7a4a:	7f 4f       	sbci	r23, 0xFF	; 255
    7a4c:	62 1b       	sub	r22, r18
    7a4e:	73 0b       	sbc	r23, r19
    7a50:	fe 01       	movw	r30, r28
    7a52:	31 96       	adiw	r30, 0x01	; 1
    7a54:	e6 0f       	add	r30, r22
    7a56:	f7 1f       	adc	r31, r23
    7a58:	6e e2       	ldi	r22, 0x2E	; 46
    7a5a:	e6 2e       	mov	r14, r22
    7a5c:	bc 01       	movw	r22, r24
    7a5e:	6a 1b       	sub	r22, r26
    7a60:	71 09       	sbc	r23, r1
    7a62:	a1 2f       	mov	r26, r17
    7a64:	b0 e0       	ldi	r27, 0x00	; 0
    7a66:	aa 24       	eor	r10, r10
    7a68:	bb 24       	eor	r11, r11
    7a6a:	aa 1a       	sub	r10, r26
    7a6c:	bb 0a       	sbc	r11, r27
    7a6e:	1f ef       	ldi	r17, 0xFF	; 255
    7a70:	2f 3f       	cpi	r18, 0xFF	; 255
    7a72:	31 07       	cpc	r19, r17
    7a74:	19 f4       	brne	.+6      	; 0x7a7c <dtoa_prf+0x248>
    7a76:	d6 01       	movw	r26, r12
    7a78:	ed 92       	st	X+, r14
    7a7a:	6d 01       	movw	r12, r26
    7a7c:	82 17       	cp	r24, r18
    7a7e:	93 07       	cpc	r25, r19
    7a80:	2c f0       	brlt	.+10     	; 0x7a8c <dtoa_prf+0x258>
    7a82:	62 17       	cp	r22, r18
    7a84:	73 07       	cpc	r23, r19
    7a86:	14 f4       	brge	.+4      	; 0x7a8c <dtoa_prf+0x258>
    7a88:	10 81       	ld	r17, Z
    7a8a:	01 c0       	rjmp	.+2      	; 0x7a8e <dtoa_prf+0x25a>
    7a8c:	10 e3       	ldi	r17, 0x30	; 48
    7a8e:	21 50       	subi	r18, 0x01	; 1
    7a90:	30 40       	sbci	r19, 0x00	; 0
    7a92:	31 96       	adiw	r30, 0x01	; 1
    7a94:	2a 15       	cp	r18, r10
    7a96:	3b 05       	cpc	r19, r11
    7a98:	24 f0       	brlt	.+8      	; 0x7aa2 <dtoa_prf+0x26e>
    7a9a:	d6 01       	movw	r26, r12
    7a9c:	1d 93       	st	X+, r17
    7a9e:	6d 01       	movw	r12, r26
    7aa0:	e6 cf       	rjmp	.-52     	; 0x7a6e <dtoa_prf+0x23a>
    7aa2:	28 17       	cp	r18, r24
    7aa4:	39 07       	cpc	r19, r25
    7aa6:	49 f4       	brne	.+18     	; 0x7aba <dtoa_prf+0x286>
    7aa8:	bf 2d       	mov	r27, r15
    7aaa:	b6 33       	cpi	r27, 0x36	; 54
    7aac:	28 f4       	brcc	.+10     	; 0x7ab8 <dtoa_prf+0x284>
    7aae:	b5 33       	cpi	r27, 0x35	; 53
    7ab0:	21 f4       	brne	.+8      	; 0x7aba <dtoa_prf+0x286>
    7ab2:	41 15       	cp	r20, r1
    7ab4:	51 05       	cpc	r21, r1
    7ab6:	09 f4       	brne	.+2      	; 0x7aba <dtoa_prf+0x286>
    7ab8:	11 e3       	ldi	r17, 0x31	; 49
    7aba:	f6 01       	movw	r30, r12
    7abc:	11 93       	st	Z+, r17
    7abe:	80 2f       	mov	r24, r16
    7ac0:	df 01       	movw	r26, r30
    7ac2:	90 e2       	ldi	r25, 0x20	; 32
    7ac4:	02 c0       	rjmp	.+4      	; 0x7aca <dtoa_prf+0x296>
    7ac6:	9d 93       	st	X+, r25
    7ac8:	81 50       	subi	r24, 0x01	; 1
    7aca:	88 23       	and	r24, r24
    7acc:	e1 f7       	brne	.-8      	; 0x7ac6 <dtoa_prf+0x292>
    7ace:	e0 0f       	add	r30, r16
    7ad0:	f1 1d       	adc	r31, r1
    7ad2:	10 82       	st	Z, r1
    7ad4:	20 e0       	ldi	r18, 0x00	; 0
    7ad6:	30 e0       	ldi	r19, 0x00	; 0
    7ad8:	c9 01       	movw	r24, r18
    7ada:	29 96       	adiw	r28, 0x09	; 9
    7adc:	ea e0       	ldi	r30, 0x0A	; 10
    7ade:	0c 94 7d 3e 	jmp	0x7cfa	; 0x7cfa <__epilogue_restores__+0x10>

00007ae2 <__ftoa_engine>:
    7ae2:	28 30       	cpi	r18, 0x08	; 8
    7ae4:	08 f0       	brcs	.+2      	; 0x7ae8 <__ftoa_engine+0x6>
    7ae6:	27 e0       	ldi	r18, 0x07	; 7
    7ae8:	33 27       	eor	r19, r19
    7aea:	da 01       	movw	r26, r20
    7aec:	99 0f       	add	r25, r25
    7aee:	31 1d       	adc	r19, r1
    7af0:	87 fd       	sbrc	r24, 7
    7af2:	91 60       	ori	r25, 0x01	; 1
    7af4:	00 96       	adiw	r24, 0x00	; 0
    7af6:	61 05       	cpc	r22, r1
    7af8:	71 05       	cpc	r23, r1
    7afa:	39 f4       	brne	.+14     	; 0x7b0a <__ftoa_engine+0x28>
    7afc:	32 60       	ori	r19, 0x02	; 2
    7afe:	2e 5f       	subi	r18, 0xFE	; 254
    7b00:	3d 93       	st	X+, r19
    7b02:	30 e3       	ldi	r19, 0x30	; 48
    7b04:	2a 95       	dec	r18
    7b06:	e1 f7       	brne	.-8      	; 0x7b00 <__ftoa_engine+0x1e>
    7b08:	08 95       	ret
    7b0a:	9f 3f       	cpi	r25, 0xFF	; 255
    7b0c:	30 f0       	brcs	.+12     	; 0x7b1a <__ftoa_engine+0x38>
    7b0e:	80 38       	cpi	r24, 0x80	; 128
    7b10:	71 05       	cpc	r23, r1
    7b12:	61 05       	cpc	r22, r1
    7b14:	09 f0       	breq	.+2      	; 0x7b18 <__ftoa_engine+0x36>
    7b16:	3c 5f       	subi	r19, 0xFC	; 252
    7b18:	3c 5f       	subi	r19, 0xFC	; 252
    7b1a:	3d 93       	st	X+, r19
    7b1c:	91 30       	cpi	r25, 0x01	; 1
    7b1e:	08 f0       	brcs	.+2      	; 0x7b22 <__ftoa_engine+0x40>
    7b20:	80 68       	ori	r24, 0x80	; 128
    7b22:	91 1d       	adc	r25, r1
    7b24:	df 93       	push	r29
    7b26:	cf 93       	push	r28
    7b28:	1f 93       	push	r17
    7b2a:	0f 93       	push	r16
    7b2c:	ff 92       	push	r15
    7b2e:	ef 92       	push	r14
    7b30:	19 2f       	mov	r17, r25
    7b32:	98 7f       	andi	r25, 0xF8	; 248
    7b34:	96 95       	lsr	r25
    7b36:	e9 2f       	mov	r30, r25
    7b38:	96 95       	lsr	r25
    7b3a:	96 95       	lsr	r25
    7b3c:	e9 0f       	add	r30, r25
    7b3e:	ff 27       	eor	r31, r31
    7b40:	ec 51       	subi	r30, 0x1C	; 28
    7b42:	fe 4e       	sbci	r31, 0xEE	; 238
    7b44:	99 27       	eor	r25, r25
    7b46:	33 27       	eor	r19, r19
    7b48:	ee 24       	eor	r14, r14
    7b4a:	ff 24       	eor	r15, r15
    7b4c:	a7 01       	movw	r20, r14
    7b4e:	e7 01       	movw	r28, r14
    7b50:	05 90       	lpm	r0, Z+
    7b52:	08 94       	sec
    7b54:	07 94       	ror	r0
    7b56:	28 f4       	brcc	.+10     	; 0x7b62 <__ftoa_engine+0x80>
    7b58:	36 0f       	add	r19, r22
    7b5a:	e7 1e       	adc	r14, r23
    7b5c:	f8 1e       	adc	r15, r24
    7b5e:	49 1f       	adc	r20, r25
    7b60:	51 1d       	adc	r21, r1
    7b62:	66 0f       	add	r22, r22
    7b64:	77 1f       	adc	r23, r23
    7b66:	88 1f       	adc	r24, r24
    7b68:	99 1f       	adc	r25, r25
    7b6a:	06 94       	lsr	r0
    7b6c:	a1 f7       	brne	.-24     	; 0x7b56 <__ftoa_engine+0x74>
    7b6e:	05 90       	lpm	r0, Z+
    7b70:	07 94       	ror	r0
    7b72:	28 f4       	brcc	.+10     	; 0x7b7e <__ftoa_engine+0x9c>
    7b74:	e7 0e       	add	r14, r23
    7b76:	f8 1e       	adc	r15, r24
    7b78:	49 1f       	adc	r20, r25
    7b7a:	56 1f       	adc	r21, r22
    7b7c:	c1 1d       	adc	r28, r1
    7b7e:	77 0f       	add	r23, r23
    7b80:	88 1f       	adc	r24, r24
    7b82:	99 1f       	adc	r25, r25
    7b84:	66 1f       	adc	r22, r22
    7b86:	06 94       	lsr	r0
    7b88:	a1 f7       	brne	.-24     	; 0x7b72 <__ftoa_engine+0x90>
    7b8a:	05 90       	lpm	r0, Z+
    7b8c:	07 94       	ror	r0
    7b8e:	28 f4       	brcc	.+10     	; 0x7b9a <__ftoa_engine+0xb8>
    7b90:	f8 0e       	add	r15, r24
    7b92:	49 1f       	adc	r20, r25
    7b94:	56 1f       	adc	r21, r22
    7b96:	c7 1f       	adc	r28, r23
    7b98:	d1 1d       	adc	r29, r1
    7b9a:	88 0f       	add	r24, r24
    7b9c:	99 1f       	adc	r25, r25
    7b9e:	66 1f       	adc	r22, r22
    7ba0:	77 1f       	adc	r23, r23
    7ba2:	06 94       	lsr	r0
    7ba4:	a1 f7       	brne	.-24     	; 0x7b8e <__ftoa_engine+0xac>
    7ba6:	05 90       	lpm	r0, Z+
    7ba8:	07 94       	ror	r0
    7baa:	20 f4       	brcc	.+8      	; 0x7bb4 <__ftoa_engine+0xd2>
    7bac:	49 0f       	add	r20, r25
    7bae:	56 1f       	adc	r21, r22
    7bb0:	c7 1f       	adc	r28, r23
    7bb2:	d8 1f       	adc	r29, r24
    7bb4:	99 0f       	add	r25, r25
    7bb6:	66 1f       	adc	r22, r22
    7bb8:	77 1f       	adc	r23, r23
    7bba:	88 1f       	adc	r24, r24
    7bbc:	06 94       	lsr	r0
    7bbe:	a9 f7       	brne	.-22     	; 0x7baa <__ftoa_engine+0xc8>
    7bc0:	84 91       	lpm	r24, Z+
    7bc2:	10 95       	com	r17
    7bc4:	17 70       	andi	r17, 0x07	; 7
    7bc6:	41 f0       	breq	.+16     	; 0x7bd8 <__ftoa_engine+0xf6>
    7bc8:	d6 95       	lsr	r29
    7bca:	c7 95       	ror	r28
    7bcc:	57 95       	ror	r21
    7bce:	47 95       	ror	r20
    7bd0:	f7 94       	ror	r15
    7bd2:	e7 94       	ror	r14
    7bd4:	1a 95       	dec	r17
    7bd6:	c1 f7       	brne	.-16     	; 0x7bc8 <__ftoa_engine+0xe6>
    7bd8:	ea e8       	ldi	r30, 0x8A	; 138
    7bda:	f1 e1       	ldi	r31, 0x11	; 17
    7bdc:	68 94       	set
    7bde:	15 90       	lpm	r1, Z+
    7be0:	15 91       	lpm	r17, Z+
    7be2:	35 91       	lpm	r19, Z+
    7be4:	65 91       	lpm	r22, Z+
    7be6:	95 91       	lpm	r25, Z+
    7be8:	05 90       	lpm	r0, Z+
    7bea:	7f e2       	ldi	r23, 0x2F	; 47
    7bec:	73 95       	inc	r23
    7bee:	e1 18       	sub	r14, r1
    7bf0:	f1 0a       	sbc	r15, r17
    7bf2:	43 0b       	sbc	r20, r19
    7bf4:	56 0b       	sbc	r21, r22
    7bf6:	c9 0b       	sbc	r28, r25
    7bf8:	d0 09       	sbc	r29, r0
    7bfa:	c0 f7       	brcc	.-16     	; 0x7bec <__ftoa_engine+0x10a>
    7bfc:	e1 0c       	add	r14, r1
    7bfe:	f1 1e       	adc	r15, r17
    7c00:	43 1f       	adc	r20, r19
    7c02:	56 1f       	adc	r21, r22
    7c04:	c9 1f       	adc	r28, r25
    7c06:	d0 1d       	adc	r29, r0
    7c08:	7e f4       	brtc	.+30     	; 0x7c28 <__ftoa_engine+0x146>
    7c0a:	70 33       	cpi	r23, 0x30	; 48
    7c0c:	11 f4       	brne	.+4      	; 0x7c12 <__ftoa_engine+0x130>
    7c0e:	8a 95       	dec	r24
    7c10:	e6 cf       	rjmp	.-52     	; 0x7bde <__ftoa_engine+0xfc>
    7c12:	e8 94       	clt
    7c14:	01 50       	subi	r16, 0x01	; 1
    7c16:	30 f0       	brcs	.+12     	; 0x7c24 <__ftoa_engine+0x142>
    7c18:	08 0f       	add	r16, r24
    7c1a:	0a f4       	brpl	.+2      	; 0x7c1e <__ftoa_engine+0x13c>
    7c1c:	00 27       	eor	r16, r16
    7c1e:	02 17       	cp	r16, r18
    7c20:	08 f4       	brcc	.+2      	; 0x7c24 <__ftoa_engine+0x142>
    7c22:	20 2f       	mov	r18, r16
    7c24:	23 95       	inc	r18
    7c26:	02 2f       	mov	r16, r18
    7c28:	7a 33       	cpi	r23, 0x3A	; 58
    7c2a:	28 f0       	brcs	.+10     	; 0x7c36 <__ftoa_engine+0x154>
    7c2c:	79 e3       	ldi	r23, 0x39	; 57
    7c2e:	7d 93       	st	X+, r23
    7c30:	2a 95       	dec	r18
    7c32:	e9 f7       	brne	.-6      	; 0x7c2e <__ftoa_engine+0x14c>
    7c34:	10 c0       	rjmp	.+32     	; 0x7c56 <__ftoa_engine+0x174>
    7c36:	7d 93       	st	X+, r23
    7c38:	2a 95       	dec	r18
    7c3a:	89 f6       	brne	.-94     	; 0x7bde <__ftoa_engine+0xfc>
    7c3c:	06 94       	lsr	r0
    7c3e:	97 95       	ror	r25
    7c40:	67 95       	ror	r22
    7c42:	37 95       	ror	r19
    7c44:	17 95       	ror	r17
    7c46:	17 94       	ror	r1
    7c48:	e1 18       	sub	r14, r1
    7c4a:	f1 0a       	sbc	r15, r17
    7c4c:	43 0b       	sbc	r20, r19
    7c4e:	56 0b       	sbc	r21, r22
    7c50:	c9 0b       	sbc	r28, r25
    7c52:	d0 09       	sbc	r29, r0
    7c54:	98 f0       	brcs	.+38     	; 0x7c7c <__ftoa_engine+0x19a>
    7c56:	23 95       	inc	r18
    7c58:	7e 91       	ld	r23, -X
    7c5a:	73 95       	inc	r23
    7c5c:	7a 33       	cpi	r23, 0x3A	; 58
    7c5e:	08 f0       	brcs	.+2      	; 0x7c62 <__ftoa_engine+0x180>
    7c60:	70 e3       	ldi	r23, 0x30	; 48
    7c62:	7c 93       	st	X, r23
    7c64:	20 13       	cpse	r18, r16
    7c66:	b8 f7       	brcc	.-18     	; 0x7c56 <__ftoa_engine+0x174>
    7c68:	7e 91       	ld	r23, -X
    7c6a:	70 61       	ori	r23, 0x10	; 16
    7c6c:	7d 93       	st	X+, r23
    7c6e:	30 f0       	brcs	.+12     	; 0x7c7c <__ftoa_engine+0x19a>
    7c70:	83 95       	inc	r24
    7c72:	71 e3       	ldi	r23, 0x31	; 49
    7c74:	7d 93       	st	X+, r23
    7c76:	70 e3       	ldi	r23, 0x30	; 48
    7c78:	2a 95       	dec	r18
    7c7a:	e1 f7       	brne	.-8      	; 0x7c74 <__ftoa_engine+0x192>
    7c7c:	11 24       	eor	r1, r1
    7c7e:	ef 90       	pop	r14
    7c80:	ff 90       	pop	r15
    7c82:	0f 91       	pop	r16
    7c84:	1f 91       	pop	r17
    7c86:	cf 91       	pop	r28
    7c88:	df 91       	pop	r29
    7c8a:	99 27       	eor	r25, r25
    7c8c:	87 fd       	sbrc	r24, 7
    7c8e:	90 95       	com	r25
    7c90:	08 95       	ret

00007c92 <strrev>:
    7c92:	dc 01       	movw	r26, r24
    7c94:	fc 01       	movw	r30, r24
    7c96:	67 2f       	mov	r22, r23
    7c98:	71 91       	ld	r23, Z+
    7c9a:	77 23       	and	r23, r23
    7c9c:	e1 f7       	brne	.-8      	; 0x7c96 <strrev+0x4>
    7c9e:	32 97       	sbiw	r30, 0x02	; 2
    7ca0:	04 c0       	rjmp	.+8      	; 0x7caa <strrev+0x18>
    7ca2:	7c 91       	ld	r23, X
    7ca4:	6d 93       	st	X+, r22
    7ca6:	70 83       	st	Z, r23
    7ca8:	62 91       	ld	r22, -Z
    7caa:	ae 17       	cp	r26, r30
    7cac:	bf 07       	cpc	r27, r31
    7cae:	c8 f3       	brcs	.-14     	; 0x7ca2 <strrev+0x10>
    7cb0:	08 95       	ret

00007cb2 <__prologue_saves__>:
    7cb2:	2f 92       	push	r2
    7cb4:	3f 92       	push	r3
    7cb6:	4f 92       	push	r4
    7cb8:	5f 92       	push	r5
    7cba:	6f 92       	push	r6
    7cbc:	7f 92       	push	r7
    7cbe:	8f 92       	push	r8
    7cc0:	9f 92       	push	r9
    7cc2:	af 92       	push	r10
    7cc4:	bf 92       	push	r11
    7cc6:	cf 92       	push	r12
    7cc8:	df 92       	push	r13
    7cca:	ef 92       	push	r14
    7ccc:	ff 92       	push	r15
    7cce:	0f 93       	push	r16
    7cd0:	1f 93       	push	r17
    7cd2:	cf 93       	push	r28
    7cd4:	df 93       	push	r29
    7cd6:	cd b7       	in	r28, 0x3d	; 61
    7cd8:	de b7       	in	r29, 0x3e	; 62
    7cda:	ca 1b       	sub	r28, r26
    7cdc:	db 0b       	sbc	r29, r27
    7cde:	0f b6       	in	r0, 0x3f	; 63
    7ce0:	f8 94       	cli
    7ce2:	de bf       	out	0x3e, r29	; 62
    7ce4:	0f be       	out	0x3f, r0	; 63
    7ce6:	cd bf       	out	0x3d, r28	; 61
    7ce8:	09 94       	ijmp

00007cea <__epilogue_restores__>:
    7cea:	2a 88       	ldd	r2, Y+18	; 0x12
    7cec:	39 88       	ldd	r3, Y+17	; 0x11
    7cee:	48 88       	ldd	r4, Y+16	; 0x10
    7cf0:	5f 84       	ldd	r5, Y+15	; 0x0f
    7cf2:	6e 84       	ldd	r6, Y+14	; 0x0e
    7cf4:	7d 84       	ldd	r7, Y+13	; 0x0d
    7cf6:	8c 84       	ldd	r8, Y+12	; 0x0c
    7cf8:	9b 84       	ldd	r9, Y+11	; 0x0b
    7cfa:	aa 84       	ldd	r10, Y+10	; 0x0a
    7cfc:	b9 84       	ldd	r11, Y+9	; 0x09
    7cfe:	c8 84       	ldd	r12, Y+8	; 0x08
    7d00:	df 80       	ldd	r13, Y+7	; 0x07
    7d02:	ee 80       	ldd	r14, Y+6	; 0x06
    7d04:	fd 80       	ldd	r15, Y+5	; 0x05
    7d06:	0c 81       	ldd	r16, Y+4	; 0x04
    7d08:	1b 81       	ldd	r17, Y+3	; 0x03
    7d0a:	aa 81       	ldd	r26, Y+2	; 0x02
    7d0c:	b9 81       	ldd	r27, Y+1	; 0x01
    7d0e:	ce 0f       	add	r28, r30
    7d10:	d1 1d       	adc	r29, r1
    7d12:	0f b6       	in	r0, 0x3f	; 63
    7d14:	f8 94       	cli
    7d16:	de bf       	out	0x3e, r29	; 62
    7d18:	0f be       	out	0x3f, r0	; 63
    7d1a:	cd bf       	out	0x3d, r28	; 61
    7d1c:	ed 01       	movw	r28, r26
    7d1e:	08 95       	ret

00007d20 <_exit>:
    7d20:	f8 94       	cli

00007d22 <__stop_program>:
    7d22:	ff cf       	rjmp	.-2      	; 0x7d22 <__stop_program>
